ARM GAS  /tmp/ccZr23YC.s 			page 1


   1              		.cpu cortex-m0
   2              		.arch armv6s-m
   3              		.fpu softvfp
   4              		.eabi_attribute 20, 1
   5              		.eabi_attribute 21, 1
   6              		.eabi_attribute 23, 3
   7              		.eabi_attribute 24, 1
   8              		.eabi_attribute 25, 1
   9              		.eabi_attribute 26, 1
  10              		.eabi_attribute 30, 1
  11              		.eabi_attribute 34, 0
  12              		.eabi_attribute 18, 4
  13              		.file	"stm32f0xx_hal_rcc.c"
  14              		.text
  15              	.Ltext0:
  16              		.cfi_sections	.debug_frame
  17              		.file 1 "Drivers/STM32F0xx_HAL_Driver/Src/stm32f0xx_hal_rcc.c"
  18              		.section	.text.HAL_RCC_DeInit,"ax",%progbits
  19              		.align	1
  20              		.global	HAL_RCC_DeInit
  21              		.syntax unified
  22              		.code	16
  23              		.thumb_func
  25              	HAL_RCC_DeInit:
  26              	.LFB40:
   1:Drivers/STM32F0xx_HAL_Driver/Src/stm32f0xx_hal_rcc.c **** /**
   2:Drivers/STM32F0xx_HAL_Driver/Src/stm32f0xx_hal_rcc.c ****   ******************************************************************************
   3:Drivers/STM32F0xx_HAL_Driver/Src/stm32f0xx_hal_rcc.c ****   * @file    stm32f0xx_hal_rcc.c
   4:Drivers/STM32F0xx_HAL_Driver/Src/stm32f0xx_hal_rcc.c ****   * @author  MCD Application Team
   5:Drivers/STM32F0xx_HAL_Driver/Src/stm32f0xx_hal_rcc.c ****   * @brief   RCC HAL module driver.
   6:Drivers/STM32F0xx_HAL_Driver/Src/stm32f0xx_hal_rcc.c ****   *          This file provides firmware functions to manage the following 
   7:Drivers/STM32F0xx_HAL_Driver/Src/stm32f0xx_hal_rcc.c ****   *          functionalities of the Reset and Clock Control (RCC) peripheral:
   8:Drivers/STM32F0xx_HAL_Driver/Src/stm32f0xx_hal_rcc.c ****   *           + Initialization and de-initialization functions
   9:Drivers/STM32F0xx_HAL_Driver/Src/stm32f0xx_hal_rcc.c ****   *           + Peripheral Control functions
  10:Drivers/STM32F0xx_HAL_Driver/Src/stm32f0xx_hal_rcc.c ****   *       
  11:Drivers/STM32F0xx_HAL_Driver/Src/stm32f0xx_hal_rcc.c ****   @verbatim                
  12:Drivers/STM32F0xx_HAL_Driver/Src/stm32f0xx_hal_rcc.c ****   ==============================================================================
  13:Drivers/STM32F0xx_HAL_Driver/Src/stm32f0xx_hal_rcc.c ****                       ##### RCC specific features #####
  14:Drivers/STM32F0xx_HAL_Driver/Src/stm32f0xx_hal_rcc.c ****   ==============================================================================
  15:Drivers/STM32F0xx_HAL_Driver/Src/stm32f0xx_hal_rcc.c ****     [..]  
  16:Drivers/STM32F0xx_HAL_Driver/Src/stm32f0xx_hal_rcc.c ****       After reset the device is running from Internal High Speed oscillator
  17:Drivers/STM32F0xx_HAL_Driver/Src/stm32f0xx_hal_rcc.c ****       (HSI 8MHz) with Flash 0 wait state, Flash prefetch buffer is disabled, 
  18:Drivers/STM32F0xx_HAL_Driver/Src/stm32f0xx_hal_rcc.c ****       and all peripherals are off except internal SRAM, Flash and JTAG.
  19:Drivers/STM32F0xx_HAL_Driver/Src/stm32f0xx_hal_rcc.c ****       (+) There is no prescaler on High speed (AHB) and Low speed (APB) buses;
  20:Drivers/STM32F0xx_HAL_Driver/Src/stm32f0xx_hal_rcc.c ****           all peripherals mapped on these buses are running at HSI speed.
  21:Drivers/STM32F0xx_HAL_Driver/Src/stm32f0xx_hal_rcc.c ****       (+) The clock for all peripherals is switched off, except the SRAM and FLASH.
  22:Drivers/STM32F0xx_HAL_Driver/Src/stm32f0xx_hal_rcc.c ****       (+) All GPIOs are in input floating state, except the JTAG pins which
  23:Drivers/STM32F0xx_HAL_Driver/Src/stm32f0xx_hal_rcc.c ****           are assigned to be used for debug purpose.
  24:Drivers/STM32F0xx_HAL_Driver/Src/stm32f0xx_hal_rcc.c ****     [..] Once the device started from reset, the user application has to:
  25:Drivers/STM32F0xx_HAL_Driver/Src/stm32f0xx_hal_rcc.c ****       (+) Configure the clock source to be used to drive the System clock
  26:Drivers/STM32F0xx_HAL_Driver/Src/stm32f0xx_hal_rcc.c ****           (if the application needs higher frequency/performance)
  27:Drivers/STM32F0xx_HAL_Driver/Src/stm32f0xx_hal_rcc.c ****       (+) Configure the System clock frequency and Flash settings  
  28:Drivers/STM32F0xx_HAL_Driver/Src/stm32f0xx_hal_rcc.c ****       (+) Configure the AHB and APB buses prescalers
  29:Drivers/STM32F0xx_HAL_Driver/Src/stm32f0xx_hal_rcc.c ****       (+) Enable the clock for the peripheral(s) to be used
  30:Drivers/STM32F0xx_HAL_Driver/Src/stm32f0xx_hal_rcc.c ****       (+) Configure the clock source(s) for peripherals whose clocks are not
  31:Drivers/STM32F0xx_HAL_Driver/Src/stm32f0xx_hal_rcc.c ****           derived from the System clock (RTC, ADC, I2C, USART, TIM, USB FS, etc..)
  32:Drivers/STM32F0xx_HAL_Driver/Src/stm32f0xx_hal_rcc.c **** 
ARM GAS  /tmp/ccZr23YC.s 			page 2


  33:Drivers/STM32F0xx_HAL_Driver/Src/stm32f0xx_hal_rcc.c ****                       ##### RCC Limitations #####
  34:Drivers/STM32F0xx_HAL_Driver/Src/stm32f0xx_hal_rcc.c ****   ==============================================================================
  35:Drivers/STM32F0xx_HAL_Driver/Src/stm32f0xx_hal_rcc.c ****     [..]  
  36:Drivers/STM32F0xx_HAL_Driver/Src/stm32f0xx_hal_rcc.c ****       A delay between an RCC peripheral clock enable and the effective peripheral 
  37:Drivers/STM32F0xx_HAL_Driver/Src/stm32f0xx_hal_rcc.c ****       enabling should be taken into account in order to manage the peripheral read/write 
  38:Drivers/STM32F0xx_HAL_Driver/Src/stm32f0xx_hal_rcc.c ****       from/to registers.
  39:Drivers/STM32F0xx_HAL_Driver/Src/stm32f0xx_hal_rcc.c ****       (+) This delay depends on the peripheral mapping.
  40:Drivers/STM32F0xx_HAL_Driver/Src/stm32f0xx_hal_rcc.c ****         (++) AHB & APB peripherals, 1 dummy read is necessary
  41:Drivers/STM32F0xx_HAL_Driver/Src/stm32f0xx_hal_rcc.c **** 
  42:Drivers/STM32F0xx_HAL_Driver/Src/stm32f0xx_hal_rcc.c ****     [..]  
  43:Drivers/STM32F0xx_HAL_Driver/Src/stm32f0xx_hal_rcc.c ****       Workarounds:
  44:Drivers/STM32F0xx_HAL_Driver/Src/stm32f0xx_hal_rcc.c ****       (#) For AHB & APB peripherals, a dummy read to the peripheral register has been
  45:Drivers/STM32F0xx_HAL_Driver/Src/stm32f0xx_hal_rcc.c ****           inserted in each __HAL_RCC_PPP_CLK_ENABLE() macro.
  46:Drivers/STM32F0xx_HAL_Driver/Src/stm32f0xx_hal_rcc.c **** 
  47:Drivers/STM32F0xx_HAL_Driver/Src/stm32f0xx_hal_rcc.c ****   @endverbatim
  48:Drivers/STM32F0xx_HAL_Driver/Src/stm32f0xx_hal_rcc.c ****   ******************************************************************************
  49:Drivers/STM32F0xx_HAL_Driver/Src/stm32f0xx_hal_rcc.c ****   * @attention
  50:Drivers/STM32F0xx_HAL_Driver/Src/stm32f0xx_hal_rcc.c ****   *
  51:Drivers/STM32F0xx_HAL_Driver/Src/stm32f0xx_hal_rcc.c ****   * Copyright (c) 2016 STMicroelectronics.
  52:Drivers/STM32F0xx_HAL_Driver/Src/stm32f0xx_hal_rcc.c ****   * All rights reserved.
  53:Drivers/STM32F0xx_HAL_Driver/Src/stm32f0xx_hal_rcc.c ****   *
  54:Drivers/STM32F0xx_HAL_Driver/Src/stm32f0xx_hal_rcc.c ****   * This software is licensed under terms that can be found in the LICENSE file in
  55:Drivers/STM32F0xx_HAL_Driver/Src/stm32f0xx_hal_rcc.c ****   * the root directory of this software component.
  56:Drivers/STM32F0xx_HAL_Driver/Src/stm32f0xx_hal_rcc.c ****   * If no LICENSE file comes with this software, it is provided AS-IS.
  57:Drivers/STM32F0xx_HAL_Driver/Src/stm32f0xx_hal_rcc.c ****   ******************************************************************************
  58:Drivers/STM32F0xx_HAL_Driver/Src/stm32f0xx_hal_rcc.c ****   */
  59:Drivers/STM32F0xx_HAL_Driver/Src/stm32f0xx_hal_rcc.c **** 
  60:Drivers/STM32F0xx_HAL_Driver/Src/stm32f0xx_hal_rcc.c **** /* Includes ------------------------------------------------------------------*/
  61:Drivers/STM32F0xx_HAL_Driver/Src/stm32f0xx_hal_rcc.c **** #include "stm32f0xx_hal.h"
  62:Drivers/STM32F0xx_HAL_Driver/Src/stm32f0xx_hal_rcc.c **** 
  63:Drivers/STM32F0xx_HAL_Driver/Src/stm32f0xx_hal_rcc.c **** /** @addtogroup STM32F0xx_HAL_Driver
  64:Drivers/STM32F0xx_HAL_Driver/Src/stm32f0xx_hal_rcc.c ****   * @{
  65:Drivers/STM32F0xx_HAL_Driver/Src/stm32f0xx_hal_rcc.c ****   */
  66:Drivers/STM32F0xx_HAL_Driver/Src/stm32f0xx_hal_rcc.c **** 
  67:Drivers/STM32F0xx_HAL_Driver/Src/stm32f0xx_hal_rcc.c **** /** @defgroup RCC RCC
  68:Drivers/STM32F0xx_HAL_Driver/Src/stm32f0xx_hal_rcc.c **** * @brief RCC HAL module driver
  69:Drivers/STM32F0xx_HAL_Driver/Src/stm32f0xx_hal_rcc.c ****   * @{
  70:Drivers/STM32F0xx_HAL_Driver/Src/stm32f0xx_hal_rcc.c ****   */
  71:Drivers/STM32F0xx_HAL_Driver/Src/stm32f0xx_hal_rcc.c **** 
  72:Drivers/STM32F0xx_HAL_Driver/Src/stm32f0xx_hal_rcc.c **** #ifdef HAL_RCC_MODULE_ENABLED
  73:Drivers/STM32F0xx_HAL_Driver/Src/stm32f0xx_hal_rcc.c **** 
  74:Drivers/STM32F0xx_HAL_Driver/Src/stm32f0xx_hal_rcc.c **** /* Private typedef -----------------------------------------------------------*/
  75:Drivers/STM32F0xx_HAL_Driver/Src/stm32f0xx_hal_rcc.c **** /* Private define ------------------------------------------------------------*/
  76:Drivers/STM32F0xx_HAL_Driver/Src/stm32f0xx_hal_rcc.c **** /** @defgroup RCC_Private_Constants RCC Private Constants
  77:Drivers/STM32F0xx_HAL_Driver/Src/stm32f0xx_hal_rcc.c ****  * @{
  78:Drivers/STM32F0xx_HAL_Driver/Src/stm32f0xx_hal_rcc.c ****  */
  79:Drivers/STM32F0xx_HAL_Driver/Src/stm32f0xx_hal_rcc.c **** /**
  80:Drivers/STM32F0xx_HAL_Driver/Src/stm32f0xx_hal_rcc.c ****   * @}
  81:Drivers/STM32F0xx_HAL_Driver/Src/stm32f0xx_hal_rcc.c ****   */
  82:Drivers/STM32F0xx_HAL_Driver/Src/stm32f0xx_hal_rcc.c **** /* Private macro -------------------------------------------------------------*/
  83:Drivers/STM32F0xx_HAL_Driver/Src/stm32f0xx_hal_rcc.c **** /** @defgroup RCC_Private_Macros RCC Private Macros
  84:Drivers/STM32F0xx_HAL_Driver/Src/stm32f0xx_hal_rcc.c ****   * @{
  85:Drivers/STM32F0xx_HAL_Driver/Src/stm32f0xx_hal_rcc.c ****   */
  86:Drivers/STM32F0xx_HAL_Driver/Src/stm32f0xx_hal_rcc.c **** 
  87:Drivers/STM32F0xx_HAL_Driver/Src/stm32f0xx_hal_rcc.c **** #define MCO1_CLK_ENABLE()     __HAL_RCC_GPIOA_CLK_ENABLE()
  88:Drivers/STM32F0xx_HAL_Driver/Src/stm32f0xx_hal_rcc.c **** #define MCO1_GPIO_PORT        GPIOA
  89:Drivers/STM32F0xx_HAL_Driver/Src/stm32f0xx_hal_rcc.c **** #define MCO1_PIN              GPIO_PIN_8
ARM GAS  /tmp/ccZr23YC.s 			page 3


  90:Drivers/STM32F0xx_HAL_Driver/Src/stm32f0xx_hal_rcc.c **** 
  91:Drivers/STM32F0xx_HAL_Driver/Src/stm32f0xx_hal_rcc.c **** /**
  92:Drivers/STM32F0xx_HAL_Driver/Src/stm32f0xx_hal_rcc.c ****   * @}
  93:Drivers/STM32F0xx_HAL_Driver/Src/stm32f0xx_hal_rcc.c ****   */
  94:Drivers/STM32F0xx_HAL_Driver/Src/stm32f0xx_hal_rcc.c **** 
  95:Drivers/STM32F0xx_HAL_Driver/Src/stm32f0xx_hal_rcc.c **** /* Private variables ---------------------------------------------------------*/
  96:Drivers/STM32F0xx_HAL_Driver/Src/stm32f0xx_hal_rcc.c **** /** @defgroup RCC_Private_Variables RCC Private Variables
  97:Drivers/STM32F0xx_HAL_Driver/Src/stm32f0xx_hal_rcc.c ****   * @{
  98:Drivers/STM32F0xx_HAL_Driver/Src/stm32f0xx_hal_rcc.c ****   */
  99:Drivers/STM32F0xx_HAL_Driver/Src/stm32f0xx_hal_rcc.c **** /**
 100:Drivers/STM32F0xx_HAL_Driver/Src/stm32f0xx_hal_rcc.c ****   * @}
 101:Drivers/STM32F0xx_HAL_Driver/Src/stm32f0xx_hal_rcc.c ****   */
 102:Drivers/STM32F0xx_HAL_Driver/Src/stm32f0xx_hal_rcc.c **** 
 103:Drivers/STM32F0xx_HAL_Driver/Src/stm32f0xx_hal_rcc.c **** /* Private function prototypes -----------------------------------------------*/
 104:Drivers/STM32F0xx_HAL_Driver/Src/stm32f0xx_hal_rcc.c **** /* Exported functions ---------------------------------------------------------*/
 105:Drivers/STM32F0xx_HAL_Driver/Src/stm32f0xx_hal_rcc.c **** 
 106:Drivers/STM32F0xx_HAL_Driver/Src/stm32f0xx_hal_rcc.c **** /** @defgroup RCC_Exported_Functions RCC Exported Functions
 107:Drivers/STM32F0xx_HAL_Driver/Src/stm32f0xx_hal_rcc.c ****   * @{
 108:Drivers/STM32F0xx_HAL_Driver/Src/stm32f0xx_hal_rcc.c ****   */
 109:Drivers/STM32F0xx_HAL_Driver/Src/stm32f0xx_hal_rcc.c **** 
 110:Drivers/STM32F0xx_HAL_Driver/Src/stm32f0xx_hal_rcc.c **** /** @defgroup RCC_Exported_Functions_Group1 Initialization and de-initialization functions 
 111:Drivers/STM32F0xx_HAL_Driver/Src/stm32f0xx_hal_rcc.c ****   *  @brief    Initialization and Configuration functions 
 112:Drivers/STM32F0xx_HAL_Driver/Src/stm32f0xx_hal_rcc.c ****   *
 113:Drivers/STM32F0xx_HAL_Driver/Src/stm32f0xx_hal_rcc.c ****   @verbatim    
 114:Drivers/STM32F0xx_HAL_Driver/Src/stm32f0xx_hal_rcc.c ****   ===============================================================================
 115:Drivers/STM32F0xx_HAL_Driver/Src/stm32f0xx_hal_rcc.c ****            ##### Initialization and de-initialization functions #####
 116:Drivers/STM32F0xx_HAL_Driver/Src/stm32f0xx_hal_rcc.c ****   ===============================================================================
 117:Drivers/STM32F0xx_HAL_Driver/Src/stm32f0xx_hal_rcc.c ****     [..]
 118:Drivers/STM32F0xx_HAL_Driver/Src/stm32f0xx_hal_rcc.c ****       This section provides functions allowing to configure the internal/external oscillators
 119:Drivers/STM32F0xx_HAL_Driver/Src/stm32f0xx_hal_rcc.c ****       (HSE, HSI, HSI14, HSI48, LSE, LSI, PLL, CSS and MCO) and the System buses clocks (SYSCLK, 
 120:Drivers/STM32F0xx_HAL_Driver/Src/stm32f0xx_hal_rcc.c ****       AHB and APB1).
 121:Drivers/STM32F0xx_HAL_Driver/Src/stm32f0xx_hal_rcc.c **** 
 122:Drivers/STM32F0xx_HAL_Driver/Src/stm32f0xx_hal_rcc.c ****     [..] Internal/external clock and PLL configuration
 123:Drivers/STM32F0xx_HAL_Driver/Src/stm32f0xx_hal_rcc.c ****       (#) HSI (high-speed internal), 8 MHz factory-trimmed RC used directly or through
 124:Drivers/STM32F0xx_HAL_Driver/Src/stm32f0xx_hal_rcc.c ****           the PLL as System clock source.
 125:Drivers/STM32F0xx_HAL_Driver/Src/stm32f0xx_hal_rcc.c ****           The HSI clock can be used also to clock the USART and I2C peripherals.
 126:Drivers/STM32F0xx_HAL_Driver/Src/stm32f0xx_hal_rcc.c **** 
 127:Drivers/STM32F0xx_HAL_Driver/Src/stm32f0xx_hal_rcc.c ****       (#) HSI14 (high-speed internal), 14 MHz factory-trimmed RC used directly to clock 
 128:Drivers/STM32F0xx_HAL_Driver/Src/stm32f0xx_hal_rcc.c ****           the ADC peripheral.
 129:Drivers/STM32F0xx_HAL_Driver/Src/stm32f0xx_hal_rcc.c **** 
 130:Drivers/STM32F0xx_HAL_Driver/Src/stm32f0xx_hal_rcc.c ****       (#) LSI (low-speed internal), ~40 KHz low consumption RC used as IWDG and/or RTC
 131:Drivers/STM32F0xx_HAL_Driver/Src/stm32f0xx_hal_rcc.c ****           clock source.
 132:Drivers/STM32F0xx_HAL_Driver/Src/stm32f0xx_hal_rcc.c **** 
 133:Drivers/STM32F0xx_HAL_Driver/Src/stm32f0xx_hal_rcc.c ****       (#) HSE (high-speed external), 4 to 32 MHz crystal oscillator used directly or
 134:Drivers/STM32F0xx_HAL_Driver/Src/stm32f0xx_hal_rcc.c ****           through the PLL as System clock source. Can be used also as RTC clock source.
 135:Drivers/STM32F0xx_HAL_Driver/Src/stm32f0xx_hal_rcc.c **** 
 136:Drivers/STM32F0xx_HAL_Driver/Src/stm32f0xx_hal_rcc.c ****       (#) LSE (low-speed external), 32 KHz oscillator used as RTC clock source.   
 137:Drivers/STM32F0xx_HAL_Driver/Src/stm32f0xx_hal_rcc.c **** 
 138:Drivers/STM32F0xx_HAL_Driver/Src/stm32f0xx_hal_rcc.c ****       (#) PLL (clocked by HSI, HSI48 or HSE), featuring different output clocks:
 139:Drivers/STM32F0xx_HAL_Driver/Src/stm32f0xx_hal_rcc.c ****        (++) The first output is used to generate the high speed system clock (up to 48 MHz)
 140:Drivers/STM32F0xx_HAL_Driver/Src/stm32f0xx_hal_rcc.c ****        (++) The second output is used to generate the clock for the USB FS (48 MHz)
 141:Drivers/STM32F0xx_HAL_Driver/Src/stm32f0xx_hal_rcc.c ****        (++) The third output may be used to generate the clock for the TIM, I2C and USART 
 142:Drivers/STM32F0xx_HAL_Driver/Src/stm32f0xx_hal_rcc.c ****             peripherals (up to 48 MHz)
 143:Drivers/STM32F0xx_HAL_Driver/Src/stm32f0xx_hal_rcc.c **** 
 144:Drivers/STM32F0xx_HAL_Driver/Src/stm32f0xx_hal_rcc.c ****       (#) CSS (Clock security system), once enable using the macro __HAL_RCC_CSS_ENABLE()
 145:Drivers/STM32F0xx_HAL_Driver/Src/stm32f0xx_hal_rcc.c ****           and if a HSE clock failure occurs(HSE used directly or through PLL as System 
 146:Drivers/STM32F0xx_HAL_Driver/Src/stm32f0xx_hal_rcc.c ****           clock source), the System clocks automatically switched to HSI and an interrupt
ARM GAS  /tmp/ccZr23YC.s 			page 4


 147:Drivers/STM32F0xx_HAL_Driver/Src/stm32f0xx_hal_rcc.c ****           is generated if enabled. The interrupt is linked to the Cortex-M0 NMI 
 148:Drivers/STM32F0xx_HAL_Driver/Src/stm32f0xx_hal_rcc.c ****           (Non-Maskable Interrupt) exception vector.   
 149:Drivers/STM32F0xx_HAL_Driver/Src/stm32f0xx_hal_rcc.c **** 
 150:Drivers/STM32F0xx_HAL_Driver/Src/stm32f0xx_hal_rcc.c ****       (#) MCO (microcontroller clock output), used to output SYSCLK, HSI, HSE, LSI, LSE or PLL
 151:Drivers/STM32F0xx_HAL_Driver/Src/stm32f0xx_hal_rcc.c ****           clock (divided by 2) output on pin (such as PA8 pin).
 152:Drivers/STM32F0xx_HAL_Driver/Src/stm32f0xx_hal_rcc.c **** 
 153:Drivers/STM32F0xx_HAL_Driver/Src/stm32f0xx_hal_rcc.c ****     [..] System, AHB and APB buses clocks configuration
 154:Drivers/STM32F0xx_HAL_Driver/Src/stm32f0xx_hal_rcc.c ****       (#) Several clock sources can be used to drive the System clock (SYSCLK): HSI,
 155:Drivers/STM32F0xx_HAL_Driver/Src/stm32f0xx_hal_rcc.c ****           HSE and PLL.
 156:Drivers/STM32F0xx_HAL_Driver/Src/stm32f0xx_hal_rcc.c ****           The AHB clock (HCLK) is derived from System clock through configurable
 157:Drivers/STM32F0xx_HAL_Driver/Src/stm32f0xx_hal_rcc.c ****           prescaler and used to clock the CPU, memory and peripherals mapped
 158:Drivers/STM32F0xx_HAL_Driver/Src/stm32f0xx_hal_rcc.c ****           on AHB bus (DMA, GPIO...). APB1 (PCLK1) clock is derived
 159:Drivers/STM32F0xx_HAL_Driver/Src/stm32f0xx_hal_rcc.c ****           from AHB clock through configurable prescalers and used to clock
 160:Drivers/STM32F0xx_HAL_Driver/Src/stm32f0xx_hal_rcc.c ****           the peripherals mapped on these buses. You can use
 161:Drivers/STM32F0xx_HAL_Driver/Src/stm32f0xx_hal_rcc.c ****           "HAL_RCC_GetSysClockFreq()" function to retrieve the frequencies of these clocks.
 162:Drivers/STM32F0xx_HAL_Driver/Src/stm32f0xx_hal_rcc.c **** 
 163:Drivers/STM32F0xx_HAL_Driver/Src/stm32f0xx_hal_rcc.c ****       (#) All the peripheral clocks are derived from the System clock (SYSCLK) except:
 164:Drivers/STM32F0xx_HAL_Driver/Src/stm32f0xx_hal_rcc.c ****         (++) The FLASH program/erase clock  which is always HSI 8MHz clock.
 165:Drivers/STM32F0xx_HAL_Driver/Src/stm32f0xx_hal_rcc.c ****         (++) The USB 48 MHz clock which is derived from the PLL VCO clock.
 166:Drivers/STM32F0xx_HAL_Driver/Src/stm32f0xx_hal_rcc.c ****         (++) The USART clock which can be derived as well from HSI 8MHz, LSI or LSE.
 167:Drivers/STM32F0xx_HAL_Driver/Src/stm32f0xx_hal_rcc.c ****         (++) The I2C clock which can be derived as well from HSI 8MHz clock.
 168:Drivers/STM32F0xx_HAL_Driver/Src/stm32f0xx_hal_rcc.c ****         (++) The ADC clock which is derived from PLL output.
 169:Drivers/STM32F0xx_HAL_Driver/Src/stm32f0xx_hal_rcc.c ****         (++) The RTC clock which is derived from the LSE, LSI or 1 MHz HSE_RTC
 170:Drivers/STM32F0xx_HAL_Driver/Src/stm32f0xx_hal_rcc.c ****              (HSE divided by a programmable prescaler). The System clock (SYSCLK)
 171:Drivers/STM32F0xx_HAL_Driver/Src/stm32f0xx_hal_rcc.c ****              frequency must be higher or equal to the RTC clock frequency.
 172:Drivers/STM32F0xx_HAL_Driver/Src/stm32f0xx_hal_rcc.c ****         (++) IWDG clock which is always the LSI clock.
 173:Drivers/STM32F0xx_HAL_Driver/Src/stm32f0xx_hal_rcc.c **** 
 174:Drivers/STM32F0xx_HAL_Driver/Src/stm32f0xx_hal_rcc.c ****       (#) For the STM32F0xx devices, the maximum frequency of the SYSCLK, HCLK and PCLK1 is 48 MHz,
 175:Drivers/STM32F0xx_HAL_Driver/Src/stm32f0xx_hal_rcc.c ****           Depending on the SYSCLK frequency, the flash latency should be adapted accordingly.
 176:Drivers/STM32F0xx_HAL_Driver/Src/stm32f0xx_hal_rcc.c **** 
 177:Drivers/STM32F0xx_HAL_Driver/Src/stm32f0xx_hal_rcc.c ****       (#) After reset, the System clock source is the HSI (8 MHz) with 0 WS and
 178:Drivers/STM32F0xx_HAL_Driver/Src/stm32f0xx_hal_rcc.c ****           prefetch is disabled.
 179:Drivers/STM32F0xx_HAL_Driver/Src/stm32f0xx_hal_rcc.c ****   @endverbatim
 180:Drivers/STM32F0xx_HAL_Driver/Src/stm32f0xx_hal_rcc.c ****   * @{
 181:Drivers/STM32F0xx_HAL_Driver/Src/stm32f0xx_hal_rcc.c ****   */
 182:Drivers/STM32F0xx_HAL_Driver/Src/stm32f0xx_hal_rcc.c ****   
 183:Drivers/STM32F0xx_HAL_Driver/Src/stm32f0xx_hal_rcc.c **** /*
 184:Drivers/STM32F0xx_HAL_Driver/Src/stm32f0xx_hal_rcc.c ****   Additional consideration on the SYSCLK based on Latency settings:
 185:Drivers/STM32F0xx_HAL_Driver/Src/stm32f0xx_hal_rcc.c ****           +-----------------------------------------------+
 186:Drivers/STM32F0xx_HAL_Driver/Src/stm32f0xx_hal_rcc.c ****           | Latency       | SYSCLK clock frequency (MHz)  |
 187:Drivers/STM32F0xx_HAL_Driver/Src/stm32f0xx_hal_rcc.c ****           |---------------|-------------------------------|
 188:Drivers/STM32F0xx_HAL_Driver/Src/stm32f0xx_hal_rcc.c ****           |0WS(1CPU cycle)|       0 < SYSCLK <= 24        |
 189:Drivers/STM32F0xx_HAL_Driver/Src/stm32f0xx_hal_rcc.c ****           |---------------|-------------------------------|
 190:Drivers/STM32F0xx_HAL_Driver/Src/stm32f0xx_hal_rcc.c ****           |1WS(2CPU cycle)|      24 < SYSCLK <= 48        |
 191:Drivers/STM32F0xx_HAL_Driver/Src/stm32f0xx_hal_rcc.c ****           +-----------------------------------------------+
 192:Drivers/STM32F0xx_HAL_Driver/Src/stm32f0xx_hal_rcc.c ****   */
 193:Drivers/STM32F0xx_HAL_Driver/Src/stm32f0xx_hal_rcc.c **** 
 194:Drivers/STM32F0xx_HAL_Driver/Src/stm32f0xx_hal_rcc.c **** /**
 195:Drivers/STM32F0xx_HAL_Driver/Src/stm32f0xx_hal_rcc.c ****   * @brief  Resets the RCC clock configuration to the default reset state.
 196:Drivers/STM32F0xx_HAL_Driver/Src/stm32f0xx_hal_rcc.c ****   * @note   The default reset state of the clock configuration is given below:
 197:Drivers/STM32F0xx_HAL_Driver/Src/stm32f0xx_hal_rcc.c ****   *            - HSI ON and used as system clock source
 198:Drivers/STM32F0xx_HAL_Driver/Src/stm32f0xx_hal_rcc.c ****   *            - HSE and PLL OFF
 199:Drivers/STM32F0xx_HAL_Driver/Src/stm32f0xx_hal_rcc.c ****   *            - AHB, APB1 prescaler set to 1.
 200:Drivers/STM32F0xx_HAL_Driver/Src/stm32f0xx_hal_rcc.c ****   *            - CSS and MCO1 OFF
 201:Drivers/STM32F0xx_HAL_Driver/Src/stm32f0xx_hal_rcc.c ****   *            - All interrupts disabled
 202:Drivers/STM32F0xx_HAL_Driver/Src/stm32f0xx_hal_rcc.c ****   *            - All interrupt and reset flags cleared
 203:Drivers/STM32F0xx_HAL_Driver/Src/stm32f0xx_hal_rcc.c ****   * @note   This function does not modify the configuration of the
ARM GAS  /tmp/ccZr23YC.s 			page 5


 204:Drivers/STM32F0xx_HAL_Driver/Src/stm32f0xx_hal_rcc.c ****   *            - Peripheral clocks
 205:Drivers/STM32F0xx_HAL_Driver/Src/stm32f0xx_hal_rcc.c ****   *            - LSI, LSE and RTC clocks
 206:Drivers/STM32F0xx_HAL_Driver/Src/stm32f0xx_hal_rcc.c ****   * @retval HAL status
 207:Drivers/STM32F0xx_HAL_Driver/Src/stm32f0xx_hal_rcc.c ****   */
 208:Drivers/STM32F0xx_HAL_Driver/Src/stm32f0xx_hal_rcc.c **** HAL_StatusTypeDef HAL_RCC_DeInit(void)
 209:Drivers/STM32F0xx_HAL_Driver/Src/stm32f0xx_hal_rcc.c **** {
  27              		.loc 1 209 1 view -0
  28              		.cfi_startproc
  29              		@ args = 0, pretend = 0, frame = 0
  30              		@ frame_needed = 0, uses_anonymous_args = 0
  31 0000 70B5     		push	{r4, r5, r6, lr}
  32              	.LCFI0:
  33              		.cfi_def_cfa_offset 16
  34              		.cfi_offset 4, -16
  35              		.cfi_offset 5, -12
  36              		.cfi_offset 6, -8
  37              		.cfi_offset 14, -4
 210:Drivers/STM32F0xx_HAL_Driver/Src/stm32f0xx_hal_rcc.c ****   uint32_t tickstart;
  38              		.loc 1 210 3 view .LVU1
 211:Drivers/STM32F0xx_HAL_Driver/Src/stm32f0xx_hal_rcc.c **** 
 212:Drivers/STM32F0xx_HAL_Driver/Src/stm32f0xx_hal_rcc.c ****   /* Get Start Tick*/
 213:Drivers/STM32F0xx_HAL_Driver/Src/stm32f0xx_hal_rcc.c ****   tickstart = HAL_GetTick();
  39              		.loc 1 213 3 view .LVU2
  40              		.loc 1 213 15 is_stmt 0 view .LVU3
  41 0002 FFF7FEFF 		bl	HAL_GetTick
  42              	.LVL0:
  43 0006 0400     		movs	r4, r0
  44              	.LVL1:
 214:Drivers/STM32F0xx_HAL_Driver/Src/stm32f0xx_hal_rcc.c ****   
 215:Drivers/STM32F0xx_HAL_Driver/Src/stm32f0xx_hal_rcc.c ****   /* Set HSION bit, HSITRIM[4:0] bits to the reset value*/
 216:Drivers/STM32F0xx_HAL_Driver/Src/stm32f0xx_hal_rcc.c ****   SET_BIT(RCC->CR, RCC_CR_HSION | RCC_CR_HSITRIM_4); 
  45              		.loc 1 216 3 is_stmt 1 view .LVU4
  46 0008 284A     		ldr	r2, .L17
  47 000a 1368     		ldr	r3, [r2]
  48 000c 8121     		movs	r1, #129
  49 000e 0B43     		orrs	r3, r1
  50 0010 1360     		str	r3, [r2]
 217:Drivers/STM32F0xx_HAL_Driver/Src/stm32f0xx_hal_rcc.c **** 
 218:Drivers/STM32F0xx_HAL_Driver/Src/stm32f0xx_hal_rcc.c ****   /* Wait till HSI is ready */
 219:Drivers/STM32F0xx_HAL_Driver/Src/stm32f0xx_hal_rcc.c ****   while (READ_BIT(RCC->CR, RCC_CR_HSIRDY) == RESET)
  51              		.loc 1 219 3 view .LVU5
  52              	.LVL2:
  53              	.L2:
  54              		.loc 1 219 43 view .LVU6
  55              		.loc 1 219 10 is_stmt 0 view .LVU7
  56 0012 264B     		ldr	r3, .L17
  57 0014 1B68     		ldr	r3, [r3]
  58              		.loc 1 219 43 view .LVU8
  59 0016 9B07     		lsls	r3, r3, #30
  60 0018 07D4     		bmi	.L13
 220:Drivers/STM32F0xx_HAL_Driver/Src/stm32f0xx_hal_rcc.c ****   {
 221:Drivers/STM32F0xx_HAL_Driver/Src/stm32f0xx_hal_rcc.c ****     if ((HAL_GetTick() - tickstart) > HSI_TIMEOUT_VALUE)
  61              		.loc 1 221 5 is_stmt 1 view .LVU9
  62              		.loc 1 221 10 is_stmt 0 view .LVU10
  63 001a FFF7FEFF 		bl	HAL_GetTick
  64              	.LVL3:
  65              		.loc 1 221 24 discriminator 1 view .LVU11
ARM GAS  /tmp/ccZr23YC.s 			page 6


  66 001e 001B     		subs	r0, r0, r4
  67              		.loc 1 221 8 discriminator 1 view .LVU12
  68 0020 0228     		cmp	r0, #2
  69 0022 F6D9     		bls	.L2
 222:Drivers/STM32F0xx_HAL_Driver/Src/stm32f0xx_hal_rcc.c ****     {
 223:Drivers/STM32F0xx_HAL_Driver/Src/stm32f0xx_hal_rcc.c ****       return HAL_TIMEOUT;
  70              		.loc 1 223 14 view .LVU13
  71 0024 0324     		movs	r4, #3
  72              	.LVL4:
  73              	.L3:
 224:Drivers/STM32F0xx_HAL_Driver/Src/stm32f0xx_hal_rcc.c ****     }
 225:Drivers/STM32F0xx_HAL_Driver/Src/stm32f0xx_hal_rcc.c ****   }
 226:Drivers/STM32F0xx_HAL_Driver/Src/stm32f0xx_hal_rcc.c **** 
 227:Drivers/STM32F0xx_HAL_Driver/Src/stm32f0xx_hal_rcc.c ****   /* Reset SW[1:0], HPRE[3:0], PPRE[2:0] and MCOSEL[2:0] bits */
 228:Drivers/STM32F0xx_HAL_Driver/Src/stm32f0xx_hal_rcc.c ****   CLEAR_BIT(RCC->CFGR, RCC_CFGR_SW | RCC_CFGR_HPRE | RCC_CFGR_PPRE | RCC_CFGR_MCO);
 229:Drivers/STM32F0xx_HAL_Driver/Src/stm32f0xx_hal_rcc.c **** 
 230:Drivers/STM32F0xx_HAL_Driver/Src/stm32f0xx_hal_rcc.c ****   /* Wait till HSI as SYSCLK status is enabled */
 231:Drivers/STM32F0xx_HAL_Driver/Src/stm32f0xx_hal_rcc.c ****   while (READ_BIT(RCC->CFGR, RCC_CFGR_SWS) != RESET)
 232:Drivers/STM32F0xx_HAL_Driver/Src/stm32f0xx_hal_rcc.c ****   {
 233:Drivers/STM32F0xx_HAL_Driver/Src/stm32f0xx_hal_rcc.c ****     if ((HAL_GetTick() - tickstart) > CLOCKSWITCH_TIMEOUT_VALUE)
 234:Drivers/STM32F0xx_HAL_Driver/Src/stm32f0xx_hal_rcc.c ****     {
 235:Drivers/STM32F0xx_HAL_Driver/Src/stm32f0xx_hal_rcc.c ****       return HAL_TIMEOUT;
 236:Drivers/STM32F0xx_HAL_Driver/Src/stm32f0xx_hal_rcc.c ****     }
 237:Drivers/STM32F0xx_HAL_Driver/Src/stm32f0xx_hal_rcc.c ****   }
 238:Drivers/STM32F0xx_HAL_Driver/Src/stm32f0xx_hal_rcc.c **** 
 239:Drivers/STM32F0xx_HAL_Driver/Src/stm32f0xx_hal_rcc.c ****   /* Update the SystemCoreClock global variable for HSI as system clock source */
 240:Drivers/STM32F0xx_HAL_Driver/Src/stm32f0xx_hal_rcc.c ****   SystemCoreClock = HSI_VALUE;
 241:Drivers/STM32F0xx_HAL_Driver/Src/stm32f0xx_hal_rcc.c **** 
 242:Drivers/STM32F0xx_HAL_Driver/Src/stm32f0xx_hal_rcc.c ****   /* Adapt Systick interrupt period */
 243:Drivers/STM32F0xx_HAL_Driver/Src/stm32f0xx_hal_rcc.c ****   if (HAL_InitTick(uwTickPrio) != HAL_OK)
 244:Drivers/STM32F0xx_HAL_Driver/Src/stm32f0xx_hal_rcc.c ****   {
 245:Drivers/STM32F0xx_HAL_Driver/Src/stm32f0xx_hal_rcc.c ****     return HAL_ERROR;
 246:Drivers/STM32F0xx_HAL_Driver/Src/stm32f0xx_hal_rcc.c ****   }
 247:Drivers/STM32F0xx_HAL_Driver/Src/stm32f0xx_hal_rcc.c **** 
 248:Drivers/STM32F0xx_HAL_Driver/Src/stm32f0xx_hal_rcc.c ****   /* Reset HSEON, CSSON, PLLON bits */
 249:Drivers/STM32F0xx_HAL_Driver/Src/stm32f0xx_hal_rcc.c ****   CLEAR_BIT(RCC->CR, RCC_CR_PLLON | RCC_CR_CSSON | RCC_CR_HSEON);
 250:Drivers/STM32F0xx_HAL_Driver/Src/stm32f0xx_hal_rcc.c ****   
 251:Drivers/STM32F0xx_HAL_Driver/Src/stm32f0xx_hal_rcc.c ****   /* Reset HSEBYP bit */
 252:Drivers/STM32F0xx_HAL_Driver/Src/stm32f0xx_hal_rcc.c ****   CLEAR_BIT(RCC->CR, RCC_CR_HSEBYP);
 253:Drivers/STM32F0xx_HAL_Driver/Src/stm32f0xx_hal_rcc.c **** 
 254:Drivers/STM32F0xx_HAL_Driver/Src/stm32f0xx_hal_rcc.c ****   /* Get start tick */
 255:Drivers/STM32F0xx_HAL_Driver/Src/stm32f0xx_hal_rcc.c ****   tickstart = HAL_GetTick();
 256:Drivers/STM32F0xx_HAL_Driver/Src/stm32f0xx_hal_rcc.c ****   
 257:Drivers/STM32F0xx_HAL_Driver/Src/stm32f0xx_hal_rcc.c ****   /* Wait till PLLRDY is cleared */
 258:Drivers/STM32F0xx_HAL_Driver/Src/stm32f0xx_hal_rcc.c ****   while(READ_BIT(RCC->CR, RCC_CR_PLLRDY) != RESET)
 259:Drivers/STM32F0xx_HAL_Driver/Src/stm32f0xx_hal_rcc.c ****   {
 260:Drivers/STM32F0xx_HAL_Driver/Src/stm32f0xx_hal_rcc.c ****     if((HAL_GetTick() - tickstart) > PLL_TIMEOUT_VALUE)
 261:Drivers/STM32F0xx_HAL_Driver/Src/stm32f0xx_hal_rcc.c ****     {
 262:Drivers/STM32F0xx_HAL_Driver/Src/stm32f0xx_hal_rcc.c ****       return HAL_TIMEOUT;
 263:Drivers/STM32F0xx_HAL_Driver/Src/stm32f0xx_hal_rcc.c ****     }
 264:Drivers/STM32F0xx_HAL_Driver/Src/stm32f0xx_hal_rcc.c ****   }
 265:Drivers/STM32F0xx_HAL_Driver/Src/stm32f0xx_hal_rcc.c **** 
 266:Drivers/STM32F0xx_HAL_Driver/Src/stm32f0xx_hal_rcc.c ****   /* Reset CFGR register */
 267:Drivers/STM32F0xx_HAL_Driver/Src/stm32f0xx_hal_rcc.c ****   CLEAR_REG(RCC->CFGR);
 268:Drivers/STM32F0xx_HAL_Driver/Src/stm32f0xx_hal_rcc.c **** 
 269:Drivers/STM32F0xx_HAL_Driver/Src/stm32f0xx_hal_rcc.c ****   /* Reset CFGR2 register */
 270:Drivers/STM32F0xx_HAL_Driver/Src/stm32f0xx_hal_rcc.c ****   CLEAR_REG(RCC->CFGR2);
ARM GAS  /tmp/ccZr23YC.s 			page 7


 271:Drivers/STM32F0xx_HAL_Driver/Src/stm32f0xx_hal_rcc.c **** 
 272:Drivers/STM32F0xx_HAL_Driver/Src/stm32f0xx_hal_rcc.c ****   /* Reset CFGR3 register */
 273:Drivers/STM32F0xx_HAL_Driver/Src/stm32f0xx_hal_rcc.c ****   CLEAR_REG(RCC->CFGR3);
 274:Drivers/STM32F0xx_HAL_Driver/Src/stm32f0xx_hal_rcc.c **** 
 275:Drivers/STM32F0xx_HAL_Driver/Src/stm32f0xx_hal_rcc.c ****   /* Disable all interrupts */
 276:Drivers/STM32F0xx_HAL_Driver/Src/stm32f0xx_hal_rcc.c ****   CLEAR_REG(RCC->CIR);
 277:Drivers/STM32F0xx_HAL_Driver/Src/stm32f0xx_hal_rcc.c **** 
 278:Drivers/STM32F0xx_HAL_Driver/Src/stm32f0xx_hal_rcc.c ****   /* Clear all reset flags */
 279:Drivers/STM32F0xx_HAL_Driver/Src/stm32f0xx_hal_rcc.c ****   __HAL_RCC_CLEAR_RESET_FLAGS();
 280:Drivers/STM32F0xx_HAL_Driver/Src/stm32f0xx_hal_rcc.c **** 
 281:Drivers/STM32F0xx_HAL_Driver/Src/stm32f0xx_hal_rcc.c ****   return HAL_OK;
 282:Drivers/STM32F0xx_HAL_Driver/Src/stm32f0xx_hal_rcc.c **** }
  74              		.loc 1 282 1 view .LVU14
  75 0026 2000     		movs	r0, r4
  76              		@ sp needed
  77 0028 70BD     		pop	{r4, r5, r6, pc}
  78              	.LVL5:
  79              	.L13:
 228:Drivers/STM32F0xx_HAL_Driver/Src/stm32f0xx_hal_rcc.c **** 
  80              		.loc 1 228 3 is_stmt 1 view .LVU15
  81 002a 204A     		ldr	r2, .L17
  82 002c 5368     		ldr	r3, [r2, #4]
  83 002e 2049     		ldr	r1, .L17+4
  84 0030 0B40     		ands	r3, r1
  85 0032 5360     		str	r3, [r2, #4]
 231:Drivers/STM32F0xx_HAL_Driver/Src/stm32f0xx_hal_rcc.c ****   {
  86              		.loc 1 231 3 view .LVU16
  87              	.L5:
 231:Drivers/STM32F0xx_HAL_Driver/Src/stm32f0xx_hal_rcc.c ****   {
  88              		.loc 1 231 44 view .LVU17
 231:Drivers/STM32F0xx_HAL_Driver/Src/stm32f0xx_hal_rcc.c ****   {
  89              		.loc 1 231 10 is_stmt 0 view .LVU18
  90 0034 1D4B     		ldr	r3, .L17
  91 0036 5B68     		ldr	r3, [r3, #4]
  92 0038 0C22     		movs	r2, #12
 231:Drivers/STM32F0xx_HAL_Driver/Src/stm32f0xx_hal_rcc.c ****   {
  93              		.loc 1 231 44 view .LVU19
  94 003a 1A42     		tst	r2, r3
  95 003c 07D0     		beq	.L14
 233:Drivers/STM32F0xx_HAL_Driver/Src/stm32f0xx_hal_rcc.c ****     {
  96              		.loc 1 233 5 is_stmt 1 view .LVU20
 233:Drivers/STM32F0xx_HAL_Driver/Src/stm32f0xx_hal_rcc.c ****     {
  97              		.loc 1 233 10 is_stmt 0 view .LVU21
  98 003e FFF7FEFF 		bl	HAL_GetTick
  99              	.LVL6:
 233:Drivers/STM32F0xx_HAL_Driver/Src/stm32f0xx_hal_rcc.c ****     {
 100              		.loc 1 233 24 discriminator 1 view .LVU22
 101 0042 001B     		subs	r0, r0, r4
 233:Drivers/STM32F0xx_HAL_Driver/Src/stm32f0xx_hal_rcc.c ****     {
 102              		.loc 1 233 8 discriminator 1 view .LVU23
 103 0044 1B4B     		ldr	r3, .L17+8
 104 0046 9842     		cmp	r0, r3
 105 0048 F4D9     		bls	.L5
 235:Drivers/STM32F0xx_HAL_Driver/Src/stm32f0xx_hal_rcc.c ****     }
 106              		.loc 1 235 14 view .LVU24
 107 004a 0324     		movs	r4, #3
 108              	.LVL7:
ARM GAS  /tmp/ccZr23YC.s 			page 8


 235:Drivers/STM32F0xx_HAL_Driver/Src/stm32f0xx_hal_rcc.c ****     }
 109              		.loc 1 235 14 view .LVU25
 110 004c EBE7     		b	.L3
 111              	.LVL8:
 112              	.L14:
 240:Drivers/STM32F0xx_HAL_Driver/Src/stm32f0xx_hal_rcc.c **** 
 113              		.loc 1 240 3 is_stmt 1 view .LVU26
 240:Drivers/STM32F0xx_HAL_Driver/Src/stm32f0xx_hal_rcc.c **** 
 114              		.loc 1 240 19 is_stmt 0 view .LVU27
 115 004e 1A4B     		ldr	r3, .L17+12
 116 0050 1A4A     		ldr	r2, .L17+16
 117 0052 1A60     		str	r2, [r3]
 243:Drivers/STM32F0xx_HAL_Driver/Src/stm32f0xx_hal_rcc.c ****   {
 118              		.loc 1 243 3 is_stmt 1 view .LVU28
 243:Drivers/STM32F0xx_HAL_Driver/Src/stm32f0xx_hal_rcc.c ****   {
 119              		.loc 1 243 7 is_stmt 0 view .LVU29
 120 0054 1A4B     		ldr	r3, .L17+20
 121 0056 1868     		ldr	r0, [r3]
 122 0058 FFF7FEFF 		bl	HAL_InitTick
 123              	.LVL9:
 124 005c 041E     		subs	r4, r0, #0
 125              	.LVL10:
 243:Drivers/STM32F0xx_HAL_Driver/Src/stm32f0xx_hal_rcc.c ****   {
 126              		.loc 1 243 6 discriminator 1 view .LVU30
 127 005e 01D0     		beq	.L15
 245:Drivers/STM32F0xx_HAL_Driver/Src/stm32f0xx_hal_rcc.c ****   }
 128              		.loc 1 245 12 view .LVU31
 129 0060 0124     		movs	r4, #1
 130 0062 E0E7     		b	.L3
 131              	.L15:
 249:Drivers/STM32F0xx_HAL_Driver/Src/stm32f0xx_hal_rcc.c ****   
 132              		.loc 1 249 3 is_stmt 1 view .LVU32
 133 0064 114B     		ldr	r3, .L17
 134 0066 1A68     		ldr	r2, [r3]
 135 0068 1649     		ldr	r1, .L17+24
 136 006a 0A40     		ands	r2, r1
 137 006c 1A60     		str	r2, [r3]
 252:Drivers/STM32F0xx_HAL_Driver/Src/stm32f0xx_hal_rcc.c **** 
 138              		.loc 1 252 3 view .LVU33
 139 006e 1A68     		ldr	r2, [r3]
 140 0070 1549     		ldr	r1, .L17+28
 141 0072 0A40     		ands	r2, r1
 142 0074 1A60     		str	r2, [r3]
 255:Drivers/STM32F0xx_HAL_Driver/Src/stm32f0xx_hal_rcc.c ****   
 143              		.loc 1 255 3 view .LVU34
 255:Drivers/STM32F0xx_HAL_Driver/Src/stm32f0xx_hal_rcc.c ****   
 144              		.loc 1 255 15 is_stmt 0 view .LVU35
 145 0076 FFF7FEFF 		bl	HAL_GetTick
 146              	.LVL11:
 147 007a 0500     		movs	r5, r0
 148              	.LVL12:
 258:Drivers/STM32F0xx_HAL_Driver/Src/stm32f0xx_hal_rcc.c ****   {
 149              		.loc 1 258 3 is_stmt 1 view .LVU36
 150              	.L7:
 258:Drivers/STM32F0xx_HAL_Driver/Src/stm32f0xx_hal_rcc.c ****   {
 151              		.loc 1 258 42 view .LVU37
 258:Drivers/STM32F0xx_HAL_Driver/Src/stm32f0xx_hal_rcc.c ****   {
ARM GAS  /tmp/ccZr23YC.s 			page 9


 152              		.loc 1 258 9 is_stmt 0 view .LVU38
 153 007c 0B4B     		ldr	r3, .L17
 154 007e 1B68     		ldr	r3, [r3]
 258:Drivers/STM32F0xx_HAL_Driver/Src/stm32f0xx_hal_rcc.c ****   {
 155              		.loc 1 258 42 view .LVU39
 156 0080 9B01     		lsls	r3, r3, #6
 157 0082 06D5     		bpl	.L16
 260:Drivers/STM32F0xx_HAL_Driver/Src/stm32f0xx_hal_rcc.c ****     {
 158              		.loc 1 260 5 is_stmt 1 view .LVU40
 260:Drivers/STM32F0xx_HAL_Driver/Src/stm32f0xx_hal_rcc.c ****     {
 159              		.loc 1 260 9 is_stmt 0 view .LVU41
 160 0084 FFF7FEFF 		bl	HAL_GetTick
 161              	.LVL13:
 260:Drivers/STM32F0xx_HAL_Driver/Src/stm32f0xx_hal_rcc.c ****     {
 162              		.loc 1 260 23 discriminator 1 view .LVU42
 163 0088 401B     		subs	r0, r0, r5
 260:Drivers/STM32F0xx_HAL_Driver/Src/stm32f0xx_hal_rcc.c ****     {
 164              		.loc 1 260 7 discriminator 1 view .LVU43
 165 008a 0228     		cmp	r0, #2
 166 008c F6D9     		bls	.L7
 262:Drivers/STM32F0xx_HAL_Driver/Src/stm32f0xx_hal_rcc.c ****     }
 167              		.loc 1 262 14 view .LVU44
 168 008e 0324     		movs	r4, #3
 169 0090 C9E7     		b	.L3
 170              	.L16:
 267:Drivers/STM32F0xx_HAL_Driver/Src/stm32f0xx_hal_rcc.c **** 
 171              		.loc 1 267 3 is_stmt 1 view .LVU45
 172 0092 064B     		ldr	r3, .L17
 173 0094 0022     		movs	r2, #0
 174 0096 5A60     		str	r2, [r3, #4]
 270:Drivers/STM32F0xx_HAL_Driver/Src/stm32f0xx_hal_rcc.c **** 
 175              		.loc 1 270 3 view .LVU46
 176 0098 DA62     		str	r2, [r3, #44]
 273:Drivers/STM32F0xx_HAL_Driver/Src/stm32f0xx_hal_rcc.c **** 
 177              		.loc 1 273 3 view .LVU47
 178 009a 1A63     		str	r2, [r3, #48]
 276:Drivers/STM32F0xx_HAL_Driver/Src/stm32f0xx_hal_rcc.c **** 
 179              		.loc 1 276 3 view .LVU48
 180 009c 9A60     		str	r2, [r3, #8]
 279:Drivers/STM32F0xx_HAL_Driver/Src/stm32f0xx_hal_rcc.c **** 
 181              		.loc 1 279 3 view .LVU49
 182 009e 596A     		ldr	r1, [r3, #36]
 183 00a0 8022     		movs	r2, #128
 184 00a2 5204     		lsls	r2, r2, #17
 185 00a4 0A43     		orrs	r2, r1
 186 00a6 5A62     		str	r2, [r3, #36]
 281:Drivers/STM32F0xx_HAL_Driver/Src/stm32f0xx_hal_rcc.c **** }
 187              		.loc 1 281 3 view .LVU50
 281:Drivers/STM32F0xx_HAL_Driver/Src/stm32f0xx_hal_rcc.c **** }
 188              		.loc 1 281 10 is_stmt 0 view .LVU51
 189 00a8 BDE7     		b	.L3
 190              	.L18:
 191 00aa C046     		.align	2
 192              	.L17:
 193 00ac 00100240 		.word	1073876992
 194 00b0 0CF8FFF0 		.word	-251660276
 195 00b4 88130000 		.word	5000
ARM GAS  /tmp/ccZr23YC.s 			page 10


 196 00b8 00000000 		.word	SystemCoreClock
 197 00bc 00127A00 		.word	8000000
 198 00c0 00000000 		.word	uwTickPrio
 199 00c4 FFFFF6FE 		.word	-17367041
 200 00c8 FFFFFBFF 		.word	-262145
 201              		.cfi_endproc
 202              	.LFE40:
 204              		.section	.text.HAL_RCC_OscConfig,"ax",%progbits
 205              		.align	1
 206              		.global	HAL_RCC_OscConfig
 207              		.syntax unified
 208              		.code	16
 209              		.thumb_func
 211              	HAL_RCC_OscConfig:
 212              	.LVL14:
 213              	.LFB41:
 283:Drivers/STM32F0xx_HAL_Driver/Src/stm32f0xx_hal_rcc.c **** 
 284:Drivers/STM32F0xx_HAL_Driver/Src/stm32f0xx_hal_rcc.c **** /**
 285:Drivers/STM32F0xx_HAL_Driver/Src/stm32f0xx_hal_rcc.c ****   * @brief  Initializes the RCC Oscillators according to the specified parameters in the
 286:Drivers/STM32F0xx_HAL_Driver/Src/stm32f0xx_hal_rcc.c ****   *         RCC_OscInitTypeDef.
 287:Drivers/STM32F0xx_HAL_Driver/Src/stm32f0xx_hal_rcc.c ****   * @param  RCC_OscInitStruct pointer to an RCC_OscInitTypeDef structure that
 288:Drivers/STM32F0xx_HAL_Driver/Src/stm32f0xx_hal_rcc.c ****   *         contains the configuration information for the RCC Oscillators.
 289:Drivers/STM32F0xx_HAL_Driver/Src/stm32f0xx_hal_rcc.c ****   * @note   The PLL is not disabled when used as system clock.
 290:Drivers/STM32F0xx_HAL_Driver/Src/stm32f0xx_hal_rcc.c ****   * @note   Transitions LSE Bypass to LSE On and LSE On to LSE Bypass are not
 291:Drivers/STM32F0xx_HAL_Driver/Src/stm32f0xx_hal_rcc.c ****   *         supported by this macro. User should request a transition to LSE Off
 292:Drivers/STM32F0xx_HAL_Driver/Src/stm32f0xx_hal_rcc.c ****   *         first and then LSE On or LSE Bypass.
 293:Drivers/STM32F0xx_HAL_Driver/Src/stm32f0xx_hal_rcc.c ****   * @note   Transition HSE Bypass to HSE On and HSE On to HSE Bypass are not
 294:Drivers/STM32F0xx_HAL_Driver/Src/stm32f0xx_hal_rcc.c ****   *         supported by this macro. User should request a transition to HSE Off
 295:Drivers/STM32F0xx_HAL_Driver/Src/stm32f0xx_hal_rcc.c ****   *         first and then HSE On or HSE Bypass.
 296:Drivers/STM32F0xx_HAL_Driver/Src/stm32f0xx_hal_rcc.c ****   * @retval HAL status
 297:Drivers/STM32F0xx_HAL_Driver/Src/stm32f0xx_hal_rcc.c ****   */
 298:Drivers/STM32F0xx_HAL_Driver/Src/stm32f0xx_hal_rcc.c **** HAL_StatusTypeDef HAL_RCC_OscConfig(RCC_OscInitTypeDef  *RCC_OscInitStruct)
 299:Drivers/STM32F0xx_HAL_Driver/Src/stm32f0xx_hal_rcc.c **** {
 214              		.loc 1 299 1 is_stmt 1 view -0
 215              		.cfi_startproc
 216              		@ args = 0, pretend = 0, frame = 8
 217              		@ frame_needed = 0, uses_anonymous_args = 0
 218              		.loc 1 299 1 is_stmt 0 view .LVU53
 219 0000 70B5     		push	{r4, r5, r6, lr}
 220              	.LCFI1:
 221              		.cfi_def_cfa_offset 16
 222              		.cfi_offset 4, -16
 223              		.cfi_offset 5, -12
 224              		.cfi_offset 6, -8
 225              		.cfi_offset 14, -4
 226 0002 82B0     		sub	sp, sp, #8
 227              	.LCFI2:
 228              		.cfi_def_cfa_offset 24
 229 0004 041E     		subs	r4, r0, #0
 300:Drivers/STM32F0xx_HAL_Driver/Src/stm32f0xx_hal_rcc.c ****   uint32_t tickstart;
 230              		.loc 1 300 3 is_stmt 1 view .LVU54
 301:Drivers/STM32F0xx_HAL_Driver/Src/stm32f0xx_hal_rcc.c ****   uint32_t pll_config;
 231              		.loc 1 301 3 view .LVU55
 302:Drivers/STM32F0xx_HAL_Driver/Src/stm32f0xx_hal_rcc.c ****   uint32_t pll_config2;
 232              		.loc 1 302 3 view .LVU56
 303:Drivers/STM32F0xx_HAL_Driver/Src/stm32f0xx_hal_rcc.c **** 
 304:Drivers/STM32F0xx_HAL_Driver/Src/stm32f0xx_hal_rcc.c ****   /* Check Null pointer */
ARM GAS  /tmp/ccZr23YC.s 			page 11


 305:Drivers/STM32F0xx_HAL_Driver/Src/stm32f0xx_hal_rcc.c ****   if(RCC_OscInitStruct == NULL)
 233              		.loc 1 305 3 view .LVU57
 234              		.loc 1 305 5 is_stmt 0 view .LVU58
 235 0006 00D1     		bne	.LCB195
 236 0008 7FE2     		b	.L86	@long jump
 237              	.LCB195:
 306:Drivers/STM32F0xx_HAL_Driver/Src/stm32f0xx_hal_rcc.c ****   {
 307:Drivers/STM32F0xx_HAL_Driver/Src/stm32f0xx_hal_rcc.c ****     return HAL_ERROR;
 308:Drivers/STM32F0xx_HAL_Driver/Src/stm32f0xx_hal_rcc.c ****   }
 309:Drivers/STM32F0xx_HAL_Driver/Src/stm32f0xx_hal_rcc.c **** 
 310:Drivers/STM32F0xx_HAL_Driver/Src/stm32f0xx_hal_rcc.c ****   /* Check the parameters */
 311:Drivers/STM32F0xx_HAL_Driver/Src/stm32f0xx_hal_rcc.c ****   assert_param(IS_RCC_OSCILLATORTYPE(RCC_OscInitStruct->OscillatorType));
 238              		.loc 1 311 3 is_stmt 1 view .LVU59
 312:Drivers/STM32F0xx_HAL_Driver/Src/stm32f0xx_hal_rcc.c **** 
 313:Drivers/STM32F0xx_HAL_Driver/Src/stm32f0xx_hal_rcc.c ****   /*------------------------------- HSE Configuration ------------------------*/ 
 314:Drivers/STM32F0xx_HAL_Driver/Src/stm32f0xx_hal_rcc.c ****   if(((RCC_OscInitStruct->OscillatorType) & RCC_OSCILLATORTYPE_HSE) == RCC_OSCILLATORTYPE_HSE)
 239              		.loc 1 314 3 view .LVU60
 240              		.loc 1 314 25 is_stmt 0 view .LVU61
 241 000a 0368     		ldr	r3, [r0]
 242              		.loc 1 314 5 view .LVU62
 243 000c DB07     		lsls	r3, r3, #31
 244 000e 2BD5     		bpl	.L21
 315:Drivers/STM32F0xx_HAL_Driver/Src/stm32f0xx_hal_rcc.c ****   {
 316:Drivers/STM32F0xx_HAL_Driver/Src/stm32f0xx_hal_rcc.c ****     /* Check the parameters */
 317:Drivers/STM32F0xx_HAL_Driver/Src/stm32f0xx_hal_rcc.c ****     assert_param(IS_RCC_HSE(RCC_OscInitStruct->HSEState));
 245              		.loc 1 317 5 is_stmt 1 view .LVU63
 318:Drivers/STM32F0xx_HAL_Driver/Src/stm32f0xx_hal_rcc.c **** 
 319:Drivers/STM32F0xx_HAL_Driver/Src/stm32f0xx_hal_rcc.c ****     /* When the HSE is used as system clock or clock source for PLL in these cases it is not allowe
 320:Drivers/STM32F0xx_HAL_Driver/Src/stm32f0xx_hal_rcc.c ****     if((__HAL_RCC_GET_SYSCLK_SOURCE() == RCC_SYSCLKSOURCE_STATUS_HSE) 
 246              		.loc 1 320 5 view .LVU64
 247              		.loc 1 320 9 is_stmt 0 view .LVU65
 248 0010 B34B     		ldr	r3, .L139
 249 0012 5A68     		ldr	r2, [r3, #4]
 250 0014 0C23     		movs	r3, #12
 251 0016 1340     		ands	r3, r2
 252              		.loc 1 320 7 view .LVU66
 253 0018 042B     		cmp	r3, #4
 254 001a 1DD0     		beq	.L22
 321:Drivers/STM32F0xx_HAL_Driver/Src/stm32f0xx_hal_rcc.c ****        || ((__HAL_RCC_GET_SYSCLK_SOURCE() == RCC_SYSCLKSOURCE_STATUS_PLLCLK) && (__HAL_RCC_GET_PLL_
 255              		.loc 1 321 13 view .LVU67
 256 001c B04B     		ldr	r3, .L139
 257 001e 5A68     		ldr	r2, [r3, #4]
 258 0020 0C23     		movs	r3, #12
 259 0022 1340     		ands	r3, r2
 260              		.loc 1 321 8 view .LVU68
 261 0024 082B     		cmp	r3, #8
 262 0026 0ED0     		beq	.L122
 263              	.L23:
 322:Drivers/STM32F0xx_HAL_Driver/Src/stm32f0xx_hal_rcc.c ****     {
 323:Drivers/STM32F0xx_HAL_Driver/Src/stm32f0xx_hal_rcc.c ****       if((__HAL_RCC_GET_FLAG(RCC_FLAG_HSERDY) != RESET) && (RCC_OscInitStruct->HSEState == RCC_HSE_
 324:Drivers/STM32F0xx_HAL_Driver/Src/stm32f0xx_hal_rcc.c ****       {
 325:Drivers/STM32F0xx_HAL_Driver/Src/stm32f0xx_hal_rcc.c ****         return HAL_ERROR;
 326:Drivers/STM32F0xx_HAL_Driver/Src/stm32f0xx_hal_rcc.c ****       }
 327:Drivers/STM32F0xx_HAL_Driver/Src/stm32f0xx_hal_rcc.c ****     }
 328:Drivers/STM32F0xx_HAL_Driver/Src/stm32f0xx_hal_rcc.c ****     else
 329:Drivers/STM32F0xx_HAL_Driver/Src/stm32f0xx_hal_rcc.c ****     {
 330:Drivers/STM32F0xx_HAL_Driver/Src/stm32f0xx_hal_rcc.c ****       /* Set the new HSE configuration ---------------------------------------*/
ARM GAS  /tmp/ccZr23YC.s 			page 12


 331:Drivers/STM32F0xx_HAL_Driver/Src/stm32f0xx_hal_rcc.c ****       __HAL_RCC_HSE_CONFIG(RCC_OscInitStruct->HSEState);
 264              		.loc 1 331 7 is_stmt 1 view .LVU69
 265              		.loc 1 331 7 view .LVU70
 266 0028 6368     		ldr	r3, [r4, #4]
 267 002a 012B     		cmp	r3, #1
 268 002c 41D0     		beq	.L123
 269              		.loc 1 331 7 discriminator 2 view .LVU71
 270 002e 002B     		cmp	r3, #0
 271 0030 56D1     		bne	.L26
 272              		.loc 1 331 7 discriminator 4 view .LVU72
 273 0032 AB4B     		ldr	r3, .L139
 274 0034 1A68     		ldr	r2, [r3]
 275 0036 AB49     		ldr	r1, .L139+4
 276 0038 0A40     		ands	r2, r1
 277 003a 1A60     		str	r2, [r3]
 278              		.loc 1 331 7 view .LVU73
 279              		.loc 1 331 7 is_stmt 0 discriminator 4 view .LVU74
 280 003c 1A68     		ldr	r2, [r3]
 281 003e AA49     		ldr	r1, .L139+8
 282 0040 0A40     		ands	r2, r1
 283 0042 1A60     		str	r2, [r3]
 284 0044 3BE0     		b	.L25
 285              	.L122:
 321:Drivers/STM32F0xx_HAL_Driver/Src/stm32f0xx_hal_rcc.c ****        || ((__HAL_RCC_GET_SYSCLK_SOURCE() == RCC_SYSCLKSOURCE_STATUS_PLLCLK) && (__HAL_RCC_GET_PLL_
 286              		.loc 1 321 82 discriminator 1 view .LVU75
 287 0046 A64B     		ldr	r3, .L139
 288 0048 5B68     		ldr	r3, [r3, #4]
 289 004a C022     		movs	r2, #192
 290 004c 5202     		lsls	r2, r2, #9
 291 004e 1340     		ands	r3, r2
 321:Drivers/STM32F0xx_HAL_Driver/Src/stm32f0xx_hal_rcc.c ****        || ((__HAL_RCC_GET_SYSCLK_SOURCE() == RCC_SYSCLKSOURCE_STATUS_PLLCLK) && (__HAL_RCC_GET_PLL_
 292              		.loc 1 321 78 discriminator 1 view .LVU76
 293 0050 8022     		movs	r2, #128
 294 0052 5202     		lsls	r2, r2, #9
 295 0054 9342     		cmp	r3, r2
 296 0056 E7D1     		bne	.L23
 297              	.L22:
 323:Drivers/STM32F0xx_HAL_Driver/Src/stm32f0xx_hal_rcc.c ****       {
 298              		.loc 1 323 7 is_stmt 1 view .LVU77
 323:Drivers/STM32F0xx_HAL_Driver/Src/stm32f0xx_hal_rcc.c ****       {
 299              		.loc 1 323 11 is_stmt 0 view .LVU78
 300 0058 A14B     		ldr	r3, .L139
 301 005a 1B68     		ldr	r3, [r3]
 323:Drivers/STM32F0xx_HAL_Driver/Src/stm32f0xx_hal_rcc.c ****       {
 302              		.loc 1 323 9 view .LVU79
 303 005c 9B03     		lsls	r3, r3, #14
 304 005e 03D5     		bpl	.L21
 323:Drivers/STM32F0xx_HAL_Driver/Src/stm32f0xx_hal_rcc.c ****       {
 305              		.loc 1 323 78 discriminator 1 view .LVU80
 306 0060 6368     		ldr	r3, [r4, #4]
 323:Drivers/STM32F0xx_HAL_Driver/Src/stm32f0xx_hal_rcc.c ****       {
 307              		.loc 1 323 57 discriminator 1 view .LVU81
 308 0062 002B     		cmp	r3, #0
 309 0064 00D1     		bne	.LCB261
 310 0066 53E2     		b	.L124	@long jump
 311              	.LCB261:
 312              	.LVL15:
ARM GAS  /tmp/ccZr23YC.s 			page 13


 313              	.L21:
 332:Drivers/STM32F0xx_HAL_Driver/Src/stm32f0xx_hal_rcc.c ****       
 333:Drivers/STM32F0xx_HAL_Driver/Src/stm32f0xx_hal_rcc.c **** 
 334:Drivers/STM32F0xx_HAL_Driver/Src/stm32f0xx_hal_rcc.c ****        /* Check the HSE State */
 335:Drivers/STM32F0xx_HAL_Driver/Src/stm32f0xx_hal_rcc.c ****       if(RCC_OscInitStruct->HSEState != RCC_HSE_OFF)
 336:Drivers/STM32F0xx_HAL_Driver/Src/stm32f0xx_hal_rcc.c ****       {
 337:Drivers/STM32F0xx_HAL_Driver/Src/stm32f0xx_hal_rcc.c ****         /* Get Start Tick */
 338:Drivers/STM32F0xx_HAL_Driver/Src/stm32f0xx_hal_rcc.c ****         tickstart = HAL_GetTick();
 339:Drivers/STM32F0xx_HAL_Driver/Src/stm32f0xx_hal_rcc.c ****         
 340:Drivers/STM32F0xx_HAL_Driver/Src/stm32f0xx_hal_rcc.c ****         /* Wait till HSE is ready */
 341:Drivers/STM32F0xx_HAL_Driver/Src/stm32f0xx_hal_rcc.c ****         while(__HAL_RCC_GET_FLAG(RCC_FLAG_HSERDY) == RESET)
 342:Drivers/STM32F0xx_HAL_Driver/Src/stm32f0xx_hal_rcc.c ****         {
 343:Drivers/STM32F0xx_HAL_Driver/Src/stm32f0xx_hal_rcc.c ****           if((HAL_GetTick() - tickstart ) > HSE_TIMEOUT_VALUE)
 344:Drivers/STM32F0xx_HAL_Driver/Src/stm32f0xx_hal_rcc.c ****           {
 345:Drivers/STM32F0xx_HAL_Driver/Src/stm32f0xx_hal_rcc.c ****             return HAL_TIMEOUT;
 346:Drivers/STM32F0xx_HAL_Driver/Src/stm32f0xx_hal_rcc.c ****           }
 347:Drivers/STM32F0xx_HAL_Driver/Src/stm32f0xx_hal_rcc.c ****         }
 348:Drivers/STM32F0xx_HAL_Driver/Src/stm32f0xx_hal_rcc.c ****       }
 349:Drivers/STM32F0xx_HAL_Driver/Src/stm32f0xx_hal_rcc.c ****       else
 350:Drivers/STM32F0xx_HAL_Driver/Src/stm32f0xx_hal_rcc.c ****       {
 351:Drivers/STM32F0xx_HAL_Driver/Src/stm32f0xx_hal_rcc.c ****         /* Get Start Tick */
 352:Drivers/STM32F0xx_HAL_Driver/Src/stm32f0xx_hal_rcc.c ****         tickstart = HAL_GetTick();
 353:Drivers/STM32F0xx_HAL_Driver/Src/stm32f0xx_hal_rcc.c ****         
 354:Drivers/STM32F0xx_HAL_Driver/Src/stm32f0xx_hal_rcc.c ****         /* Wait till HSE is disabled */
 355:Drivers/STM32F0xx_HAL_Driver/Src/stm32f0xx_hal_rcc.c ****         while(__HAL_RCC_GET_FLAG(RCC_FLAG_HSERDY) != RESET)
 356:Drivers/STM32F0xx_HAL_Driver/Src/stm32f0xx_hal_rcc.c ****         {
 357:Drivers/STM32F0xx_HAL_Driver/Src/stm32f0xx_hal_rcc.c ****            if((HAL_GetTick() - tickstart ) > HSE_TIMEOUT_VALUE)
 358:Drivers/STM32F0xx_HAL_Driver/Src/stm32f0xx_hal_rcc.c ****           {
 359:Drivers/STM32F0xx_HAL_Driver/Src/stm32f0xx_hal_rcc.c ****             return HAL_TIMEOUT;
 360:Drivers/STM32F0xx_HAL_Driver/Src/stm32f0xx_hal_rcc.c ****           }
 361:Drivers/STM32F0xx_HAL_Driver/Src/stm32f0xx_hal_rcc.c ****         }
 362:Drivers/STM32F0xx_HAL_Driver/Src/stm32f0xx_hal_rcc.c ****       }
 363:Drivers/STM32F0xx_HAL_Driver/Src/stm32f0xx_hal_rcc.c ****     }
 364:Drivers/STM32F0xx_HAL_Driver/Src/stm32f0xx_hal_rcc.c ****   }
 365:Drivers/STM32F0xx_HAL_Driver/Src/stm32f0xx_hal_rcc.c ****   /*----------------------------- HSI Configuration --------------------------*/ 
 366:Drivers/STM32F0xx_HAL_Driver/Src/stm32f0xx_hal_rcc.c ****   if(((RCC_OscInitStruct->OscillatorType) & RCC_OSCILLATORTYPE_HSI) == RCC_OSCILLATORTYPE_HSI)
 314              		.loc 1 366 3 is_stmt 1 view .LVU82
 315              		.loc 1 366 25 is_stmt 0 view .LVU83
 316 0068 2368     		ldr	r3, [r4]
 317              		.loc 1 366 5 view .LVU84
 318 006a 9B07     		lsls	r3, r3, #30
 319 006c 77D5     		bpl	.L33
 367:Drivers/STM32F0xx_HAL_Driver/Src/stm32f0xx_hal_rcc.c ****   {
 368:Drivers/STM32F0xx_HAL_Driver/Src/stm32f0xx_hal_rcc.c ****     /* Check the parameters */
 369:Drivers/STM32F0xx_HAL_Driver/Src/stm32f0xx_hal_rcc.c ****     assert_param(IS_RCC_HSI(RCC_OscInitStruct->HSIState));
 320              		.loc 1 369 5 is_stmt 1 view .LVU85
 370:Drivers/STM32F0xx_HAL_Driver/Src/stm32f0xx_hal_rcc.c ****     assert_param(IS_RCC_CALIBRATION_VALUE(RCC_OscInitStruct->HSICalibrationValue));
 321              		.loc 1 370 5 view .LVU86
 371:Drivers/STM32F0xx_HAL_Driver/Src/stm32f0xx_hal_rcc.c ****     
 372:Drivers/STM32F0xx_HAL_Driver/Src/stm32f0xx_hal_rcc.c ****     /* Check if HSI is used as system clock or as PLL source when PLL is selected as system clock *
 373:Drivers/STM32F0xx_HAL_Driver/Src/stm32f0xx_hal_rcc.c ****     if((__HAL_RCC_GET_SYSCLK_SOURCE() == RCC_SYSCLKSOURCE_STATUS_HSI) 
 322              		.loc 1 373 5 view .LVU87
 323              		.loc 1 373 9 is_stmt 0 view .LVU88
 324 006e 9C4B     		ldr	r3, .L139
 325 0070 5B68     		ldr	r3, [r3, #4]
 326 0072 0C22     		movs	r2, #12
 327              		.loc 1 373 7 view .LVU89
ARM GAS  /tmp/ccZr23YC.s 			page 14


 328 0074 1A42     		tst	r2, r3
 329 0076 62D0     		beq	.L34
 374:Drivers/STM32F0xx_HAL_Driver/Src/stm32f0xx_hal_rcc.c ****        || ((__HAL_RCC_GET_SYSCLK_SOURCE() == RCC_SYSCLKSOURCE_STATUS_PLLCLK) && (__HAL_RCC_GET_PLL_
 330              		.loc 1 374 13 view .LVU90
 331 0078 994B     		ldr	r3, .L139
 332 007a 5A68     		ldr	r2, [r3, #4]
 333 007c 0C23     		movs	r3, #12
 334 007e 1340     		ands	r3, r2
 335              		.loc 1 374 8 view .LVU91
 336 0080 082B     		cmp	r3, #8
 337 0082 53D0     		beq	.L125
 338              	.L35:
 375:Drivers/STM32F0xx_HAL_Driver/Src/stm32f0xx_hal_rcc.c ****     {
 376:Drivers/STM32F0xx_HAL_Driver/Src/stm32f0xx_hal_rcc.c ****       /* When HSI is used as system clock it will not disabled */
 377:Drivers/STM32F0xx_HAL_Driver/Src/stm32f0xx_hal_rcc.c ****       if((__HAL_RCC_GET_FLAG(RCC_FLAG_HSIRDY) != RESET) && (RCC_OscInitStruct->HSIState != RCC_HSI_
 378:Drivers/STM32F0xx_HAL_Driver/Src/stm32f0xx_hal_rcc.c ****       {
 379:Drivers/STM32F0xx_HAL_Driver/Src/stm32f0xx_hal_rcc.c ****         return HAL_ERROR;
 380:Drivers/STM32F0xx_HAL_Driver/Src/stm32f0xx_hal_rcc.c ****       }
 381:Drivers/STM32F0xx_HAL_Driver/Src/stm32f0xx_hal_rcc.c ****       /* Otherwise, just the calibration is allowed */
 382:Drivers/STM32F0xx_HAL_Driver/Src/stm32f0xx_hal_rcc.c ****       else
 383:Drivers/STM32F0xx_HAL_Driver/Src/stm32f0xx_hal_rcc.c ****       {
 384:Drivers/STM32F0xx_HAL_Driver/Src/stm32f0xx_hal_rcc.c ****         /* Adjusts the Internal High Speed oscillator (HSI) calibration value.*/
 385:Drivers/STM32F0xx_HAL_Driver/Src/stm32f0xx_hal_rcc.c ****         __HAL_RCC_HSI_CALIBRATIONVALUE_ADJUST(RCC_OscInitStruct->HSICalibrationValue);
 386:Drivers/STM32F0xx_HAL_Driver/Src/stm32f0xx_hal_rcc.c ****       }
 387:Drivers/STM32F0xx_HAL_Driver/Src/stm32f0xx_hal_rcc.c ****     }
 388:Drivers/STM32F0xx_HAL_Driver/Src/stm32f0xx_hal_rcc.c ****     else
 389:Drivers/STM32F0xx_HAL_Driver/Src/stm32f0xx_hal_rcc.c ****     {
 390:Drivers/STM32F0xx_HAL_Driver/Src/stm32f0xx_hal_rcc.c ****       /* Check the HSI State */
 391:Drivers/STM32F0xx_HAL_Driver/Src/stm32f0xx_hal_rcc.c ****       if(RCC_OscInitStruct->HSIState != RCC_HSI_OFF)
 339              		.loc 1 391 7 is_stmt 1 view .LVU92
 340              		.loc 1 391 27 is_stmt 0 view .LVU93
 341 0084 E368     		ldr	r3, [r4, #12]
 342              		.loc 1 391 9 view .LVU94
 343 0086 002B     		cmp	r3, #0
 344 0088 00D1     		bne	.LCB289
 345 008a 8AE0     		b	.L37	@long jump
 346              	.LCB289:
 392:Drivers/STM32F0xx_HAL_Driver/Src/stm32f0xx_hal_rcc.c ****       {
 393:Drivers/STM32F0xx_HAL_Driver/Src/stm32f0xx_hal_rcc.c ****        /* Enable the Internal High Speed oscillator (HSI). */
 394:Drivers/STM32F0xx_HAL_Driver/Src/stm32f0xx_hal_rcc.c ****         __HAL_RCC_HSI_ENABLE();
 347              		.loc 1 394 9 is_stmt 1 view .LVU95
 348 008c 944A     		ldr	r2, .L139
 349 008e 1368     		ldr	r3, [r2]
 350 0090 0121     		movs	r1, #1
 351 0092 0B43     		orrs	r3, r1
 352 0094 1360     		str	r3, [r2]
 395:Drivers/STM32F0xx_HAL_Driver/Src/stm32f0xx_hal_rcc.c ****         
 396:Drivers/STM32F0xx_HAL_Driver/Src/stm32f0xx_hal_rcc.c ****         /* Get Start Tick */
 397:Drivers/STM32F0xx_HAL_Driver/Src/stm32f0xx_hal_rcc.c ****         tickstart = HAL_GetTick();
 353              		.loc 1 397 9 view .LVU96
 354              		.loc 1 397 21 is_stmt 0 view .LVU97
 355 0096 FFF7FEFF 		bl	HAL_GetTick
 356              	.LVL16:
 357 009a 0500     		movs	r5, r0
 358              	.LVL17:
 398:Drivers/STM32F0xx_HAL_Driver/Src/stm32f0xx_hal_rcc.c ****         
 399:Drivers/STM32F0xx_HAL_Driver/Src/stm32f0xx_hal_rcc.c ****         /* Wait till HSI is ready */
ARM GAS  /tmp/ccZr23YC.s 			page 15


 400:Drivers/STM32F0xx_HAL_Driver/Src/stm32f0xx_hal_rcc.c ****         while(__HAL_RCC_GET_FLAG(RCC_FLAG_HSIRDY) == RESET)
 359              		.loc 1 400 9 is_stmt 1 view .LVU98
 360              	.L38:
 361              		.loc 1 400 51 view .LVU99
 362              		.loc 1 400 15 is_stmt 0 view .LVU100
 363 009c 904B     		ldr	r3, .L139
 364 009e 1B68     		ldr	r3, [r3]
 365              		.loc 1 400 51 view .LVU101
 366 00a0 9B07     		lsls	r3, r3, #30
 367 00a2 75D4     		bmi	.L126
 401:Drivers/STM32F0xx_HAL_Driver/Src/stm32f0xx_hal_rcc.c ****         {
 402:Drivers/STM32F0xx_HAL_Driver/Src/stm32f0xx_hal_rcc.c ****           if((HAL_GetTick() - tickstart ) > HSI_TIMEOUT_VALUE)
 368              		.loc 1 402 11 is_stmt 1 view .LVU102
 369              		.loc 1 402 15 is_stmt 0 view .LVU103
 370 00a4 FFF7FEFF 		bl	HAL_GetTick
 371              	.LVL18:
 372              		.loc 1 402 29 discriminator 1 view .LVU104
 373 00a8 401B     		subs	r0, r0, r5
 374              		.loc 1 402 13 discriminator 1 view .LVU105
 375 00aa 0228     		cmp	r0, #2
 376 00ac F6D9     		bls	.L38
 403:Drivers/STM32F0xx_HAL_Driver/Src/stm32f0xx_hal_rcc.c ****           {
 404:Drivers/STM32F0xx_HAL_Driver/Src/stm32f0xx_hal_rcc.c ****             return HAL_TIMEOUT;
 377              		.loc 1 404 20 view .LVU106
 378 00ae 0320     		movs	r0, #3
 379 00b0 2CE2     		b	.L20
 380              	.LVL19:
 381              	.L123:
 331:Drivers/STM32F0xx_HAL_Driver/Src/stm32f0xx_hal_rcc.c ****       
 382              		.loc 1 331 7 is_stmt 1 discriminator 1 view .LVU107
 383 00b2 8B4A     		ldr	r2, .L139
 384 00b4 1168     		ldr	r1, [r2]
 385 00b6 8023     		movs	r3, #128
 386 00b8 5B02     		lsls	r3, r3, #9
 387 00ba 0B43     		orrs	r3, r1
 388 00bc 1360     		str	r3, [r2]
 389              	.L25:
 331:Drivers/STM32F0xx_HAL_Driver/Src/stm32f0xx_hal_rcc.c ****       
 390              		.loc 1 331 7 discriminator 10 view .LVU108
 335:Drivers/STM32F0xx_HAL_Driver/Src/stm32f0xx_hal_rcc.c ****       {
 391              		.loc 1 335 7 view .LVU109
 335:Drivers/STM32F0xx_HAL_Driver/Src/stm32f0xx_hal_rcc.c ****       {
 392              		.loc 1 335 27 is_stmt 0 view .LVU110
 393 00be 6368     		ldr	r3, [r4, #4]
 335:Drivers/STM32F0xx_HAL_Driver/Src/stm32f0xx_hal_rcc.c ****       {
 394              		.loc 1 335 9 view .LVU111
 395 00c0 002B     		cmp	r3, #0
 396 00c2 25D0     		beq	.L28
 338:Drivers/STM32F0xx_HAL_Driver/Src/stm32f0xx_hal_rcc.c ****         
 397              		.loc 1 338 9 is_stmt 1 view .LVU112
 338:Drivers/STM32F0xx_HAL_Driver/Src/stm32f0xx_hal_rcc.c ****         
 398              		.loc 1 338 21 is_stmt 0 view .LVU113
 399 00c4 FFF7FEFF 		bl	HAL_GetTick
 400              	.LVL20:
 338:Drivers/STM32F0xx_HAL_Driver/Src/stm32f0xx_hal_rcc.c ****         
 401              		.loc 1 338 21 view .LVU114
 402 00c8 0500     		movs	r5, r0
ARM GAS  /tmp/ccZr23YC.s 			page 16


 403              	.LVL21:
 341:Drivers/STM32F0xx_HAL_Driver/Src/stm32f0xx_hal_rcc.c ****         {
 404              		.loc 1 341 9 is_stmt 1 view .LVU115
 405              	.L29:
 341:Drivers/STM32F0xx_HAL_Driver/Src/stm32f0xx_hal_rcc.c ****         {
 406              		.loc 1 341 51 view .LVU116
 341:Drivers/STM32F0xx_HAL_Driver/Src/stm32f0xx_hal_rcc.c ****         {
 407              		.loc 1 341 15 is_stmt 0 view .LVU117
 408 00ca 854B     		ldr	r3, .L139
 409 00cc 1B68     		ldr	r3, [r3]
 341:Drivers/STM32F0xx_HAL_Driver/Src/stm32f0xx_hal_rcc.c ****         {
 410              		.loc 1 341 51 view .LVU118
 411 00ce 9B03     		lsls	r3, r3, #14
 412 00d0 CAD4     		bmi	.L21
 343:Drivers/STM32F0xx_HAL_Driver/Src/stm32f0xx_hal_rcc.c ****           {
 413              		.loc 1 343 11 is_stmt 1 view .LVU119
 343:Drivers/STM32F0xx_HAL_Driver/Src/stm32f0xx_hal_rcc.c ****           {
 414              		.loc 1 343 15 is_stmt 0 view .LVU120
 415 00d2 FFF7FEFF 		bl	HAL_GetTick
 416              	.LVL22:
 343:Drivers/STM32F0xx_HAL_Driver/Src/stm32f0xx_hal_rcc.c ****           {
 417              		.loc 1 343 29 discriminator 1 view .LVU121
 418 00d6 401B     		subs	r0, r0, r5
 343:Drivers/STM32F0xx_HAL_Driver/Src/stm32f0xx_hal_rcc.c ****           {
 419              		.loc 1 343 13 discriminator 1 view .LVU122
 420 00d8 6428     		cmp	r0, #100
 421 00da F6D9     		bls	.L29
 345:Drivers/STM32F0xx_HAL_Driver/Src/stm32f0xx_hal_rcc.c ****           }
 422              		.loc 1 345 20 view .LVU123
 423 00dc 0320     		movs	r0, #3
 424 00de 15E2     		b	.L20
 425              	.LVL23:
 426              	.L26:
 331:Drivers/STM32F0xx_HAL_Driver/Src/stm32f0xx_hal_rcc.c ****       
 427              		.loc 1 331 7 is_stmt 1 discriminator 5 view .LVU124
 428 00e0 052B     		cmp	r3, #5
 429 00e2 09D0     		beq	.L127
 331:Drivers/STM32F0xx_HAL_Driver/Src/stm32f0xx_hal_rcc.c ****       
 430              		.loc 1 331 7 discriminator 8 view .LVU125
 431 00e4 7E4B     		ldr	r3, .L139
 432 00e6 1A68     		ldr	r2, [r3]
 433 00e8 7E49     		ldr	r1, .L139+4
 434 00ea 0A40     		ands	r2, r1
 435 00ec 1A60     		str	r2, [r3]
 331:Drivers/STM32F0xx_HAL_Driver/Src/stm32f0xx_hal_rcc.c ****       
 436              		.loc 1 331 7 view .LVU126
 331:Drivers/STM32F0xx_HAL_Driver/Src/stm32f0xx_hal_rcc.c ****       
 437              		.loc 1 331 7 is_stmt 0 discriminator 8 view .LVU127
 438 00ee 1A68     		ldr	r2, [r3]
 439 00f0 7D49     		ldr	r1, .L139+8
 440 00f2 0A40     		ands	r2, r1
 441 00f4 1A60     		str	r2, [r3]
 442 00f6 E2E7     		b	.L25
 443              	.L127:
 331:Drivers/STM32F0xx_HAL_Driver/Src/stm32f0xx_hal_rcc.c ****       
 444              		.loc 1 331 7 is_stmt 1 discriminator 7 view .LVU128
 445 00f8 794B     		ldr	r3, .L139
ARM GAS  /tmp/ccZr23YC.s 			page 17


 446 00fa 1968     		ldr	r1, [r3]
 447 00fc 8022     		movs	r2, #128
 448 00fe D202     		lsls	r2, r2, #11
 449 0100 0A43     		orrs	r2, r1
 450 0102 1A60     		str	r2, [r3]
 331:Drivers/STM32F0xx_HAL_Driver/Src/stm32f0xx_hal_rcc.c ****       
 451              		.loc 1 331 7 view .LVU129
 331:Drivers/STM32F0xx_HAL_Driver/Src/stm32f0xx_hal_rcc.c ****       
 452              		.loc 1 331 7 is_stmt 0 discriminator 7 view .LVU130
 453 0104 1968     		ldr	r1, [r3]
 454 0106 8022     		movs	r2, #128
 455 0108 5202     		lsls	r2, r2, #9
 456 010a 0A43     		orrs	r2, r1
 457 010c 1A60     		str	r2, [r3]
 458 010e D6E7     		b	.L25
 459              	.L28:
 352:Drivers/STM32F0xx_HAL_Driver/Src/stm32f0xx_hal_rcc.c ****         
 460              		.loc 1 352 9 is_stmt 1 view .LVU131
 352:Drivers/STM32F0xx_HAL_Driver/Src/stm32f0xx_hal_rcc.c ****         
 461              		.loc 1 352 21 is_stmt 0 view .LVU132
 462 0110 FFF7FEFF 		bl	HAL_GetTick
 463              	.LVL24:
 352:Drivers/STM32F0xx_HAL_Driver/Src/stm32f0xx_hal_rcc.c ****         
 464              		.loc 1 352 21 view .LVU133
 465 0114 0500     		movs	r5, r0
 466              	.LVL25:
 355:Drivers/STM32F0xx_HAL_Driver/Src/stm32f0xx_hal_rcc.c ****         {
 467              		.loc 1 355 9 is_stmt 1 view .LVU134
 468              	.L31:
 355:Drivers/STM32F0xx_HAL_Driver/Src/stm32f0xx_hal_rcc.c ****         {
 469              		.loc 1 355 51 view .LVU135
 355:Drivers/STM32F0xx_HAL_Driver/Src/stm32f0xx_hal_rcc.c ****         {
 470              		.loc 1 355 15 is_stmt 0 view .LVU136
 471 0116 724B     		ldr	r3, .L139
 472 0118 1B68     		ldr	r3, [r3]
 355:Drivers/STM32F0xx_HAL_Driver/Src/stm32f0xx_hal_rcc.c ****         {
 473              		.loc 1 355 51 view .LVU137
 474 011a 9B03     		lsls	r3, r3, #14
 475 011c A4D5     		bpl	.L21
 357:Drivers/STM32F0xx_HAL_Driver/Src/stm32f0xx_hal_rcc.c ****           {
 476              		.loc 1 357 12 is_stmt 1 view .LVU138
 357:Drivers/STM32F0xx_HAL_Driver/Src/stm32f0xx_hal_rcc.c ****           {
 477              		.loc 1 357 16 is_stmt 0 view .LVU139
 478 011e FFF7FEFF 		bl	HAL_GetTick
 479              	.LVL26:
 357:Drivers/STM32F0xx_HAL_Driver/Src/stm32f0xx_hal_rcc.c ****           {
 480              		.loc 1 357 30 discriminator 1 view .LVU140
 481 0122 401B     		subs	r0, r0, r5
 357:Drivers/STM32F0xx_HAL_Driver/Src/stm32f0xx_hal_rcc.c ****           {
 482              		.loc 1 357 14 discriminator 1 view .LVU141
 483 0124 6428     		cmp	r0, #100
 484 0126 F6D9     		bls	.L31
 359:Drivers/STM32F0xx_HAL_Driver/Src/stm32f0xx_hal_rcc.c ****           }
 485              		.loc 1 359 20 view .LVU142
 486 0128 0320     		movs	r0, #3
 487 012a EFE1     		b	.L20
 488              	.LVL27:
ARM GAS  /tmp/ccZr23YC.s 			page 18


 489              	.L125:
 374:Drivers/STM32F0xx_HAL_Driver/Src/stm32f0xx_hal_rcc.c ****     {
 490              		.loc 1 374 82 discriminator 1 view .LVU143
 491 012c 6C4B     		ldr	r3, .L139
 492 012e 5B68     		ldr	r3, [r3, #4]
 493 0130 C022     		movs	r2, #192
 494 0132 5202     		lsls	r2, r2, #9
 495 0134 1340     		ands	r3, r2
 374:Drivers/STM32F0xx_HAL_Driver/Src/stm32f0xx_hal_rcc.c ****     {
 496              		.loc 1 374 78 discriminator 1 view .LVU144
 497 0136 8022     		movs	r2, #128
 498 0138 1202     		lsls	r2, r2, #8
 499 013a 9342     		cmp	r3, r2
 500 013c A2D1     		bne	.L35
 501              	.L34:
 377:Drivers/STM32F0xx_HAL_Driver/Src/stm32f0xx_hal_rcc.c ****       {
 502              		.loc 1 377 7 is_stmt 1 view .LVU145
 377:Drivers/STM32F0xx_HAL_Driver/Src/stm32f0xx_hal_rcc.c ****       {
 503              		.loc 1 377 11 is_stmt 0 view .LVU146
 504 013e 684B     		ldr	r3, .L139
 505 0140 1B68     		ldr	r3, [r3]
 377:Drivers/STM32F0xx_HAL_Driver/Src/stm32f0xx_hal_rcc.c ****       {
 506              		.loc 1 377 9 view .LVU147
 507 0142 9B07     		lsls	r3, r3, #30
 508 0144 03D5     		bpl	.L36
 377:Drivers/STM32F0xx_HAL_Driver/Src/stm32f0xx_hal_rcc.c ****       {
 509              		.loc 1 377 78 discriminator 1 view .LVU148
 510 0146 E368     		ldr	r3, [r4, #12]
 377:Drivers/STM32F0xx_HAL_Driver/Src/stm32f0xx_hal_rcc.c ****       {
 511              		.loc 1 377 57 discriminator 1 view .LVU149
 512 0148 012B     		cmp	r3, #1
 513 014a 00D0     		beq	.LCB451
 514 014c E2E1     		b	.L90	@long jump
 515              	.LCB451:
 516              	.L36:
 385:Drivers/STM32F0xx_HAL_Driver/Src/stm32f0xx_hal_rcc.c ****       }
 517              		.loc 1 385 9 is_stmt 1 view .LVU150
 518 014e 6449     		ldr	r1, .L139
 519 0150 0B68     		ldr	r3, [r1]
 520 0152 F822     		movs	r2, #248
 521 0154 9343     		bics	r3, r2
 522 0156 2269     		ldr	r2, [r4, #16]
 523 0158 D200     		lsls	r2, r2, #3
 524 015a 1343     		orrs	r3, r2
 525 015c 0B60     		str	r3, [r1]
 526              	.L33:
 405:Drivers/STM32F0xx_HAL_Driver/Src/stm32f0xx_hal_rcc.c ****           }
 406:Drivers/STM32F0xx_HAL_Driver/Src/stm32f0xx_hal_rcc.c ****         }
 407:Drivers/STM32F0xx_HAL_Driver/Src/stm32f0xx_hal_rcc.c ****                 
 408:Drivers/STM32F0xx_HAL_Driver/Src/stm32f0xx_hal_rcc.c ****         /* Adjusts the Internal High Speed oscillator (HSI) calibration value.*/
 409:Drivers/STM32F0xx_HAL_Driver/Src/stm32f0xx_hal_rcc.c ****         __HAL_RCC_HSI_CALIBRATIONVALUE_ADJUST(RCC_OscInitStruct->HSICalibrationValue);
 410:Drivers/STM32F0xx_HAL_Driver/Src/stm32f0xx_hal_rcc.c ****       }
 411:Drivers/STM32F0xx_HAL_Driver/Src/stm32f0xx_hal_rcc.c ****       else
 412:Drivers/STM32F0xx_HAL_Driver/Src/stm32f0xx_hal_rcc.c ****       {
 413:Drivers/STM32F0xx_HAL_Driver/Src/stm32f0xx_hal_rcc.c ****         /* Disable the Internal High Speed oscillator (HSI). */
 414:Drivers/STM32F0xx_HAL_Driver/Src/stm32f0xx_hal_rcc.c ****         __HAL_RCC_HSI_DISABLE();
 415:Drivers/STM32F0xx_HAL_Driver/Src/stm32f0xx_hal_rcc.c ****         
ARM GAS  /tmp/ccZr23YC.s 			page 19


 416:Drivers/STM32F0xx_HAL_Driver/Src/stm32f0xx_hal_rcc.c ****         /* Get Start Tick */
 417:Drivers/STM32F0xx_HAL_Driver/Src/stm32f0xx_hal_rcc.c ****         tickstart = HAL_GetTick();
 418:Drivers/STM32F0xx_HAL_Driver/Src/stm32f0xx_hal_rcc.c ****         
 419:Drivers/STM32F0xx_HAL_Driver/Src/stm32f0xx_hal_rcc.c ****         /* Wait till HSI is disabled */
 420:Drivers/STM32F0xx_HAL_Driver/Src/stm32f0xx_hal_rcc.c ****         while(__HAL_RCC_GET_FLAG(RCC_FLAG_HSIRDY) != RESET)
 421:Drivers/STM32F0xx_HAL_Driver/Src/stm32f0xx_hal_rcc.c ****         {
 422:Drivers/STM32F0xx_HAL_Driver/Src/stm32f0xx_hal_rcc.c ****           if((HAL_GetTick() - tickstart ) > HSI_TIMEOUT_VALUE)
 423:Drivers/STM32F0xx_HAL_Driver/Src/stm32f0xx_hal_rcc.c ****           {
 424:Drivers/STM32F0xx_HAL_Driver/Src/stm32f0xx_hal_rcc.c ****             return HAL_TIMEOUT;
 425:Drivers/STM32F0xx_HAL_Driver/Src/stm32f0xx_hal_rcc.c ****           }
 426:Drivers/STM32F0xx_HAL_Driver/Src/stm32f0xx_hal_rcc.c ****         }
 427:Drivers/STM32F0xx_HAL_Driver/Src/stm32f0xx_hal_rcc.c ****       }
 428:Drivers/STM32F0xx_HAL_Driver/Src/stm32f0xx_hal_rcc.c ****     }
 429:Drivers/STM32F0xx_HAL_Driver/Src/stm32f0xx_hal_rcc.c ****   }
 430:Drivers/STM32F0xx_HAL_Driver/Src/stm32f0xx_hal_rcc.c ****   /*------------------------------ LSI Configuration -------------------------*/ 
 431:Drivers/STM32F0xx_HAL_Driver/Src/stm32f0xx_hal_rcc.c ****   if(((RCC_OscInitStruct->OscillatorType) & RCC_OSCILLATORTYPE_LSI) == RCC_OSCILLATORTYPE_LSI)
 527              		.loc 1 431 3 view .LVU151
 528              		.loc 1 431 25 is_stmt 0 view .LVU152
 529 015e 2368     		ldr	r3, [r4]
 530              		.loc 1 431 5 view .LVU153
 531 0160 1B07     		lsls	r3, r3, #28
 532 0162 44D5     		bpl	.L42
 432:Drivers/STM32F0xx_HAL_Driver/Src/stm32f0xx_hal_rcc.c ****   {
 433:Drivers/STM32F0xx_HAL_Driver/Src/stm32f0xx_hal_rcc.c ****     /* Check the parameters */
 434:Drivers/STM32F0xx_HAL_Driver/Src/stm32f0xx_hal_rcc.c ****     assert_param(IS_RCC_LSI(RCC_OscInitStruct->LSIState));
 533              		.loc 1 434 5 is_stmt 1 view .LVU154
 435:Drivers/STM32F0xx_HAL_Driver/Src/stm32f0xx_hal_rcc.c ****     
 436:Drivers/STM32F0xx_HAL_Driver/Src/stm32f0xx_hal_rcc.c ****     /* Check the LSI State */
 437:Drivers/STM32F0xx_HAL_Driver/Src/stm32f0xx_hal_rcc.c ****     if(RCC_OscInitStruct->LSIState != RCC_LSI_OFF)
 534              		.loc 1 437 5 view .LVU155
 535              		.loc 1 437 25 is_stmt 0 view .LVU156
 536 0164 E369     		ldr	r3, [r4, #28]
 537              		.loc 1 437 7 view .LVU157
 538 0166 002B     		cmp	r3, #0
 539 0168 2ED0     		beq	.L43
 438:Drivers/STM32F0xx_HAL_Driver/Src/stm32f0xx_hal_rcc.c ****     {
 439:Drivers/STM32F0xx_HAL_Driver/Src/stm32f0xx_hal_rcc.c ****       /* Enable the Internal Low Speed oscillator (LSI). */
 440:Drivers/STM32F0xx_HAL_Driver/Src/stm32f0xx_hal_rcc.c ****       __HAL_RCC_LSI_ENABLE();
 540              		.loc 1 440 7 is_stmt 1 view .LVU158
 541 016a 5D4A     		ldr	r2, .L139
 542 016c 536A     		ldr	r3, [r2, #36]
 543 016e 0121     		movs	r1, #1
 544 0170 0B43     		orrs	r3, r1
 545 0172 5362     		str	r3, [r2, #36]
 441:Drivers/STM32F0xx_HAL_Driver/Src/stm32f0xx_hal_rcc.c ****       
 442:Drivers/STM32F0xx_HAL_Driver/Src/stm32f0xx_hal_rcc.c ****       /* Get Start Tick */
 443:Drivers/STM32F0xx_HAL_Driver/Src/stm32f0xx_hal_rcc.c ****       tickstart = HAL_GetTick();
 546              		.loc 1 443 7 view .LVU159
 547              		.loc 1 443 19 is_stmt 0 view .LVU160
 548 0174 FFF7FEFF 		bl	HAL_GetTick
 549              	.LVL28:
 550 0178 0500     		movs	r5, r0
 551              	.LVL29:
 444:Drivers/STM32F0xx_HAL_Driver/Src/stm32f0xx_hal_rcc.c ****       
 445:Drivers/STM32F0xx_HAL_Driver/Src/stm32f0xx_hal_rcc.c ****       /* Wait till LSI is ready */  
 446:Drivers/STM32F0xx_HAL_Driver/Src/stm32f0xx_hal_rcc.c ****       while(__HAL_RCC_GET_FLAG(RCC_FLAG_LSIRDY) == RESET)
 552              		.loc 1 446 7 is_stmt 1 view .LVU161
ARM GAS  /tmp/ccZr23YC.s 			page 20


 553              	.L44:
 554              		.loc 1 446 49 view .LVU162
 555              		.loc 1 446 13 is_stmt 0 view .LVU163
 556 017a 594B     		ldr	r3, .L139
 557 017c 5B6A     		ldr	r3, [r3, #36]
 558              		.loc 1 446 49 view .LVU164
 559 017e 9B07     		lsls	r3, r3, #30
 560 0180 35D4     		bmi	.L42
 447:Drivers/STM32F0xx_HAL_Driver/Src/stm32f0xx_hal_rcc.c ****       {
 448:Drivers/STM32F0xx_HAL_Driver/Src/stm32f0xx_hal_rcc.c ****         if((HAL_GetTick() - tickstart ) > LSI_TIMEOUT_VALUE)
 561              		.loc 1 448 9 is_stmt 1 view .LVU165
 562              		.loc 1 448 13 is_stmt 0 view .LVU166
 563 0182 FFF7FEFF 		bl	HAL_GetTick
 564              	.LVL30:
 565              		.loc 1 448 27 discriminator 1 view .LVU167
 566 0186 401B     		subs	r0, r0, r5
 567              		.loc 1 448 11 discriminator 1 view .LVU168
 568 0188 0228     		cmp	r0, #2
 569 018a F6D9     		bls	.L44
 449:Drivers/STM32F0xx_HAL_Driver/Src/stm32f0xx_hal_rcc.c ****         {
 450:Drivers/STM32F0xx_HAL_Driver/Src/stm32f0xx_hal_rcc.c ****           return HAL_TIMEOUT;
 570              		.loc 1 450 18 view .LVU169
 571 018c 0320     		movs	r0, #3
 572 018e BDE1     		b	.L20
 573              	.L126:
 409:Drivers/STM32F0xx_HAL_Driver/Src/stm32f0xx_hal_rcc.c ****       }
 574              		.loc 1 409 9 is_stmt 1 view .LVU170
 575 0190 5349     		ldr	r1, .L139
 576 0192 0B68     		ldr	r3, [r1]
 577 0194 F822     		movs	r2, #248
 578 0196 9343     		bics	r3, r2
 579 0198 2269     		ldr	r2, [r4, #16]
 580 019a D200     		lsls	r2, r2, #3
 581 019c 1343     		orrs	r3, r2
 582 019e 0B60     		str	r3, [r1]
 583 01a0 DDE7     		b	.L33
 584              	.LVL31:
 585              	.L37:
 414:Drivers/STM32F0xx_HAL_Driver/Src/stm32f0xx_hal_rcc.c ****         
 586              		.loc 1 414 9 view .LVU171
 587 01a2 4F4A     		ldr	r2, .L139
 588 01a4 1368     		ldr	r3, [r2]
 589 01a6 0121     		movs	r1, #1
 590 01a8 8B43     		bics	r3, r1
 591 01aa 1360     		str	r3, [r2]
 417:Drivers/STM32F0xx_HAL_Driver/Src/stm32f0xx_hal_rcc.c ****         
 592              		.loc 1 417 9 view .LVU172
 417:Drivers/STM32F0xx_HAL_Driver/Src/stm32f0xx_hal_rcc.c ****         
 593              		.loc 1 417 21 is_stmt 0 view .LVU173
 594 01ac FFF7FEFF 		bl	HAL_GetTick
 595              	.LVL32:
 596 01b0 0500     		movs	r5, r0
 597              	.LVL33:
 420:Drivers/STM32F0xx_HAL_Driver/Src/stm32f0xx_hal_rcc.c ****         {
 598              		.loc 1 420 9 is_stmt 1 view .LVU174
 599              	.L40:
 420:Drivers/STM32F0xx_HAL_Driver/Src/stm32f0xx_hal_rcc.c ****         {
ARM GAS  /tmp/ccZr23YC.s 			page 21


 600              		.loc 1 420 51 view .LVU175
 420:Drivers/STM32F0xx_HAL_Driver/Src/stm32f0xx_hal_rcc.c ****         {
 601              		.loc 1 420 15 is_stmt 0 view .LVU176
 602 01b2 4B4B     		ldr	r3, .L139
 603 01b4 1B68     		ldr	r3, [r3]
 420:Drivers/STM32F0xx_HAL_Driver/Src/stm32f0xx_hal_rcc.c ****         {
 604              		.loc 1 420 51 view .LVU177
 605 01b6 9B07     		lsls	r3, r3, #30
 606 01b8 D1D5     		bpl	.L33
 422:Drivers/STM32F0xx_HAL_Driver/Src/stm32f0xx_hal_rcc.c ****           {
 607              		.loc 1 422 11 is_stmt 1 view .LVU178
 422:Drivers/STM32F0xx_HAL_Driver/Src/stm32f0xx_hal_rcc.c ****           {
 608              		.loc 1 422 15 is_stmt 0 view .LVU179
 609 01ba FFF7FEFF 		bl	HAL_GetTick
 610              	.LVL34:
 422:Drivers/STM32F0xx_HAL_Driver/Src/stm32f0xx_hal_rcc.c ****           {
 611              		.loc 1 422 29 discriminator 1 view .LVU180
 612 01be 401B     		subs	r0, r0, r5
 422:Drivers/STM32F0xx_HAL_Driver/Src/stm32f0xx_hal_rcc.c ****           {
 613              		.loc 1 422 13 discriminator 1 view .LVU181
 614 01c0 0228     		cmp	r0, #2
 615 01c2 F6D9     		bls	.L40
 424:Drivers/STM32F0xx_HAL_Driver/Src/stm32f0xx_hal_rcc.c ****           }
 616              		.loc 1 424 20 view .LVU182
 617 01c4 0320     		movs	r0, #3
 618 01c6 A1E1     		b	.L20
 619              	.LVL35:
 620              	.L43:
 451:Drivers/STM32F0xx_HAL_Driver/Src/stm32f0xx_hal_rcc.c ****         }
 452:Drivers/STM32F0xx_HAL_Driver/Src/stm32f0xx_hal_rcc.c ****       }
 453:Drivers/STM32F0xx_HAL_Driver/Src/stm32f0xx_hal_rcc.c ****     }
 454:Drivers/STM32F0xx_HAL_Driver/Src/stm32f0xx_hal_rcc.c ****     else
 455:Drivers/STM32F0xx_HAL_Driver/Src/stm32f0xx_hal_rcc.c ****     {
 456:Drivers/STM32F0xx_HAL_Driver/Src/stm32f0xx_hal_rcc.c ****       /* Disable the Internal Low Speed oscillator (LSI). */
 457:Drivers/STM32F0xx_HAL_Driver/Src/stm32f0xx_hal_rcc.c ****       __HAL_RCC_LSI_DISABLE();
 621              		.loc 1 457 7 is_stmt 1 view .LVU183
 622 01c8 454A     		ldr	r2, .L139
 623 01ca 536A     		ldr	r3, [r2, #36]
 624 01cc 0121     		movs	r1, #1
 625 01ce 8B43     		bics	r3, r1
 626 01d0 5362     		str	r3, [r2, #36]
 458:Drivers/STM32F0xx_HAL_Driver/Src/stm32f0xx_hal_rcc.c ****       
 459:Drivers/STM32F0xx_HAL_Driver/Src/stm32f0xx_hal_rcc.c ****       /* Get Start Tick */
 460:Drivers/STM32F0xx_HAL_Driver/Src/stm32f0xx_hal_rcc.c ****       tickstart = HAL_GetTick();
 627              		.loc 1 460 7 view .LVU184
 628              		.loc 1 460 19 is_stmt 0 view .LVU185
 629 01d2 FFF7FEFF 		bl	HAL_GetTick
 630              	.LVL36:
 631 01d6 0500     		movs	r5, r0
 632              	.LVL37:
 461:Drivers/STM32F0xx_HAL_Driver/Src/stm32f0xx_hal_rcc.c ****       
 462:Drivers/STM32F0xx_HAL_Driver/Src/stm32f0xx_hal_rcc.c ****       /* Wait till LSI is disabled */  
 463:Drivers/STM32F0xx_HAL_Driver/Src/stm32f0xx_hal_rcc.c ****       while(__HAL_RCC_GET_FLAG(RCC_FLAG_LSIRDY) != RESET)
 633              		.loc 1 463 7 is_stmt 1 view .LVU186
 634              	.L46:
 635              		.loc 1 463 49 view .LVU187
 636              		.loc 1 463 13 is_stmt 0 view .LVU188
ARM GAS  /tmp/ccZr23YC.s 			page 22


 637 01d8 414B     		ldr	r3, .L139
 638 01da 5B6A     		ldr	r3, [r3, #36]
 639              		.loc 1 463 49 view .LVU189
 640 01dc 9B07     		lsls	r3, r3, #30
 641 01de 06D5     		bpl	.L42
 464:Drivers/STM32F0xx_HAL_Driver/Src/stm32f0xx_hal_rcc.c ****       {
 465:Drivers/STM32F0xx_HAL_Driver/Src/stm32f0xx_hal_rcc.c ****         if((HAL_GetTick() - tickstart ) > LSI_TIMEOUT_VALUE)
 642              		.loc 1 465 9 is_stmt 1 view .LVU190
 643              		.loc 1 465 13 is_stmt 0 view .LVU191
 644 01e0 FFF7FEFF 		bl	HAL_GetTick
 645              	.LVL38:
 646              		.loc 1 465 27 discriminator 1 view .LVU192
 647 01e4 401B     		subs	r0, r0, r5
 648              		.loc 1 465 11 discriminator 1 view .LVU193
 649 01e6 0228     		cmp	r0, #2
 650 01e8 F6D9     		bls	.L46
 466:Drivers/STM32F0xx_HAL_Driver/Src/stm32f0xx_hal_rcc.c ****         {
 467:Drivers/STM32F0xx_HAL_Driver/Src/stm32f0xx_hal_rcc.c ****           return HAL_TIMEOUT;
 651              		.loc 1 467 18 view .LVU194
 652 01ea 0320     		movs	r0, #3
 653 01ec 8EE1     		b	.L20
 654              	.LVL39:
 655              	.L42:
 468:Drivers/STM32F0xx_HAL_Driver/Src/stm32f0xx_hal_rcc.c ****         }
 469:Drivers/STM32F0xx_HAL_Driver/Src/stm32f0xx_hal_rcc.c ****       }
 470:Drivers/STM32F0xx_HAL_Driver/Src/stm32f0xx_hal_rcc.c ****     }
 471:Drivers/STM32F0xx_HAL_Driver/Src/stm32f0xx_hal_rcc.c ****   }
 472:Drivers/STM32F0xx_HAL_Driver/Src/stm32f0xx_hal_rcc.c ****   /*------------------------------ LSE Configuration -------------------------*/ 
 473:Drivers/STM32F0xx_HAL_Driver/Src/stm32f0xx_hal_rcc.c ****   if(((RCC_OscInitStruct->OscillatorType) & RCC_OSCILLATORTYPE_LSE) == RCC_OSCILLATORTYPE_LSE)
 656              		.loc 1 473 3 is_stmt 1 view .LVU195
 657              		.loc 1 473 25 is_stmt 0 view .LVU196
 658 01ee 2368     		ldr	r3, [r4]
 659              		.loc 1 473 5 view .LVU197
 660 01f0 5B07     		lsls	r3, r3, #29
 661 01f2 00D4     		bmi	.LCB598
 662 01f4 80E0     		b	.L48	@long jump
 663              	.LCB598:
 664              	.LBB2:
 474:Drivers/STM32F0xx_HAL_Driver/Src/stm32f0xx_hal_rcc.c ****   {
 475:Drivers/STM32F0xx_HAL_Driver/Src/stm32f0xx_hal_rcc.c ****     FlagStatus       pwrclkchanged = RESET;
 665              		.loc 1 475 5 is_stmt 1 view .LVU198
 666              	.LVL40:
 476:Drivers/STM32F0xx_HAL_Driver/Src/stm32f0xx_hal_rcc.c ****     
 477:Drivers/STM32F0xx_HAL_Driver/Src/stm32f0xx_hal_rcc.c ****     /* Check the parameters */
 478:Drivers/STM32F0xx_HAL_Driver/Src/stm32f0xx_hal_rcc.c ****     assert_param(IS_RCC_LSE(RCC_OscInitStruct->LSEState));
 667              		.loc 1 478 5 view .LVU199
 479:Drivers/STM32F0xx_HAL_Driver/Src/stm32f0xx_hal_rcc.c **** 
 480:Drivers/STM32F0xx_HAL_Driver/Src/stm32f0xx_hal_rcc.c ****     /* Update LSE configuration in Backup Domain control register    */
 481:Drivers/STM32F0xx_HAL_Driver/Src/stm32f0xx_hal_rcc.c ****     /* Requires to enable write access to Backup Domain of necessary */
 482:Drivers/STM32F0xx_HAL_Driver/Src/stm32f0xx_hal_rcc.c ****     if(__HAL_RCC_PWR_IS_CLK_DISABLED())
 668              		.loc 1 482 5 view .LVU200
 669              		.loc 1 482 8 is_stmt 0 view .LVU201
 670 01f6 3A4B     		ldr	r3, .L139
 671 01f8 DB69     		ldr	r3, [r3, #28]
 672              		.loc 1 482 7 view .LVU202
 673 01fa DB00     		lsls	r3, r3, #3
 674 01fc 1DD4     		bmi	.L95
ARM GAS  /tmp/ccZr23YC.s 			page 23


 483:Drivers/STM32F0xx_HAL_Driver/Src/stm32f0xx_hal_rcc.c ****     {
 484:Drivers/STM32F0xx_HAL_Driver/Src/stm32f0xx_hal_rcc.c ****       __HAL_RCC_PWR_CLK_ENABLE();
 675              		.loc 1 484 7 is_stmt 1 view .LVU203
 676              	.LBB3:
 677              		.loc 1 484 7 view .LVU204
 678              		.loc 1 484 7 view .LVU205
 679 01fe 384B     		ldr	r3, .L139
 680 0200 DA69     		ldr	r2, [r3, #28]
 681 0202 8021     		movs	r1, #128
 682 0204 4905     		lsls	r1, r1, #21
 683 0206 0A43     		orrs	r2, r1
 684 0208 DA61     		str	r2, [r3, #28]
 685              		.loc 1 484 7 view .LVU206
 686 020a DB69     		ldr	r3, [r3, #28]
 687 020c 0B40     		ands	r3, r1
 688 020e 0193     		str	r3, [sp, #4]
 689              		.loc 1 484 7 view .LVU207
 690 0210 019B     		ldr	r3, [sp, #4]
 691              	.LBE3:
 692              		.loc 1 484 7 view .LVU208
 485:Drivers/STM32F0xx_HAL_Driver/Src/stm32f0xx_hal_rcc.c ****       pwrclkchanged = SET;
 693              		.loc 1 485 7 view .LVU209
 694              	.LVL41:
 695              		.loc 1 485 21 is_stmt 0 view .LVU210
 696 0212 0125     		movs	r5, #1
 697              	.LVL42:
 698              	.L49:
 486:Drivers/STM32F0xx_HAL_Driver/Src/stm32f0xx_hal_rcc.c ****     }
 487:Drivers/STM32F0xx_HAL_Driver/Src/stm32f0xx_hal_rcc.c ****     
 488:Drivers/STM32F0xx_HAL_Driver/Src/stm32f0xx_hal_rcc.c ****     if(HAL_IS_BIT_CLR(PWR->CR, PWR_CR_DBP))
 699              		.loc 1 488 5 is_stmt 1 view .LVU211
 700              		.loc 1 488 8 is_stmt 0 view .LVU212
 701 0214 354B     		ldr	r3, .L139+12
 702 0216 1B68     		ldr	r3, [r3]
 703              		.loc 1 488 7 view .LVU213
 704 0218 DB05     		lsls	r3, r3, #23
 705 021a 10D5     		bpl	.L128
 706              	.L50:
 489:Drivers/STM32F0xx_HAL_Driver/Src/stm32f0xx_hal_rcc.c ****     {
 490:Drivers/STM32F0xx_HAL_Driver/Src/stm32f0xx_hal_rcc.c ****       /* Enable write access to Backup domain */
 491:Drivers/STM32F0xx_HAL_Driver/Src/stm32f0xx_hal_rcc.c ****       SET_BIT(PWR->CR, PWR_CR_DBP);
 492:Drivers/STM32F0xx_HAL_Driver/Src/stm32f0xx_hal_rcc.c ****       
 493:Drivers/STM32F0xx_HAL_Driver/Src/stm32f0xx_hal_rcc.c ****       /* Wait for Backup domain Write protection disable */
 494:Drivers/STM32F0xx_HAL_Driver/Src/stm32f0xx_hal_rcc.c ****       tickstart = HAL_GetTick();
 495:Drivers/STM32F0xx_HAL_Driver/Src/stm32f0xx_hal_rcc.c **** 
 496:Drivers/STM32F0xx_HAL_Driver/Src/stm32f0xx_hal_rcc.c ****       while(HAL_IS_BIT_CLR(PWR->CR, PWR_CR_DBP))
 497:Drivers/STM32F0xx_HAL_Driver/Src/stm32f0xx_hal_rcc.c ****       {
 498:Drivers/STM32F0xx_HAL_Driver/Src/stm32f0xx_hal_rcc.c ****         if((HAL_GetTick() - tickstart) > RCC_DBP_TIMEOUT_VALUE)
 499:Drivers/STM32F0xx_HAL_Driver/Src/stm32f0xx_hal_rcc.c ****         {
 500:Drivers/STM32F0xx_HAL_Driver/Src/stm32f0xx_hal_rcc.c ****           return HAL_TIMEOUT;
 501:Drivers/STM32F0xx_HAL_Driver/Src/stm32f0xx_hal_rcc.c ****         }
 502:Drivers/STM32F0xx_HAL_Driver/Src/stm32f0xx_hal_rcc.c ****       }
 503:Drivers/STM32F0xx_HAL_Driver/Src/stm32f0xx_hal_rcc.c ****     }
 504:Drivers/STM32F0xx_HAL_Driver/Src/stm32f0xx_hal_rcc.c **** 
 505:Drivers/STM32F0xx_HAL_Driver/Src/stm32f0xx_hal_rcc.c ****     /* Set the new LSE configuration -----------------------------------------*/
 506:Drivers/STM32F0xx_HAL_Driver/Src/stm32f0xx_hal_rcc.c ****     __HAL_RCC_LSE_CONFIG(RCC_OscInitStruct->LSEState);
 707              		.loc 1 506 5 is_stmt 1 view .LVU214
ARM GAS  /tmp/ccZr23YC.s 			page 24


 708              		.loc 1 506 5 view .LVU215
 709 021c A368     		ldr	r3, [r4, #8]
 710 021e 012B     		cmp	r3, #1
 711 0220 21D0     		beq	.L129
 712              		.loc 1 506 5 discriminator 2 view .LVU216
 713 0222 002B     		cmp	r3, #0
 714 0224 36D1     		bne	.L55
 715              		.loc 1 506 5 discriminator 4 view .LVU217
 716 0226 2E4B     		ldr	r3, .L139
 717 0228 1A6A     		ldr	r2, [r3, #32]
 718 022a 0121     		movs	r1, #1
 719 022c 8A43     		bics	r2, r1
 720 022e 1A62     		str	r2, [r3, #32]
 721              		.loc 1 506 5 view .LVU218
 722              		.loc 1 506 5 is_stmt 0 discriminator 4 view .LVU219
 723 0230 1A6A     		ldr	r2, [r3, #32]
 724 0232 0331     		adds	r1, r1, #3
 725 0234 8A43     		bics	r2, r1
 726 0236 1A62     		str	r2, [r3, #32]
 727 0238 1AE0     		b	.L54
 728              	.LVL43:
 729              	.L95:
 475:Drivers/STM32F0xx_HAL_Driver/Src/stm32f0xx_hal_rcc.c ****     
 730              		.loc 1 475 22 view .LVU220
 731 023a 0025     		movs	r5, #0
 732 023c EAE7     		b	.L49
 733              	.LVL44:
 734              	.L128:
 491:Drivers/STM32F0xx_HAL_Driver/Src/stm32f0xx_hal_rcc.c ****       
 735              		.loc 1 491 7 is_stmt 1 view .LVU221
 736 023e 2B4A     		ldr	r2, .L139+12
 737 0240 1168     		ldr	r1, [r2]
 738 0242 8023     		movs	r3, #128
 739 0244 5B00     		lsls	r3, r3, #1
 740 0246 0B43     		orrs	r3, r1
 741 0248 1360     		str	r3, [r2]
 494:Drivers/STM32F0xx_HAL_Driver/Src/stm32f0xx_hal_rcc.c **** 
 742              		.loc 1 494 7 view .LVU222
 494:Drivers/STM32F0xx_HAL_Driver/Src/stm32f0xx_hal_rcc.c **** 
 743              		.loc 1 494 19 is_stmt 0 view .LVU223
 744 024a FFF7FEFF 		bl	HAL_GetTick
 745              	.LVL45:
 746 024e 0600     		movs	r6, r0
 747              	.LVL46:
 496:Drivers/STM32F0xx_HAL_Driver/Src/stm32f0xx_hal_rcc.c ****       {
 748              		.loc 1 496 7 is_stmt 1 view .LVU224
 749              	.L51:
 496:Drivers/STM32F0xx_HAL_Driver/Src/stm32f0xx_hal_rcc.c ****       {
 750              		.loc 1 496 13 view .LVU225
 751 0250 264B     		ldr	r3, .L139+12
 752 0252 1B68     		ldr	r3, [r3]
 753 0254 DB05     		lsls	r3, r3, #23
 754 0256 E1D4     		bmi	.L50
 498:Drivers/STM32F0xx_HAL_Driver/Src/stm32f0xx_hal_rcc.c ****         {
 755              		.loc 1 498 9 view .LVU226
 498:Drivers/STM32F0xx_HAL_Driver/Src/stm32f0xx_hal_rcc.c ****         {
 756              		.loc 1 498 13 is_stmt 0 view .LVU227
ARM GAS  /tmp/ccZr23YC.s 			page 25


 757 0258 FFF7FEFF 		bl	HAL_GetTick
 758              	.LVL47:
 498:Drivers/STM32F0xx_HAL_Driver/Src/stm32f0xx_hal_rcc.c ****         {
 759              		.loc 1 498 27 discriminator 1 view .LVU228
 760 025c 801B     		subs	r0, r0, r6
 498:Drivers/STM32F0xx_HAL_Driver/Src/stm32f0xx_hal_rcc.c ****         {
 761              		.loc 1 498 11 discriminator 1 view .LVU229
 762 025e 6428     		cmp	r0, #100
 763 0260 F6D9     		bls	.L51
 500:Drivers/STM32F0xx_HAL_Driver/Src/stm32f0xx_hal_rcc.c ****         }
 764              		.loc 1 500 18 view .LVU230
 765 0262 0320     		movs	r0, #3
 766 0264 52E1     		b	.L20
 767              	.LVL48:
 768              	.L129:
 769              		.loc 1 506 5 is_stmt 1 discriminator 1 view .LVU231
 770 0266 1E4A     		ldr	r2, .L139
 771 0268 136A     		ldr	r3, [r2, #32]
 772 026a 0121     		movs	r1, #1
 773 026c 0B43     		orrs	r3, r1
 774 026e 1362     		str	r3, [r2, #32]
 775              	.L54:
 776              		.loc 1 506 5 discriminator 10 view .LVU232
 507:Drivers/STM32F0xx_HAL_Driver/Src/stm32f0xx_hal_rcc.c ****     /* Check the LSE State */
 508:Drivers/STM32F0xx_HAL_Driver/Src/stm32f0xx_hal_rcc.c ****     if(RCC_OscInitStruct->LSEState != RCC_LSE_OFF)
 777              		.loc 1 508 5 view .LVU233
 778              		.loc 1 508 25 is_stmt 0 view .LVU234
 779 0270 A368     		ldr	r3, [r4, #8]
 780              		.loc 1 508 7 view .LVU235
 781 0272 002B     		cmp	r3, #0
 782 0274 24D0     		beq	.L57
 509:Drivers/STM32F0xx_HAL_Driver/Src/stm32f0xx_hal_rcc.c ****     {
 510:Drivers/STM32F0xx_HAL_Driver/Src/stm32f0xx_hal_rcc.c ****       /* Get Start Tick */
 511:Drivers/STM32F0xx_HAL_Driver/Src/stm32f0xx_hal_rcc.c ****       tickstart = HAL_GetTick();
 783              		.loc 1 511 7 is_stmt 1 view .LVU236
 784              		.loc 1 511 19 is_stmt 0 view .LVU237
 785 0276 FFF7FEFF 		bl	HAL_GetTick
 786              	.LVL49:
 787 027a 0600     		movs	r6, r0
 788              	.LVL50:
 512:Drivers/STM32F0xx_HAL_Driver/Src/stm32f0xx_hal_rcc.c ****       
 513:Drivers/STM32F0xx_HAL_Driver/Src/stm32f0xx_hal_rcc.c ****       /* Wait till LSE is ready */  
 514:Drivers/STM32F0xx_HAL_Driver/Src/stm32f0xx_hal_rcc.c ****       while(__HAL_RCC_GET_FLAG(RCC_FLAG_LSERDY) == RESET)
 789              		.loc 1 514 7 is_stmt 1 view .LVU238
 790              	.L58:
 791              		.loc 1 514 49 view .LVU239
 792              		.loc 1 514 13 is_stmt 0 view .LVU240
 793 027c 184B     		ldr	r3, .L139
 794 027e 1B6A     		ldr	r3, [r3, #32]
 795              		.loc 1 514 49 view .LVU241
 796 0280 9B07     		lsls	r3, r3, #30
 797 0282 37D4     		bmi	.L60
 515:Drivers/STM32F0xx_HAL_Driver/Src/stm32f0xx_hal_rcc.c ****       {
 516:Drivers/STM32F0xx_HAL_Driver/Src/stm32f0xx_hal_rcc.c ****         if((HAL_GetTick() - tickstart ) > RCC_LSE_TIMEOUT_VALUE)
 798              		.loc 1 516 9 is_stmt 1 view .LVU242
 799              		.loc 1 516 13 is_stmt 0 view .LVU243
 800 0284 FFF7FEFF 		bl	HAL_GetTick
ARM GAS  /tmp/ccZr23YC.s 			page 26


 801              	.LVL51:
 802              		.loc 1 516 27 discriminator 1 view .LVU244
 803 0288 801B     		subs	r0, r0, r6
 804              		.loc 1 516 11 discriminator 1 view .LVU245
 805 028a 194B     		ldr	r3, .L139+16
 806 028c 9842     		cmp	r0, r3
 807 028e F5D9     		bls	.L58
 517:Drivers/STM32F0xx_HAL_Driver/Src/stm32f0xx_hal_rcc.c ****         {
 518:Drivers/STM32F0xx_HAL_Driver/Src/stm32f0xx_hal_rcc.c ****           return HAL_TIMEOUT;
 808              		.loc 1 518 18 view .LVU246
 809 0290 0320     		movs	r0, #3
 810 0292 3BE1     		b	.L20
 811              	.LVL52:
 812              	.L55:
 506:Drivers/STM32F0xx_HAL_Driver/Src/stm32f0xx_hal_rcc.c ****     /* Check the LSE State */
 813              		.loc 1 506 5 is_stmt 1 discriminator 5 view .LVU247
 814 0294 052B     		cmp	r3, #5
 815 0296 09D0     		beq	.L130
 506:Drivers/STM32F0xx_HAL_Driver/Src/stm32f0xx_hal_rcc.c ****     /* Check the LSE State */
 816              		.loc 1 506 5 discriminator 8 view .LVU248
 817 0298 114B     		ldr	r3, .L139
 818 029a 1A6A     		ldr	r2, [r3, #32]
 819 029c 0121     		movs	r1, #1
 820 029e 8A43     		bics	r2, r1
 821 02a0 1A62     		str	r2, [r3, #32]
 506:Drivers/STM32F0xx_HAL_Driver/Src/stm32f0xx_hal_rcc.c ****     /* Check the LSE State */
 822              		.loc 1 506 5 view .LVU249
 506:Drivers/STM32F0xx_HAL_Driver/Src/stm32f0xx_hal_rcc.c ****     /* Check the LSE State */
 823              		.loc 1 506 5 is_stmt 0 discriminator 8 view .LVU250
 824 02a2 1A6A     		ldr	r2, [r3, #32]
 825 02a4 0331     		adds	r1, r1, #3
 826 02a6 8A43     		bics	r2, r1
 827 02a8 1A62     		str	r2, [r3, #32]
 828 02aa E1E7     		b	.L54
 829              	.L130:
 506:Drivers/STM32F0xx_HAL_Driver/Src/stm32f0xx_hal_rcc.c ****     /* Check the LSE State */
 830              		.loc 1 506 5 is_stmt 1 discriminator 7 view .LVU251
 831 02ac 0C4B     		ldr	r3, .L139
 832 02ae 1A6A     		ldr	r2, [r3, #32]
 833 02b0 0421     		movs	r1, #4
 834 02b2 0A43     		orrs	r2, r1
 835 02b4 1A62     		str	r2, [r3, #32]
 506:Drivers/STM32F0xx_HAL_Driver/Src/stm32f0xx_hal_rcc.c ****     /* Check the LSE State */
 836              		.loc 1 506 5 view .LVU252
 506:Drivers/STM32F0xx_HAL_Driver/Src/stm32f0xx_hal_rcc.c ****     /* Check the LSE State */
 837              		.loc 1 506 5 is_stmt 0 discriminator 7 view .LVU253
 838 02b6 1A6A     		ldr	r2, [r3, #32]
 839 02b8 0339     		subs	r1, r1, #3
 840 02ba 0A43     		orrs	r2, r1
 841 02bc 1A62     		str	r2, [r3, #32]
 842 02be D7E7     		b	.L54
 843              	.L57:
 519:Drivers/STM32F0xx_HAL_Driver/Src/stm32f0xx_hal_rcc.c ****         }
 520:Drivers/STM32F0xx_HAL_Driver/Src/stm32f0xx_hal_rcc.c ****       }
 521:Drivers/STM32F0xx_HAL_Driver/Src/stm32f0xx_hal_rcc.c ****     }
 522:Drivers/STM32F0xx_HAL_Driver/Src/stm32f0xx_hal_rcc.c ****     else
 523:Drivers/STM32F0xx_HAL_Driver/Src/stm32f0xx_hal_rcc.c ****     {
ARM GAS  /tmp/ccZr23YC.s 			page 27


 524:Drivers/STM32F0xx_HAL_Driver/Src/stm32f0xx_hal_rcc.c ****       /* Get Start Tick */
 525:Drivers/STM32F0xx_HAL_Driver/Src/stm32f0xx_hal_rcc.c ****       tickstart = HAL_GetTick();
 844              		.loc 1 525 7 is_stmt 1 view .LVU254
 845              		.loc 1 525 19 is_stmt 0 view .LVU255
 846 02c0 FFF7FEFF 		bl	HAL_GetTick
 847              	.LVL53:
 848 02c4 0600     		movs	r6, r0
 849              	.LVL54:
 526:Drivers/STM32F0xx_HAL_Driver/Src/stm32f0xx_hal_rcc.c ****       
 527:Drivers/STM32F0xx_HAL_Driver/Src/stm32f0xx_hal_rcc.c ****       /* Wait till LSE is disabled */  
 528:Drivers/STM32F0xx_HAL_Driver/Src/stm32f0xx_hal_rcc.c ****       while(__HAL_RCC_GET_FLAG(RCC_FLAG_LSERDY) != RESET)
 850              		.loc 1 528 7 is_stmt 1 view .LVU256
 851              	.L61:
 852              		.loc 1 528 49 view .LVU257
 853              		.loc 1 528 13 is_stmt 0 view .LVU258
 854 02c6 064B     		ldr	r3, .L139
 855 02c8 1B6A     		ldr	r3, [r3, #32]
 856              		.loc 1 528 49 view .LVU259
 857 02ca 9B07     		lsls	r3, r3, #30
 858 02cc 12D5     		bpl	.L60
 529:Drivers/STM32F0xx_HAL_Driver/Src/stm32f0xx_hal_rcc.c ****       {
 530:Drivers/STM32F0xx_HAL_Driver/Src/stm32f0xx_hal_rcc.c ****         if((HAL_GetTick() - tickstart ) > RCC_LSE_TIMEOUT_VALUE)
 859              		.loc 1 530 9 is_stmt 1 view .LVU260
 860              		.loc 1 530 13 is_stmt 0 view .LVU261
 861 02ce FFF7FEFF 		bl	HAL_GetTick
 862              	.LVL55:
 863              		.loc 1 530 27 discriminator 1 view .LVU262
 864 02d2 801B     		subs	r0, r0, r6
 865              		.loc 1 530 11 discriminator 1 view .LVU263
 866 02d4 064B     		ldr	r3, .L139+16
 867 02d6 9842     		cmp	r0, r3
 868 02d8 F5D9     		bls	.L61
 531:Drivers/STM32F0xx_HAL_Driver/Src/stm32f0xx_hal_rcc.c ****         {
 532:Drivers/STM32F0xx_HAL_Driver/Src/stm32f0xx_hal_rcc.c ****           return HAL_TIMEOUT;
 869              		.loc 1 532 18 view .LVU264
 870 02da 0320     		movs	r0, #3
 871 02dc 16E1     		b	.L20
 872              	.L140:
 873 02de C046     		.align	2
 874              	.L139:
 875 02e0 00100240 		.word	1073876992
 876 02e4 FFFFFEFF 		.word	-65537
 877 02e8 FFFFFBFF 		.word	-262145
 878 02ec 00700040 		.word	1073770496
 879 02f0 88130000 		.word	5000
 880              	.L60:
 533:Drivers/STM32F0xx_HAL_Driver/Src/stm32f0xx_hal_rcc.c ****         }
 534:Drivers/STM32F0xx_HAL_Driver/Src/stm32f0xx_hal_rcc.c ****       }
 535:Drivers/STM32F0xx_HAL_Driver/Src/stm32f0xx_hal_rcc.c ****     }
 536:Drivers/STM32F0xx_HAL_Driver/Src/stm32f0xx_hal_rcc.c **** 
 537:Drivers/STM32F0xx_HAL_Driver/Src/stm32f0xx_hal_rcc.c ****     /* Require to disable power clock if necessary */
 538:Drivers/STM32F0xx_HAL_Driver/Src/stm32f0xx_hal_rcc.c ****     if(pwrclkchanged == SET)
 881              		.loc 1 538 5 is_stmt 1 view .LVU265
 882              		.loc 1 538 7 is_stmt 0 view .LVU266
 883 02f4 012D     		cmp	r5, #1
 884 02f6 39D0     		beq	.L131
 885              	.LVL56:
ARM GAS  /tmp/ccZr23YC.s 			page 28


 886              	.L48:
 887              		.loc 1 538 7 view .LVU267
 888              	.LBE2:
 539:Drivers/STM32F0xx_HAL_Driver/Src/stm32f0xx_hal_rcc.c ****     {
 540:Drivers/STM32F0xx_HAL_Driver/Src/stm32f0xx_hal_rcc.c ****       __HAL_RCC_PWR_CLK_DISABLE();
 541:Drivers/STM32F0xx_HAL_Driver/Src/stm32f0xx_hal_rcc.c ****     }
 542:Drivers/STM32F0xx_HAL_Driver/Src/stm32f0xx_hal_rcc.c ****   }
 543:Drivers/STM32F0xx_HAL_Driver/Src/stm32f0xx_hal_rcc.c **** 
 544:Drivers/STM32F0xx_HAL_Driver/Src/stm32f0xx_hal_rcc.c ****   /*----------------------------- HSI14 Configuration --------------------------*/
 545:Drivers/STM32F0xx_HAL_Driver/Src/stm32f0xx_hal_rcc.c ****   if(((RCC_OscInitStruct->OscillatorType) & RCC_OSCILLATORTYPE_HSI14) == RCC_OSCILLATORTYPE_HSI14)
 889              		.loc 1 545 3 is_stmt 1 view .LVU268
 890              		.loc 1 545 25 is_stmt 0 view .LVU269
 891 02f8 2368     		ldr	r3, [r4]
 892              		.loc 1 545 5 view .LVU270
 893 02fa DB06     		lsls	r3, r3, #27
 894 02fc 10D5     		bpl	.L63
 546:Drivers/STM32F0xx_HAL_Driver/Src/stm32f0xx_hal_rcc.c ****   {
 547:Drivers/STM32F0xx_HAL_Driver/Src/stm32f0xx_hal_rcc.c ****     /* Check the parameters */
 548:Drivers/STM32F0xx_HAL_Driver/Src/stm32f0xx_hal_rcc.c ****     assert_param(IS_RCC_HSI14(RCC_OscInitStruct->HSI14State));
 895              		.loc 1 548 5 is_stmt 1 view .LVU271
 549:Drivers/STM32F0xx_HAL_Driver/Src/stm32f0xx_hal_rcc.c ****     assert_param(IS_RCC_CALIBRATION_VALUE(RCC_OscInitStruct->HSI14CalibrationValue));
 896              		.loc 1 549 5 view .LVU272
 550:Drivers/STM32F0xx_HAL_Driver/Src/stm32f0xx_hal_rcc.c **** 
 551:Drivers/STM32F0xx_HAL_Driver/Src/stm32f0xx_hal_rcc.c ****     /* Check the HSI14 State */
 552:Drivers/STM32F0xx_HAL_Driver/Src/stm32f0xx_hal_rcc.c ****     if(RCC_OscInitStruct->HSI14State == RCC_HSI14_ON)
 897              		.loc 1 552 5 view .LVU273
 898              		.loc 1 552 25 is_stmt 0 view .LVU274
 899 02fe 6369     		ldr	r3, [r4, #20]
 900              		.loc 1 552 7 view .LVU275
 901 0300 012B     		cmp	r3, #1
 902 0302 39D0     		beq	.L132
 553:Drivers/STM32F0xx_HAL_Driver/Src/stm32f0xx_hal_rcc.c ****     {
 554:Drivers/STM32F0xx_HAL_Driver/Src/stm32f0xx_hal_rcc.c ****       /* Disable ADC control of the Internal High Speed oscillator HSI14 */
 555:Drivers/STM32F0xx_HAL_Driver/Src/stm32f0xx_hal_rcc.c ****       __HAL_RCC_HSI14ADC_DISABLE();
 556:Drivers/STM32F0xx_HAL_Driver/Src/stm32f0xx_hal_rcc.c **** 
 557:Drivers/STM32F0xx_HAL_Driver/Src/stm32f0xx_hal_rcc.c ****       /* Enable the Internal High Speed oscillator (HSI). */
 558:Drivers/STM32F0xx_HAL_Driver/Src/stm32f0xx_hal_rcc.c ****       __HAL_RCC_HSI14_ENABLE();
 559:Drivers/STM32F0xx_HAL_Driver/Src/stm32f0xx_hal_rcc.c **** 
 560:Drivers/STM32F0xx_HAL_Driver/Src/stm32f0xx_hal_rcc.c ****       /* Get Start Tick */
 561:Drivers/STM32F0xx_HAL_Driver/Src/stm32f0xx_hal_rcc.c ****       tickstart = HAL_GetTick();
 562:Drivers/STM32F0xx_HAL_Driver/Src/stm32f0xx_hal_rcc.c ****       
 563:Drivers/STM32F0xx_HAL_Driver/Src/stm32f0xx_hal_rcc.c ****       /* Wait till HSI is ready */  
 564:Drivers/STM32F0xx_HAL_Driver/Src/stm32f0xx_hal_rcc.c ****       while(__HAL_RCC_GET_FLAG(RCC_FLAG_HSI14RDY) == RESET)
 565:Drivers/STM32F0xx_HAL_Driver/Src/stm32f0xx_hal_rcc.c ****       {
 566:Drivers/STM32F0xx_HAL_Driver/Src/stm32f0xx_hal_rcc.c ****         if((HAL_GetTick() - tickstart) > HSI14_TIMEOUT_VALUE)
 567:Drivers/STM32F0xx_HAL_Driver/Src/stm32f0xx_hal_rcc.c ****         {
 568:Drivers/STM32F0xx_HAL_Driver/Src/stm32f0xx_hal_rcc.c ****           return HAL_TIMEOUT;
 569:Drivers/STM32F0xx_HAL_Driver/Src/stm32f0xx_hal_rcc.c ****         }      
 570:Drivers/STM32F0xx_HAL_Driver/Src/stm32f0xx_hal_rcc.c ****       } 
 571:Drivers/STM32F0xx_HAL_Driver/Src/stm32f0xx_hal_rcc.c **** 
 572:Drivers/STM32F0xx_HAL_Driver/Src/stm32f0xx_hal_rcc.c ****       /* Adjusts the Internal High Speed oscillator 14Mhz (HSI14) calibration value. */
 573:Drivers/STM32F0xx_HAL_Driver/Src/stm32f0xx_hal_rcc.c ****       __HAL_RCC_HSI14_CALIBRATIONVALUE_ADJUST(RCC_OscInitStruct->HSI14CalibrationValue);
 574:Drivers/STM32F0xx_HAL_Driver/Src/stm32f0xx_hal_rcc.c ****     }
 575:Drivers/STM32F0xx_HAL_Driver/Src/stm32f0xx_hal_rcc.c ****     else if(RCC_OscInitStruct->HSI14State == RCC_HSI14_ADC_CONTROL)
 903              		.loc 1 575 10 is_stmt 1 view .LVU276
 904              		.loc 1 575 12 is_stmt 0 view .LVU277
 905 0304 0533     		adds	r3, r3, #5
ARM GAS  /tmp/ccZr23YC.s 			page 29


 906 0306 57D1     		bne	.L67
 576:Drivers/STM32F0xx_HAL_Driver/Src/stm32f0xx_hal_rcc.c ****     {
 577:Drivers/STM32F0xx_HAL_Driver/Src/stm32f0xx_hal_rcc.c ****       /* Enable ADC control of the Internal High Speed oscillator HSI14 */
 578:Drivers/STM32F0xx_HAL_Driver/Src/stm32f0xx_hal_rcc.c ****       __HAL_RCC_HSI14ADC_ENABLE();
 907              		.loc 1 578 7 is_stmt 1 view .LVU278
 908 0308 894A     		ldr	r2, .L141
 909 030a 536B     		ldr	r3, [r2, #52]
 910 030c 0421     		movs	r1, #4
 911 030e 8B43     		bics	r3, r1
 912 0310 5363     		str	r3, [r2, #52]
 579:Drivers/STM32F0xx_HAL_Driver/Src/stm32f0xx_hal_rcc.c **** 
 580:Drivers/STM32F0xx_HAL_Driver/Src/stm32f0xx_hal_rcc.c ****       /* Adjusts the Internal High Speed oscillator 14Mhz (HSI14) calibration value. */
 581:Drivers/STM32F0xx_HAL_Driver/Src/stm32f0xx_hal_rcc.c ****       __HAL_RCC_HSI14_CALIBRATIONVALUE_ADJUST(RCC_OscInitStruct->HSI14CalibrationValue);
 913              		.loc 1 581 7 view .LVU279
 914 0312 536B     		ldr	r3, [r2, #52]
 915 0314 F431     		adds	r1, r1, #244
 916 0316 8B43     		bics	r3, r1
 917 0318 A169     		ldr	r1, [r4, #24]
 918 031a C900     		lsls	r1, r1, #3
 919 031c 0B43     		orrs	r3, r1
 920 031e 5363     		str	r3, [r2, #52]
 921              	.L63:
 582:Drivers/STM32F0xx_HAL_Driver/Src/stm32f0xx_hal_rcc.c ****     }
 583:Drivers/STM32F0xx_HAL_Driver/Src/stm32f0xx_hal_rcc.c ****     else
 584:Drivers/STM32F0xx_HAL_Driver/Src/stm32f0xx_hal_rcc.c ****     {
 585:Drivers/STM32F0xx_HAL_Driver/Src/stm32f0xx_hal_rcc.c ****       /* Disable ADC control of the Internal High Speed oscillator HSI14 */
 586:Drivers/STM32F0xx_HAL_Driver/Src/stm32f0xx_hal_rcc.c ****       __HAL_RCC_HSI14ADC_DISABLE();
 587:Drivers/STM32F0xx_HAL_Driver/Src/stm32f0xx_hal_rcc.c **** 
 588:Drivers/STM32F0xx_HAL_Driver/Src/stm32f0xx_hal_rcc.c ****       /* Disable the Internal High Speed oscillator (HSI). */
 589:Drivers/STM32F0xx_HAL_Driver/Src/stm32f0xx_hal_rcc.c ****       __HAL_RCC_HSI14_DISABLE();
 590:Drivers/STM32F0xx_HAL_Driver/Src/stm32f0xx_hal_rcc.c **** 
 591:Drivers/STM32F0xx_HAL_Driver/Src/stm32f0xx_hal_rcc.c ****       /* Get Start Tick */
 592:Drivers/STM32F0xx_HAL_Driver/Src/stm32f0xx_hal_rcc.c ****       tickstart = HAL_GetTick();
 593:Drivers/STM32F0xx_HAL_Driver/Src/stm32f0xx_hal_rcc.c ****       
 594:Drivers/STM32F0xx_HAL_Driver/Src/stm32f0xx_hal_rcc.c ****       /* Wait till HSI is ready */  
 595:Drivers/STM32F0xx_HAL_Driver/Src/stm32f0xx_hal_rcc.c ****       while(__HAL_RCC_GET_FLAG(RCC_FLAG_HSI14RDY) != RESET)
 596:Drivers/STM32F0xx_HAL_Driver/Src/stm32f0xx_hal_rcc.c ****       {
 597:Drivers/STM32F0xx_HAL_Driver/Src/stm32f0xx_hal_rcc.c ****         if((HAL_GetTick() - tickstart) > HSI14_TIMEOUT_VALUE)
 598:Drivers/STM32F0xx_HAL_Driver/Src/stm32f0xx_hal_rcc.c ****         {
 599:Drivers/STM32F0xx_HAL_Driver/Src/stm32f0xx_hal_rcc.c ****           return HAL_TIMEOUT;
 600:Drivers/STM32F0xx_HAL_Driver/Src/stm32f0xx_hal_rcc.c ****         }
 601:Drivers/STM32F0xx_HAL_Driver/Src/stm32f0xx_hal_rcc.c ****       }
 602:Drivers/STM32F0xx_HAL_Driver/Src/stm32f0xx_hal_rcc.c ****     }
 603:Drivers/STM32F0xx_HAL_Driver/Src/stm32f0xx_hal_rcc.c ****   }
 604:Drivers/STM32F0xx_HAL_Driver/Src/stm32f0xx_hal_rcc.c **** 
 605:Drivers/STM32F0xx_HAL_Driver/Src/stm32f0xx_hal_rcc.c **** #if defined(RCC_HSI48_SUPPORT)
 606:Drivers/STM32F0xx_HAL_Driver/Src/stm32f0xx_hal_rcc.c ****   /*----------------------------- HSI48 Configuration --------------------------*/
 607:Drivers/STM32F0xx_HAL_Driver/Src/stm32f0xx_hal_rcc.c ****   if(((RCC_OscInitStruct->OscillatorType) & RCC_OSCILLATORTYPE_HSI48) == RCC_OSCILLATORTYPE_HSI48)
 922              		.loc 1 607 3 view .LVU280
 923              		.loc 1 607 25 is_stmt 0 view .LVU281
 924 0320 2368     		ldr	r3, [r4]
 925              		.loc 1 607 5 view .LVU282
 926 0322 9B06     		lsls	r3, r3, #26
 927 0324 6ED5     		bpl	.L70
 608:Drivers/STM32F0xx_HAL_Driver/Src/stm32f0xx_hal_rcc.c ****   {
 609:Drivers/STM32F0xx_HAL_Driver/Src/stm32f0xx_hal_rcc.c ****     /* Check the parameters */
 610:Drivers/STM32F0xx_HAL_Driver/Src/stm32f0xx_hal_rcc.c ****     assert_param(IS_RCC_HSI48(RCC_OscInitStruct->HSI48State));
ARM GAS  /tmp/ccZr23YC.s 			page 30


 928              		.loc 1 610 5 is_stmt 1 view .LVU283
 611:Drivers/STM32F0xx_HAL_Driver/Src/stm32f0xx_hal_rcc.c **** 
 612:Drivers/STM32F0xx_HAL_Driver/Src/stm32f0xx_hal_rcc.c ****     /* When the HSI48 is used as system clock it is not allowed to be disabled */
 613:Drivers/STM32F0xx_HAL_Driver/Src/stm32f0xx_hal_rcc.c ****     if((__HAL_RCC_GET_SYSCLK_SOURCE() == RCC_SYSCLKSOURCE_STATUS_HSI48) ||
 929              		.loc 1 613 5 view .LVU284
 930              		.loc 1 613 9 is_stmt 0 view .LVU285
 931 0326 824B     		ldr	r3, .L141
 932 0328 5A68     		ldr	r2, [r3, #4]
 933 032a 0C23     		movs	r3, #12
 934 032c 1340     		ands	r3, r2
 935              		.loc 1 613 7 view .LVU286
 936 032e 0C2B     		cmp	r3, #12
 937 0330 60D0     		beq	.L71
 614:Drivers/STM32F0xx_HAL_Driver/Src/stm32f0xx_hal_rcc.c ****        ((__HAL_RCC_GET_SYSCLK_SOURCE() == RCC_SYSCLKSOURCE_STATUS_PLLCLK) && (__HAL_RCC_GET_PLL_OSC
 938              		.loc 1 614 10 view .LVU287
 939 0332 7F4B     		ldr	r3, .L141
 940 0334 5A68     		ldr	r2, [r3, #4]
 941 0336 0C23     		movs	r3, #12
 942 0338 1340     		ands	r3, r2
 613:Drivers/STM32F0xx_HAL_Driver/Src/stm32f0xx_hal_rcc.c ****        ((__HAL_RCC_GET_SYSCLK_SOURCE() == RCC_SYSCLKSOURCE_STATUS_PLLCLK) && (__HAL_RCC_GET_PLL_OSC
 943              		.loc 1 613 73 discriminator 1 view .LVU288
 944 033a 082B     		cmp	r3, #8
 945 033c 53D0     		beq	.L133
 946              	.L72:
 615:Drivers/STM32F0xx_HAL_Driver/Src/stm32f0xx_hal_rcc.c ****     {
 616:Drivers/STM32F0xx_HAL_Driver/Src/stm32f0xx_hal_rcc.c ****       if((__HAL_RCC_GET_FLAG(RCC_FLAG_HSI48RDY) != RESET) && (RCC_OscInitStruct->HSI48State != RCC_
 617:Drivers/STM32F0xx_HAL_Driver/Src/stm32f0xx_hal_rcc.c ****       {
 618:Drivers/STM32F0xx_HAL_Driver/Src/stm32f0xx_hal_rcc.c ****         return HAL_ERROR;
 619:Drivers/STM32F0xx_HAL_Driver/Src/stm32f0xx_hal_rcc.c ****       }
 620:Drivers/STM32F0xx_HAL_Driver/Src/stm32f0xx_hal_rcc.c ****     }
 621:Drivers/STM32F0xx_HAL_Driver/Src/stm32f0xx_hal_rcc.c ****     else
 622:Drivers/STM32F0xx_HAL_Driver/Src/stm32f0xx_hal_rcc.c ****     {
 623:Drivers/STM32F0xx_HAL_Driver/Src/stm32f0xx_hal_rcc.c ****       /* Check the HSI48 State */
 624:Drivers/STM32F0xx_HAL_Driver/Src/stm32f0xx_hal_rcc.c ****       if(RCC_OscInitStruct->HSI48State != RCC_HSI48_OFF)
 947              		.loc 1 624 7 is_stmt 1 view .LVU289
 948              		.loc 1 624 27 is_stmt 0 view .LVU290
 949 033e 236A     		ldr	r3, [r4, #32]
 950              		.loc 1 624 9 view .LVU291
 951 0340 002B     		cmp	r3, #0
 952 0342 7ED0     		beq	.L73
 625:Drivers/STM32F0xx_HAL_Driver/Src/stm32f0xx_hal_rcc.c ****       {
 626:Drivers/STM32F0xx_HAL_Driver/Src/stm32f0xx_hal_rcc.c ****         /* Enable the Internal High Speed oscillator (HSI48). */
 627:Drivers/STM32F0xx_HAL_Driver/Src/stm32f0xx_hal_rcc.c ****         __HAL_RCC_HSI48_ENABLE();
 953              		.loc 1 627 9 is_stmt 1 view .LVU292
 954 0344 7A4A     		ldr	r2, .L141
 955 0346 516B     		ldr	r1, [r2, #52]
 956 0348 8023     		movs	r3, #128
 957 034a 5B02     		lsls	r3, r3, #9
 958 034c 0B43     		orrs	r3, r1
 959 034e 5363     		str	r3, [r2, #52]
 628:Drivers/STM32F0xx_HAL_Driver/Src/stm32f0xx_hal_rcc.c **** 
 629:Drivers/STM32F0xx_HAL_Driver/Src/stm32f0xx_hal_rcc.c ****         /* Get Start Tick */
 630:Drivers/STM32F0xx_HAL_Driver/Src/stm32f0xx_hal_rcc.c ****         tickstart = HAL_GetTick();
 960              		.loc 1 630 9 view .LVU293
 961              		.loc 1 630 21 is_stmt 0 view .LVU294
 962 0350 FFF7FEFF 		bl	HAL_GetTick
 963              	.LVL57:
ARM GAS  /tmp/ccZr23YC.s 			page 31


 964 0354 0500     		movs	r5, r0
 965              	.LVL58:
 631:Drivers/STM32F0xx_HAL_Driver/Src/stm32f0xx_hal_rcc.c ****       
 632:Drivers/STM32F0xx_HAL_Driver/Src/stm32f0xx_hal_rcc.c ****         /* Wait till HSI48 is ready */  
 633:Drivers/STM32F0xx_HAL_Driver/Src/stm32f0xx_hal_rcc.c ****         while(__HAL_RCC_GET_FLAG(RCC_FLAG_HSI48RDY) == RESET)
 966              		.loc 1 633 9 is_stmt 1 view .LVU295
 967              	.L74:
 968              		.loc 1 633 53 view .LVU296
 969              		.loc 1 633 15 is_stmt 0 view .LVU297
 970 0356 764B     		ldr	r3, .L141
 971 0358 5B6B     		ldr	r3, [r3, #52]
 972              		.loc 1 633 53 view .LVU298
 973 035a 9B03     		lsls	r3, r3, #14
 974 035c 52D4     		bmi	.L70
 634:Drivers/STM32F0xx_HAL_Driver/Src/stm32f0xx_hal_rcc.c ****         {
 635:Drivers/STM32F0xx_HAL_Driver/Src/stm32f0xx_hal_rcc.c ****           if((HAL_GetTick() - tickstart) > HSI48_TIMEOUT_VALUE)
 975              		.loc 1 635 11 is_stmt 1 view .LVU299
 976              		.loc 1 635 15 is_stmt 0 view .LVU300
 977 035e FFF7FEFF 		bl	HAL_GetTick
 978              	.LVL59:
 979              		.loc 1 635 29 discriminator 1 view .LVU301
 980 0362 401B     		subs	r0, r0, r5
 981              		.loc 1 635 13 discriminator 1 view .LVU302
 982 0364 0228     		cmp	r0, #2
 983 0366 F6D9     		bls	.L74
 636:Drivers/STM32F0xx_HAL_Driver/Src/stm32f0xx_hal_rcc.c ****           {
 637:Drivers/STM32F0xx_HAL_Driver/Src/stm32f0xx_hal_rcc.c ****             return HAL_TIMEOUT;
 984              		.loc 1 637 20 view .LVU303
 985 0368 0320     		movs	r0, #3
 986 036a CFE0     		b	.L20
 987              	.LVL60:
 988              	.L131:
 989              	.LBB4:
 540:Drivers/STM32F0xx_HAL_Driver/Src/stm32f0xx_hal_rcc.c ****     }
 990              		.loc 1 540 7 is_stmt 1 view .LVU304
 991 036c 704A     		ldr	r2, .L141
 992 036e D369     		ldr	r3, [r2, #28]
 993 0370 7049     		ldr	r1, .L141+4
 994 0372 0B40     		ands	r3, r1
 995 0374 D361     		str	r3, [r2, #28]
 996 0376 BFE7     		b	.L48
 997              	.LVL61:
 998              	.L132:
 540:Drivers/STM32F0xx_HAL_Driver/Src/stm32f0xx_hal_rcc.c ****     }
 999              		.loc 1 540 7 is_stmt 0 view .LVU305
 1000              	.LBE4:
 555:Drivers/STM32F0xx_HAL_Driver/Src/stm32f0xx_hal_rcc.c **** 
 1001              		.loc 1 555 7 is_stmt 1 view .LVU306
 1002 0378 6D4B     		ldr	r3, .L141
 1003 037a 5A6B     		ldr	r2, [r3, #52]
 1004 037c 0421     		movs	r1, #4
 1005 037e 0A43     		orrs	r2, r1
 1006 0380 5A63     		str	r2, [r3, #52]
 558:Drivers/STM32F0xx_HAL_Driver/Src/stm32f0xx_hal_rcc.c **** 
 1007              		.loc 1 558 7 view .LVU307
 1008 0382 5A6B     		ldr	r2, [r3, #52]
 1009 0384 0339     		subs	r1, r1, #3
ARM GAS  /tmp/ccZr23YC.s 			page 32


 1010 0386 0A43     		orrs	r2, r1
 1011 0388 5A63     		str	r2, [r3, #52]
 561:Drivers/STM32F0xx_HAL_Driver/Src/stm32f0xx_hal_rcc.c ****       
 1012              		.loc 1 561 7 view .LVU308
 561:Drivers/STM32F0xx_HAL_Driver/Src/stm32f0xx_hal_rcc.c ****       
 1013              		.loc 1 561 19 is_stmt 0 view .LVU309
 1014 038a FFF7FEFF 		bl	HAL_GetTick
 1015              	.LVL62:
 1016 038e 0500     		movs	r5, r0
 1017              	.LVL63:
 564:Drivers/STM32F0xx_HAL_Driver/Src/stm32f0xx_hal_rcc.c ****       {
 1018              		.loc 1 564 7 is_stmt 1 view .LVU310
 1019              	.L65:
 564:Drivers/STM32F0xx_HAL_Driver/Src/stm32f0xx_hal_rcc.c ****       {
 1020              		.loc 1 564 51 view .LVU311
 564:Drivers/STM32F0xx_HAL_Driver/Src/stm32f0xx_hal_rcc.c ****       {
 1021              		.loc 1 564 13 is_stmt 0 view .LVU312
 1022 0390 674B     		ldr	r3, .L141
 1023 0392 5B6B     		ldr	r3, [r3, #52]
 564:Drivers/STM32F0xx_HAL_Driver/Src/stm32f0xx_hal_rcc.c ****       {
 1024              		.loc 1 564 51 view .LVU313
 1025 0394 9B07     		lsls	r3, r3, #30
 1026 0396 06D4     		bmi	.L134
 566:Drivers/STM32F0xx_HAL_Driver/Src/stm32f0xx_hal_rcc.c ****         {
 1027              		.loc 1 566 9 is_stmt 1 view .LVU314
 566:Drivers/STM32F0xx_HAL_Driver/Src/stm32f0xx_hal_rcc.c ****         {
 1028              		.loc 1 566 13 is_stmt 0 view .LVU315
 1029 0398 FFF7FEFF 		bl	HAL_GetTick
 1030              	.LVL64:
 566:Drivers/STM32F0xx_HAL_Driver/Src/stm32f0xx_hal_rcc.c ****         {
 1031              		.loc 1 566 27 discriminator 1 view .LVU316
 1032 039c 401B     		subs	r0, r0, r5
 566:Drivers/STM32F0xx_HAL_Driver/Src/stm32f0xx_hal_rcc.c ****         {
 1033              		.loc 1 566 11 discriminator 1 view .LVU317
 1034 039e 0228     		cmp	r0, #2
 1035 03a0 F6D9     		bls	.L65
 568:Drivers/STM32F0xx_HAL_Driver/Src/stm32f0xx_hal_rcc.c ****         }      
 1036              		.loc 1 568 18 view .LVU318
 1037 03a2 0320     		movs	r0, #3
 1038 03a4 B2E0     		b	.L20
 1039              	.L134:
 573:Drivers/STM32F0xx_HAL_Driver/Src/stm32f0xx_hal_rcc.c ****     }
 1040              		.loc 1 573 7 is_stmt 1 view .LVU319
 1041 03a6 6249     		ldr	r1, .L141
 1042 03a8 4B6B     		ldr	r3, [r1, #52]
 1043 03aa F822     		movs	r2, #248
 1044 03ac 9343     		bics	r3, r2
 1045 03ae A269     		ldr	r2, [r4, #24]
 1046 03b0 D200     		lsls	r2, r2, #3
 1047 03b2 1343     		orrs	r3, r2
 1048 03b4 4B63     		str	r3, [r1, #52]
 1049 03b6 B3E7     		b	.L63
 1050              	.LVL65:
 1051              	.L67:
 586:Drivers/STM32F0xx_HAL_Driver/Src/stm32f0xx_hal_rcc.c **** 
 1052              		.loc 1 586 7 view .LVU320
 1053 03b8 5D4B     		ldr	r3, .L141
ARM GAS  /tmp/ccZr23YC.s 			page 33


 1054 03ba 5A6B     		ldr	r2, [r3, #52]
 1055 03bc 0421     		movs	r1, #4
 1056 03be 0A43     		orrs	r2, r1
 1057 03c0 5A63     		str	r2, [r3, #52]
 589:Drivers/STM32F0xx_HAL_Driver/Src/stm32f0xx_hal_rcc.c **** 
 1058              		.loc 1 589 7 view .LVU321
 1059 03c2 5A6B     		ldr	r2, [r3, #52]
 1060 03c4 0339     		subs	r1, r1, #3
 1061 03c6 8A43     		bics	r2, r1
 1062 03c8 5A63     		str	r2, [r3, #52]
 592:Drivers/STM32F0xx_HAL_Driver/Src/stm32f0xx_hal_rcc.c ****       
 1063              		.loc 1 592 7 view .LVU322
 592:Drivers/STM32F0xx_HAL_Driver/Src/stm32f0xx_hal_rcc.c ****       
 1064              		.loc 1 592 19 is_stmt 0 view .LVU323
 1065 03ca FFF7FEFF 		bl	HAL_GetTick
 1066              	.LVL66:
 1067 03ce 0500     		movs	r5, r0
 1068              	.LVL67:
 595:Drivers/STM32F0xx_HAL_Driver/Src/stm32f0xx_hal_rcc.c ****       {
 1069              		.loc 1 595 7 is_stmt 1 view .LVU324
 1070              	.L68:
 595:Drivers/STM32F0xx_HAL_Driver/Src/stm32f0xx_hal_rcc.c ****       {
 1071              		.loc 1 595 51 view .LVU325
 595:Drivers/STM32F0xx_HAL_Driver/Src/stm32f0xx_hal_rcc.c ****       {
 1072              		.loc 1 595 13 is_stmt 0 view .LVU326
 1073 03d0 574B     		ldr	r3, .L141
 1074 03d2 5B6B     		ldr	r3, [r3, #52]
 595:Drivers/STM32F0xx_HAL_Driver/Src/stm32f0xx_hal_rcc.c ****       {
 1075              		.loc 1 595 51 view .LVU327
 1076 03d4 9B07     		lsls	r3, r3, #30
 1077 03d6 A3D5     		bpl	.L63
 597:Drivers/STM32F0xx_HAL_Driver/Src/stm32f0xx_hal_rcc.c ****         {
 1078              		.loc 1 597 9 is_stmt 1 view .LVU328
 597:Drivers/STM32F0xx_HAL_Driver/Src/stm32f0xx_hal_rcc.c ****         {
 1079              		.loc 1 597 13 is_stmt 0 view .LVU329
 1080 03d8 FFF7FEFF 		bl	HAL_GetTick
 1081              	.LVL68:
 597:Drivers/STM32F0xx_HAL_Driver/Src/stm32f0xx_hal_rcc.c ****         {
 1082              		.loc 1 597 27 discriminator 1 view .LVU330
 1083 03dc 401B     		subs	r0, r0, r5
 597:Drivers/STM32F0xx_HAL_Driver/Src/stm32f0xx_hal_rcc.c ****         {
 1084              		.loc 1 597 11 discriminator 1 view .LVU331
 1085 03de 0228     		cmp	r0, #2
 1086 03e0 F6D9     		bls	.L68
 599:Drivers/STM32F0xx_HAL_Driver/Src/stm32f0xx_hal_rcc.c ****         }
 1087              		.loc 1 599 18 view .LVU332
 1088 03e2 0320     		movs	r0, #3
 1089 03e4 92E0     		b	.L20
 1090              	.LVL69:
 1091              	.L133:
 614:Drivers/STM32F0xx_HAL_Driver/Src/stm32f0xx_hal_rcc.c ****     {
 1092              		.loc 1 614 79 view .LVU333
 1093 03e6 524B     		ldr	r3, .L141
 1094 03e8 5B68     		ldr	r3, [r3, #4]
 1095 03ea C022     		movs	r2, #192
 1096 03ec 5202     		lsls	r2, r2, #9
 1097 03ee 1340     		ands	r3, r2
ARM GAS  /tmp/ccZr23YC.s 			page 34


 614:Drivers/STM32F0xx_HAL_Driver/Src/stm32f0xx_hal_rcc.c ****     {
 1098              		.loc 1 614 75 view .LVU334
 1099 03f0 9342     		cmp	r3, r2
 1100 03f2 A4D1     		bne	.L72
 1101              	.L71:
 616:Drivers/STM32F0xx_HAL_Driver/Src/stm32f0xx_hal_rcc.c ****       {
 1102              		.loc 1 616 7 is_stmt 1 view .LVU335
 616:Drivers/STM32F0xx_HAL_Driver/Src/stm32f0xx_hal_rcc.c ****       {
 1103              		.loc 1 616 11 is_stmt 0 view .LVU336
 1104 03f4 4E4B     		ldr	r3, .L141
 1105 03f6 5B6B     		ldr	r3, [r3, #52]
 616:Drivers/STM32F0xx_HAL_Driver/Src/stm32f0xx_hal_rcc.c ****       {
 1106              		.loc 1 616 9 view .LVU337
 1107 03f8 9B03     		lsls	r3, r3, #14
 1108 03fa 03D5     		bpl	.L70
 616:Drivers/STM32F0xx_HAL_Driver/Src/stm32f0xx_hal_rcc.c ****       {
 1109              		.loc 1 616 80 discriminator 1 view .LVU338
 1110 03fc 236A     		ldr	r3, [r4, #32]
 616:Drivers/STM32F0xx_HAL_Driver/Src/stm32f0xx_hal_rcc.c ****       {
 1111              		.loc 1 616 59 discriminator 1 view .LVU339
 1112 03fe 012B     		cmp	r3, #1
 1113 0400 00D0     		beq	.LCB1047
 1114 0402 89E0     		b	.L101	@long jump
 1115              	.LCB1047:
 1116              	.L70:
 638:Drivers/STM32F0xx_HAL_Driver/Src/stm32f0xx_hal_rcc.c ****           }
 639:Drivers/STM32F0xx_HAL_Driver/Src/stm32f0xx_hal_rcc.c ****         } 
 640:Drivers/STM32F0xx_HAL_Driver/Src/stm32f0xx_hal_rcc.c ****       }
 641:Drivers/STM32F0xx_HAL_Driver/Src/stm32f0xx_hal_rcc.c ****       else
 642:Drivers/STM32F0xx_HAL_Driver/Src/stm32f0xx_hal_rcc.c ****       {
 643:Drivers/STM32F0xx_HAL_Driver/Src/stm32f0xx_hal_rcc.c ****         /* Disable the Internal High Speed oscillator (HSI48). */
 644:Drivers/STM32F0xx_HAL_Driver/Src/stm32f0xx_hal_rcc.c ****         __HAL_RCC_HSI48_DISABLE();
 645:Drivers/STM32F0xx_HAL_Driver/Src/stm32f0xx_hal_rcc.c **** 
 646:Drivers/STM32F0xx_HAL_Driver/Src/stm32f0xx_hal_rcc.c ****         /* Get Start Tick */
 647:Drivers/STM32F0xx_HAL_Driver/Src/stm32f0xx_hal_rcc.c ****         tickstart = HAL_GetTick();
 648:Drivers/STM32F0xx_HAL_Driver/Src/stm32f0xx_hal_rcc.c ****       
 649:Drivers/STM32F0xx_HAL_Driver/Src/stm32f0xx_hal_rcc.c ****         /* Wait till HSI48 is ready */  
 650:Drivers/STM32F0xx_HAL_Driver/Src/stm32f0xx_hal_rcc.c ****         while(__HAL_RCC_GET_FLAG(RCC_FLAG_HSI48RDY) != RESET)
 651:Drivers/STM32F0xx_HAL_Driver/Src/stm32f0xx_hal_rcc.c ****         {
 652:Drivers/STM32F0xx_HAL_Driver/Src/stm32f0xx_hal_rcc.c ****           if((HAL_GetTick() - tickstart) > HSI48_TIMEOUT_VALUE)
 653:Drivers/STM32F0xx_HAL_Driver/Src/stm32f0xx_hal_rcc.c ****           {
 654:Drivers/STM32F0xx_HAL_Driver/Src/stm32f0xx_hal_rcc.c ****             return HAL_TIMEOUT;
 655:Drivers/STM32F0xx_HAL_Driver/Src/stm32f0xx_hal_rcc.c ****           }
 656:Drivers/STM32F0xx_HAL_Driver/Src/stm32f0xx_hal_rcc.c ****         }
 657:Drivers/STM32F0xx_HAL_Driver/Src/stm32f0xx_hal_rcc.c ****       }
 658:Drivers/STM32F0xx_HAL_Driver/Src/stm32f0xx_hal_rcc.c ****     }
 659:Drivers/STM32F0xx_HAL_Driver/Src/stm32f0xx_hal_rcc.c ****   }
 660:Drivers/STM32F0xx_HAL_Driver/Src/stm32f0xx_hal_rcc.c **** #endif /* RCC_HSI48_SUPPORT */
 661:Drivers/STM32F0xx_HAL_Driver/Src/stm32f0xx_hal_rcc.c ****        
 662:Drivers/STM32F0xx_HAL_Driver/Src/stm32f0xx_hal_rcc.c ****   /*-------------------------------- PLL Configuration -----------------------*/
 663:Drivers/STM32F0xx_HAL_Driver/Src/stm32f0xx_hal_rcc.c ****   /* Check the parameters */
 664:Drivers/STM32F0xx_HAL_Driver/Src/stm32f0xx_hal_rcc.c ****   assert_param(IS_RCC_PLL(RCC_OscInitStruct->PLL.PLLState));
 1117              		.loc 1 664 3 is_stmt 1 view .LVU340
 665:Drivers/STM32F0xx_HAL_Driver/Src/stm32f0xx_hal_rcc.c ****   if ((RCC_OscInitStruct->PLL.PLLState) != RCC_PLL_NONE)
 1118              		.loc 1 665 3 view .LVU341
 1119              		.loc 1 665 30 is_stmt 0 view .LVU342
 1120 0404 636A     		ldr	r3, [r4, #36]
ARM GAS  /tmp/ccZr23YC.s 			page 35


 1121              		.loc 1 665 6 view .LVU343
 1122 0406 002B     		cmp	r3, #0
 1123 0408 00D1     		bne	.LCB1054
 1124 040a 87E0     		b	.L104	@long jump
 1125              	.LCB1054:
 666:Drivers/STM32F0xx_HAL_Driver/Src/stm32f0xx_hal_rcc.c ****   {
 667:Drivers/STM32F0xx_HAL_Driver/Src/stm32f0xx_hal_rcc.c ****     /* Check if the PLL is used as system clock or not */
 668:Drivers/STM32F0xx_HAL_Driver/Src/stm32f0xx_hal_rcc.c ****     if(__HAL_RCC_GET_SYSCLK_SOURCE() != RCC_SYSCLKSOURCE_STATUS_PLLCLK)
 1126              		.loc 1 668 5 is_stmt 1 view .LVU344
 1127              		.loc 1 668 8 is_stmt 0 view .LVU345
 1128 040c 484A     		ldr	r2, .L141
 1129 040e 5168     		ldr	r1, [r2, #4]
 1130 0410 0C22     		movs	r2, #12
 1131 0412 0A40     		ands	r2, r1
 1132              		.loc 1 668 7 view .LVU346
 1133 0414 082A     		cmp	r2, #8
 1134 0416 60D0     		beq	.L78
 669:Drivers/STM32F0xx_HAL_Driver/Src/stm32f0xx_hal_rcc.c ****     { 
 670:Drivers/STM32F0xx_HAL_Driver/Src/stm32f0xx_hal_rcc.c ****       if((RCC_OscInitStruct->PLL.PLLState) == RCC_PLL_ON)
 1135              		.loc 1 670 7 is_stmt 1 view .LVU347
 1136              		.loc 1 670 9 is_stmt 0 view .LVU348
 1137 0418 022B     		cmp	r3, #2
 1138 041a 25D0     		beq	.L135
 671:Drivers/STM32F0xx_HAL_Driver/Src/stm32f0xx_hal_rcc.c ****       {
 672:Drivers/STM32F0xx_HAL_Driver/Src/stm32f0xx_hal_rcc.c ****         /* Check the parameters */
 673:Drivers/STM32F0xx_HAL_Driver/Src/stm32f0xx_hal_rcc.c ****         assert_param(IS_RCC_PLLSOURCE(RCC_OscInitStruct->PLL.PLLSource));
 674:Drivers/STM32F0xx_HAL_Driver/Src/stm32f0xx_hal_rcc.c ****         assert_param(IS_RCC_PLL_MUL(RCC_OscInitStruct->PLL.PLLMUL));
 675:Drivers/STM32F0xx_HAL_Driver/Src/stm32f0xx_hal_rcc.c ****         assert_param(IS_RCC_PREDIV(RCC_OscInitStruct->PLL.PREDIV));
 676:Drivers/STM32F0xx_HAL_Driver/Src/stm32f0xx_hal_rcc.c ****   
 677:Drivers/STM32F0xx_HAL_Driver/Src/stm32f0xx_hal_rcc.c ****         /* Disable the main PLL. */
 678:Drivers/STM32F0xx_HAL_Driver/Src/stm32f0xx_hal_rcc.c ****         __HAL_RCC_PLL_DISABLE();
 679:Drivers/STM32F0xx_HAL_Driver/Src/stm32f0xx_hal_rcc.c ****         
 680:Drivers/STM32F0xx_HAL_Driver/Src/stm32f0xx_hal_rcc.c ****         /* Get Start Tick */
 681:Drivers/STM32F0xx_HAL_Driver/Src/stm32f0xx_hal_rcc.c ****         tickstart = HAL_GetTick();
 682:Drivers/STM32F0xx_HAL_Driver/Src/stm32f0xx_hal_rcc.c ****         
 683:Drivers/STM32F0xx_HAL_Driver/Src/stm32f0xx_hal_rcc.c ****         /* Wait till PLL is disabled */
 684:Drivers/STM32F0xx_HAL_Driver/Src/stm32f0xx_hal_rcc.c ****         while(__HAL_RCC_GET_FLAG(RCC_FLAG_PLLRDY)  != RESET)
 685:Drivers/STM32F0xx_HAL_Driver/Src/stm32f0xx_hal_rcc.c ****         {
 686:Drivers/STM32F0xx_HAL_Driver/Src/stm32f0xx_hal_rcc.c ****           if((HAL_GetTick() - tickstart ) > PLL_TIMEOUT_VALUE)
 687:Drivers/STM32F0xx_HAL_Driver/Src/stm32f0xx_hal_rcc.c ****           {
 688:Drivers/STM32F0xx_HAL_Driver/Src/stm32f0xx_hal_rcc.c ****             return HAL_TIMEOUT;
 689:Drivers/STM32F0xx_HAL_Driver/Src/stm32f0xx_hal_rcc.c ****           }
 690:Drivers/STM32F0xx_HAL_Driver/Src/stm32f0xx_hal_rcc.c ****         }
 691:Drivers/STM32F0xx_HAL_Driver/Src/stm32f0xx_hal_rcc.c **** 
 692:Drivers/STM32F0xx_HAL_Driver/Src/stm32f0xx_hal_rcc.c ****         /* Configure the main PLL clock source, predivider and multiplication factor. */
 693:Drivers/STM32F0xx_HAL_Driver/Src/stm32f0xx_hal_rcc.c ****         __HAL_RCC_PLL_CONFIG(RCC_OscInitStruct->PLL.PLLSource,
 694:Drivers/STM32F0xx_HAL_Driver/Src/stm32f0xx_hal_rcc.c ****                              RCC_OscInitStruct->PLL.PREDIV,
 695:Drivers/STM32F0xx_HAL_Driver/Src/stm32f0xx_hal_rcc.c ****                              RCC_OscInitStruct->PLL.PLLMUL);
 696:Drivers/STM32F0xx_HAL_Driver/Src/stm32f0xx_hal_rcc.c ****         /* Enable the main PLL. */
 697:Drivers/STM32F0xx_HAL_Driver/Src/stm32f0xx_hal_rcc.c ****         __HAL_RCC_PLL_ENABLE();
 698:Drivers/STM32F0xx_HAL_Driver/Src/stm32f0xx_hal_rcc.c ****         
 699:Drivers/STM32F0xx_HAL_Driver/Src/stm32f0xx_hal_rcc.c ****         /* Get Start Tick */
 700:Drivers/STM32F0xx_HAL_Driver/Src/stm32f0xx_hal_rcc.c ****         tickstart = HAL_GetTick();
 701:Drivers/STM32F0xx_HAL_Driver/Src/stm32f0xx_hal_rcc.c ****         
 702:Drivers/STM32F0xx_HAL_Driver/Src/stm32f0xx_hal_rcc.c ****         /* Wait till PLL is ready */
 703:Drivers/STM32F0xx_HAL_Driver/Src/stm32f0xx_hal_rcc.c ****         while(__HAL_RCC_GET_FLAG(RCC_FLAG_PLLRDY)  == RESET)
 704:Drivers/STM32F0xx_HAL_Driver/Src/stm32f0xx_hal_rcc.c ****         {
ARM GAS  /tmp/ccZr23YC.s 			page 36


 705:Drivers/STM32F0xx_HAL_Driver/Src/stm32f0xx_hal_rcc.c ****           if((HAL_GetTick() - tickstart ) > PLL_TIMEOUT_VALUE)
 706:Drivers/STM32F0xx_HAL_Driver/Src/stm32f0xx_hal_rcc.c ****           {
 707:Drivers/STM32F0xx_HAL_Driver/Src/stm32f0xx_hal_rcc.c ****             return HAL_TIMEOUT;
 708:Drivers/STM32F0xx_HAL_Driver/Src/stm32f0xx_hal_rcc.c ****           }
 709:Drivers/STM32F0xx_HAL_Driver/Src/stm32f0xx_hal_rcc.c ****         }
 710:Drivers/STM32F0xx_HAL_Driver/Src/stm32f0xx_hal_rcc.c ****       }
 711:Drivers/STM32F0xx_HAL_Driver/Src/stm32f0xx_hal_rcc.c ****       else
 712:Drivers/STM32F0xx_HAL_Driver/Src/stm32f0xx_hal_rcc.c ****       {
 713:Drivers/STM32F0xx_HAL_Driver/Src/stm32f0xx_hal_rcc.c ****         /* Disable the main PLL. */
 714:Drivers/STM32F0xx_HAL_Driver/Src/stm32f0xx_hal_rcc.c ****         __HAL_RCC_PLL_DISABLE();
 1139              		.loc 1 714 9 is_stmt 1 view .LVU349
 1140 041c 444A     		ldr	r2, .L141
 1141 041e 1368     		ldr	r3, [r2]
 1142 0420 4549     		ldr	r1, .L141+8
 1143 0422 0B40     		ands	r3, r1
 1144 0424 1360     		str	r3, [r2]
 715:Drivers/STM32F0xx_HAL_Driver/Src/stm32f0xx_hal_rcc.c ****  
 716:Drivers/STM32F0xx_HAL_Driver/Src/stm32f0xx_hal_rcc.c ****         /* Get Start Tick */
 717:Drivers/STM32F0xx_HAL_Driver/Src/stm32f0xx_hal_rcc.c ****         tickstart = HAL_GetTick();
 1145              		.loc 1 717 9 view .LVU350
 1146              		.loc 1 717 21 is_stmt 0 view .LVU351
 1147 0426 FFF7FEFF 		bl	HAL_GetTick
 1148              	.LVL70:
 1149 042a 0400     		movs	r4, r0
 1150              	.LVL71:
 718:Drivers/STM32F0xx_HAL_Driver/Src/stm32f0xx_hal_rcc.c ****         
 719:Drivers/STM32F0xx_HAL_Driver/Src/stm32f0xx_hal_rcc.c ****         /* Wait till PLL is disabled */  
 720:Drivers/STM32F0xx_HAL_Driver/Src/stm32f0xx_hal_rcc.c ****         while(__HAL_RCC_GET_FLAG(RCC_FLAG_PLLRDY)  != RESET)
 1151              		.loc 1 720 9 is_stmt 1 view .LVU352
 1152              	.L84:
 1153              		.loc 1 720 52 view .LVU353
 1154              		.loc 1 720 15 is_stmt 0 view .LVU354
 1155 042c 404B     		ldr	r3, .L141
 1156 042e 1B68     		ldr	r3, [r3]
 1157              		.loc 1 720 52 view .LVU355
 1158 0430 9B01     		lsls	r3, r3, #6
 1159 0432 50D5     		bpl	.L136
 721:Drivers/STM32F0xx_HAL_Driver/Src/stm32f0xx_hal_rcc.c ****         {
 722:Drivers/STM32F0xx_HAL_Driver/Src/stm32f0xx_hal_rcc.c ****           if((HAL_GetTick() - tickstart ) > PLL_TIMEOUT_VALUE)
 1160              		.loc 1 722 11 is_stmt 1 view .LVU356
 1161              		.loc 1 722 15 is_stmt 0 view .LVU357
 1162 0434 FFF7FEFF 		bl	HAL_GetTick
 1163              	.LVL72:
 1164              		.loc 1 722 29 discriminator 1 view .LVU358
 1165 0438 001B     		subs	r0, r0, r4
 1166              		.loc 1 722 13 discriminator 1 view .LVU359
 1167 043a 0228     		cmp	r0, #2
 1168 043c F6D9     		bls	.L84
 723:Drivers/STM32F0xx_HAL_Driver/Src/stm32f0xx_hal_rcc.c ****           {
 724:Drivers/STM32F0xx_HAL_Driver/Src/stm32f0xx_hal_rcc.c ****             return HAL_TIMEOUT;
 1169              		.loc 1 724 20 view .LVU360
 1170 043e 0320     		movs	r0, #3
 1171 0440 64E0     		b	.L20
 1172              	.LVL73:
 1173              	.L73:
 644:Drivers/STM32F0xx_HAL_Driver/Src/stm32f0xx_hal_rcc.c **** 
 1174              		.loc 1 644 9 is_stmt 1 view .LVU361
ARM GAS  /tmp/ccZr23YC.s 			page 37


 1175 0442 3B4A     		ldr	r2, .L141
 1176 0444 536B     		ldr	r3, [r2, #52]
 1177 0446 3D49     		ldr	r1, .L141+12
 1178 0448 0B40     		ands	r3, r1
 1179 044a 5363     		str	r3, [r2, #52]
 647:Drivers/STM32F0xx_HAL_Driver/Src/stm32f0xx_hal_rcc.c ****       
 1180              		.loc 1 647 9 view .LVU362
 647:Drivers/STM32F0xx_HAL_Driver/Src/stm32f0xx_hal_rcc.c ****       
 1181              		.loc 1 647 21 is_stmt 0 view .LVU363
 1182 044c FFF7FEFF 		bl	HAL_GetTick
 1183              	.LVL74:
 1184 0450 0500     		movs	r5, r0
 1185              	.LVL75:
 650:Drivers/STM32F0xx_HAL_Driver/Src/stm32f0xx_hal_rcc.c ****         {
 1186              		.loc 1 650 9 is_stmt 1 view .LVU364
 1187              	.L76:
 650:Drivers/STM32F0xx_HAL_Driver/Src/stm32f0xx_hal_rcc.c ****         {
 1188              		.loc 1 650 53 view .LVU365
 650:Drivers/STM32F0xx_HAL_Driver/Src/stm32f0xx_hal_rcc.c ****         {
 1189              		.loc 1 650 15 is_stmt 0 view .LVU366
 1190 0452 374B     		ldr	r3, .L141
 1191 0454 5B6B     		ldr	r3, [r3, #52]
 650:Drivers/STM32F0xx_HAL_Driver/Src/stm32f0xx_hal_rcc.c ****         {
 1192              		.loc 1 650 53 view .LVU367
 1193 0456 9B03     		lsls	r3, r3, #14
 1194 0458 D4D5     		bpl	.L70
 652:Drivers/STM32F0xx_HAL_Driver/Src/stm32f0xx_hal_rcc.c ****           {
 1195              		.loc 1 652 11 is_stmt 1 view .LVU368
 652:Drivers/STM32F0xx_HAL_Driver/Src/stm32f0xx_hal_rcc.c ****           {
 1196              		.loc 1 652 15 is_stmt 0 view .LVU369
 1197 045a FFF7FEFF 		bl	HAL_GetTick
 1198              	.LVL76:
 652:Drivers/STM32F0xx_HAL_Driver/Src/stm32f0xx_hal_rcc.c ****           {
 1199              		.loc 1 652 29 discriminator 1 view .LVU370
 1200 045e 401B     		subs	r0, r0, r5
 652:Drivers/STM32F0xx_HAL_Driver/Src/stm32f0xx_hal_rcc.c ****           {
 1201              		.loc 1 652 13 discriminator 1 view .LVU371
 1202 0460 0228     		cmp	r0, #2
 1203 0462 F6D9     		bls	.L76
 654:Drivers/STM32F0xx_HAL_Driver/Src/stm32f0xx_hal_rcc.c ****           }
 1204              		.loc 1 654 20 view .LVU372
 1205 0464 0320     		movs	r0, #3
 1206 0466 51E0     		b	.L20
 1207              	.LVL77:
 1208              	.L135:
 673:Drivers/STM32F0xx_HAL_Driver/Src/stm32f0xx_hal_rcc.c ****         assert_param(IS_RCC_PLL_MUL(RCC_OscInitStruct->PLL.PLLMUL));
 1209              		.loc 1 673 9 is_stmt 1 view .LVU373
 674:Drivers/STM32F0xx_HAL_Driver/Src/stm32f0xx_hal_rcc.c ****         assert_param(IS_RCC_PREDIV(RCC_OscInitStruct->PLL.PREDIV));
 1210              		.loc 1 674 9 view .LVU374
 675:Drivers/STM32F0xx_HAL_Driver/Src/stm32f0xx_hal_rcc.c ****   
 1211              		.loc 1 675 9 view .LVU375
 678:Drivers/STM32F0xx_HAL_Driver/Src/stm32f0xx_hal_rcc.c ****         
 1212              		.loc 1 678 9 view .LVU376
 1213 0468 314A     		ldr	r2, .L141
 1214 046a 1368     		ldr	r3, [r2]
 1215 046c 3249     		ldr	r1, .L141+8
 1216 046e 0B40     		ands	r3, r1
ARM GAS  /tmp/ccZr23YC.s 			page 38


 1217 0470 1360     		str	r3, [r2]
 681:Drivers/STM32F0xx_HAL_Driver/Src/stm32f0xx_hal_rcc.c ****         
 1218              		.loc 1 681 9 view .LVU377
 681:Drivers/STM32F0xx_HAL_Driver/Src/stm32f0xx_hal_rcc.c ****         
 1219              		.loc 1 681 21 is_stmt 0 view .LVU378
 1220 0472 FFF7FEFF 		bl	HAL_GetTick
 1221              	.LVL78:
 1222 0476 0500     		movs	r5, r0
 1223              	.LVL79:
 684:Drivers/STM32F0xx_HAL_Driver/Src/stm32f0xx_hal_rcc.c ****         {
 1224              		.loc 1 684 9 is_stmt 1 view .LVU379
 1225              	.L80:
 684:Drivers/STM32F0xx_HAL_Driver/Src/stm32f0xx_hal_rcc.c ****         {
 1226              		.loc 1 684 52 view .LVU380
 684:Drivers/STM32F0xx_HAL_Driver/Src/stm32f0xx_hal_rcc.c ****         {
 1227              		.loc 1 684 15 is_stmt 0 view .LVU381
 1228 0478 2D4B     		ldr	r3, .L141
 1229 047a 1B68     		ldr	r3, [r3]
 684:Drivers/STM32F0xx_HAL_Driver/Src/stm32f0xx_hal_rcc.c ****         {
 1230              		.loc 1 684 52 view .LVU382
 1231 047c 9B01     		lsls	r3, r3, #6
 1232 047e 06D5     		bpl	.L137
 686:Drivers/STM32F0xx_HAL_Driver/Src/stm32f0xx_hal_rcc.c ****           {
 1233              		.loc 1 686 11 is_stmt 1 view .LVU383
 686:Drivers/STM32F0xx_HAL_Driver/Src/stm32f0xx_hal_rcc.c ****           {
 1234              		.loc 1 686 15 is_stmt 0 view .LVU384
 1235 0480 FFF7FEFF 		bl	HAL_GetTick
 1236              	.LVL80:
 686:Drivers/STM32F0xx_HAL_Driver/Src/stm32f0xx_hal_rcc.c ****           {
 1237              		.loc 1 686 29 discriminator 1 view .LVU385
 1238 0484 401B     		subs	r0, r0, r5
 686:Drivers/STM32F0xx_HAL_Driver/Src/stm32f0xx_hal_rcc.c ****           {
 1239              		.loc 1 686 13 discriminator 1 view .LVU386
 1240 0486 0228     		cmp	r0, #2
 1241 0488 F6D9     		bls	.L80
 688:Drivers/STM32F0xx_HAL_Driver/Src/stm32f0xx_hal_rcc.c ****           }
 1242              		.loc 1 688 20 view .LVU387
 1243 048a 0320     		movs	r0, #3
 1244 048c 3EE0     		b	.L20
 1245              	.L137:
 693:Drivers/STM32F0xx_HAL_Driver/Src/stm32f0xx_hal_rcc.c ****                              RCC_OscInitStruct->PLL.PREDIV,
 1246              		.loc 1 693 9 is_stmt 1 view .LVU388
 693:Drivers/STM32F0xx_HAL_Driver/Src/stm32f0xx_hal_rcc.c ****                              RCC_OscInitStruct->PLL.PREDIV,
 1247              		.loc 1 693 9 view .LVU389
 1248 048e 284B     		ldr	r3, .L141
 1249 0490 DA6A     		ldr	r2, [r3, #44]
 1250 0492 0F21     		movs	r1, #15
 1251 0494 8A43     		bics	r2, r1
 1252 0496 216B     		ldr	r1, [r4, #48]
 1253 0498 0A43     		orrs	r2, r1
 1254 049a DA62     		str	r2, [r3, #44]
 693:Drivers/STM32F0xx_HAL_Driver/Src/stm32f0xx_hal_rcc.c ****                              RCC_OscInitStruct->PLL.PREDIV,
 1255              		.loc 1 693 9 view .LVU390
 1256 049c 5A68     		ldr	r2, [r3, #4]
 1257 049e 2849     		ldr	r1, .L141+16
 1258 04a0 0A40     		ands	r2, r1
 1259 04a2 E16A     		ldr	r1, [r4, #44]
ARM GAS  /tmp/ccZr23YC.s 			page 39


 1260 04a4 A06A     		ldr	r0, [r4, #40]
 1261 04a6 0143     		orrs	r1, r0
 1262 04a8 0A43     		orrs	r2, r1
 1263 04aa 5A60     		str	r2, [r3, #4]
 693:Drivers/STM32F0xx_HAL_Driver/Src/stm32f0xx_hal_rcc.c ****                              RCC_OscInitStruct->PLL.PREDIV,
 1264              		.loc 1 693 9 view .LVU391
 697:Drivers/STM32F0xx_HAL_Driver/Src/stm32f0xx_hal_rcc.c ****         
 1265              		.loc 1 697 9 view .LVU392
 1266 04ac 1968     		ldr	r1, [r3]
 1267 04ae 8022     		movs	r2, #128
 1268 04b0 5204     		lsls	r2, r2, #17
 1269 04b2 0A43     		orrs	r2, r1
 1270 04b4 1A60     		str	r2, [r3]
 700:Drivers/STM32F0xx_HAL_Driver/Src/stm32f0xx_hal_rcc.c ****         
 1271              		.loc 1 700 9 view .LVU393
 700:Drivers/STM32F0xx_HAL_Driver/Src/stm32f0xx_hal_rcc.c ****         
 1272              		.loc 1 700 21 is_stmt 0 view .LVU394
 1273 04b6 FFF7FEFF 		bl	HAL_GetTick
 1274              	.LVL81:
 1275 04ba 0400     		movs	r4, r0
 1276              	.LVL82:
 703:Drivers/STM32F0xx_HAL_Driver/Src/stm32f0xx_hal_rcc.c ****         {
 1277              		.loc 1 703 9 is_stmt 1 view .LVU395
 1278              	.L82:
 703:Drivers/STM32F0xx_HAL_Driver/Src/stm32f0xx_hal_rcc.c ****         {
 1279              		.loc 1 703 52 view .LVU396
 703:Drivers/STM32F0xx_HAL_Driver/Src/stm32f0xx_hal_rcc.c ****         {
 1280              		.loc 1 703 15 is_stmt 0 view .LVU397
 1281 04bc 1C4B     		ldr	r3, .L141
 1282 04be 1B68     		ldr	r3, [r3]
 703:Drivers/STM32F0xx_HAL_Driver/Src/stm32f0xx_hal_rcc.c ****         {
 1283              		.loc 1 703 52 view .LVU398
 1284 04c0 9B01     		lsls	r3, r3, #6
 1285 04c2 06D4     		bmi	.L138
 705:Drivers/STM32F0xx_HAL_Driver/Src/stm32f0xx_hal_rcc.c ****           {
 1286              		.loc 1 705 11 is_stmt 1 view .LVU399
 705:Drivers/STM32F0xx_HAL_Driver/Src/stm32f0xx_hal_rcc.c ****           {
 1287              		.loc 1 705 15 is_stmt 0 view .LVU400
 1288 04c4 FFF7FEFF 		bl	HAL_GetTick
 1289              	.LVL83:
 705:Drivers/STM32F0xx_HAL_Driver/Src/stm32f0xx_hal_rcc.c ****           {
 1290              		.loc 1 705 29 discriminator 1 view .LVU401
 1291 04c8 001B     		subs	r0, r0, r4
 705:Drivers/STM32F0xx_HAL_Driver/Src/stm32f0xx_hal_rcc.c ****           {
 1292              		.loc 1 705 13 discriminator 1 view .LVU402
 1293 04ca 0228     		cmp	r0, #2
 1294 04cc F6D9     		bls	.L82
 707:Drivers/STM32F0xx_HAL_Driver/Src/stm32f0xx_hal_rcc.c ****           }
 1295              		.loc 1 707 20 view .LVU403
 1296 04ce 0320     		movs	r0, #3
 1297 04d0 1CE0     		b	.L20
 1298              	.L138:
 725:Drivers/STM32F0xx_HAL_Driver/Src/stm32f0xx_hal_rcc.c ****           }
 726:Drivers/STM32F0xx_HAL_Driver/Src/stm32f0xx_hal_rcc.c ****         }
 727:Drivers/STM32F0xx_HAL_Driver/Src/stm32f0xx_hal_rcc.c ****       }
 728:Drivers/STM32F0xx_HAL_Driver/Src/stm32f0xx_hal_rcc.c ****     }
 729:Drivers/STM32F0xx_HAL_Driver/Src/stm32f0xx_hal_rcc.c ****     else
ARM GAS  /tmp/ccZr23YC.s 			page 40


 730:Drivers/STM32F0xx_HAL_Driver/Src/stm32f0xx_hal_rcc.c ****     {
 731:Drivers/STM32F0xx_HAL_Driver/Src/stm32f0xx_hal_rcc.c ****       /* Check if there is a request to disable the PLL used as System clock source */
 732:Drivers/STM32F0xx_HAL_Driver/Src/stm32f0xx_hal_rcc.c ****       if((RCC_OscInitStruct->PLL.PLLState) == RCC_PLL_OFF)
 733:Drivers/STM32F0xx_HAL_Driver/Src/stm32f0xx_hal_rcc.c ****       {
 734:Drivers/STM32F0xx_HAL_Driver/Src/stm32f0xx_hal_rcc.c ****         return HAL_ERROR;
 735:Drivers/STM32F0xx_HAL_Driver/Src/stm32f0xx_hal_rcc.c ****       }
 736:Drivers/STM32F0xx_HAL_Driver/Src/stm32f0xx_hal_rcc.c ****       else
 737:Drivers/STM32F0xx_HAL_Driver/Src/stm32f0xx_hal_rcc.c ****       {
 738:Drivers/STM32F0xx_HAL_Driver/Src/stm32f0xx_hal_rcc.c ****         /* Do not return HAL_ERROR if request repeats the current configuration */
 739:Drivers/STM32F0xx_HAL_Driver/Src/stm32f0xx_hal_rcc.c ****         pll_config  = RCC->CFGR;
 740:Drivers/STM32F0xx_HAL_Driver/Src/stm32f0xx_hal_rcc.c ****         pll_config2 = RCC->CFGR2;
 741:Drivers/STM32F0xx_HAL_Driver/Src/stm32f0xx_hal_rcc.c ****         if((READ_BIT(pll_config,  RCC_CFGR_PLLSRC)  != RCC_OscInitStruct->PLL.PLLSource) ||
 742:Drivers/STM32F0xx_HAL_Driver/Src/stm32f0xx_hal_rcc.c ****            (READ_BIT(pll_config2, RCC_CFGR2_PREDIV) != RCC_OscInitStruct->PLL.PREDIV)    ||
 743:Drivers/STM32F0xx_HAL_Driver/Src/stm32f0xx_hal_rcc.c ****            (READ_BIT(pll_config,  RCC_CFGR_PLLMUL)  != RCC_OscInitStruct->PLL.PLLMUL))
 744:Drivers/STM32F0xx_HAL_Driver/Src/stm32f0xx_hal_rcc.c ****         {
 745:Drivers/STM32F0xx_HAL_Driver/Src/stm32f0xx_hal_rcc.c ****           return HAL_ERROR;
 746:Drivers/STM32F0xx_HAL_Driver/Src/stm32f0xx_hal_rcc.c ****         }
 747:Drivers/STM32F0xx_HAL_Driver/Src/stm32f0xx_hal_rcc.c ****       }
 748:Drivers/STM32F0xx_HAL_Driver/Src/stm32f0xx_hal_rcc.c ****     }
 749:Drivers/STM32F0xx_HAL_Driver/Src/stm32f0xx_hal_rcc.c ****   }
 750:Drivers/STM32F0xx_HAL_Driver/Src/stm32f0xx_hal_rcc.c **** 
 751:Drivers/STM32F0xx_HAL_Driver/Src/stm32f0xx_hal_rcc.c ****   return HAL_OK;
 1299              		.loc 1 751 10 view .LVU404
 1300 04d2 0020     		movs	r0, #0
 1301 04d4 1AE0     		b	.L20
 1302              	.L136:
 1303              		.loc 1 751 10 view .LVU405
 1304 04d6 0020     		movs	r0, #0
 1305 04d8 18E0     		b	.L20
 1306              	.LVL84:
 1307              	.L78:
 732:Drivers/STM32F0xx_HAL_Driver/Src/stm32f0xx_hal_rcc.c ****       {
 1308              		.loc 1 732 7 is_stmt 1 view .LVU406
 732:Drivers/STM32F0xx_HAL_Driver/Src/stm32f0xx_hal_rcc.c ****       {
 1309              		.loc 1 732 9 is_stmt 0 view .LVU407
 1310 04da 012B     		cmp	r3, #1
 1311 04dc 20D0     		beq	.L108
 739:Drivers/STM32F0xx_HAL_Driver/Src/stm32f0xx_hal_rcc.c ****         pll_config2 = RCC->CFGR2;
 1312              		.loc 1 739 9 is_stmt 1 view .LVU408
 739:Drivers/STM32F0xx_HAL_Driver/Src/stm32f0xx_hal_rcc.c ****         pll_config2 = RCC->CFGR2;
 1313              		.loc 1 739 21 is_stmt 0 view .LVU409
 1314 04de 144B     		ldr	r3, .L141
 1315 04e0 5A68     		ldr	r2, [r3, #4]
 1316              	.LVL85:
 740:Drivers/STM32F0xx_HAL_Driver/Src/stm32f0xx_hal_rcc.c ****         if((READ_BIT(pll_config,  RCC_CFGR_PLLSRC)  != RCC_OscInitStruct->PLL.PLLSource) ||
 1317              		.loc 1 740 9 is_stmt 1 view .LVU410
 740:Drivers/STM32F0xx_HAL_Driver/Src/stm32f0xx_hal_rcc.c ****         if((READ_BIT(pll_config,  RCC_CFGR_PLLSRC)  != RCC_OscInitStruct->PLL.PLLSource) ||
 1318              		.loc 1 740 21 is_stmt 0 view .LVU411
 1319 04e2 D86A     		ldr	r0, [r3, #44]
 1320              	.LVL86:
 741:Drivers/STM32F0xx_HAL_Driver/Src/stm32f0xx_hal_rcc.c ****            (READ_BIT(pll_config2, RCC_CFGR2_PREDIV) != RCC_OscInitStruct->PLL.PREDIV)    ||
 1321              		.loc 1 741 9 is_stmt 1 view .LVU412
 741:Drivers/STM32F0xx_HAL_Driver/Src/stm32f0xx_hal_rcc.c ****            (READ_BIT(pll_config2, RCC_CFGR2_PREDIV) != RCC_OscInitStruct->PLL.PREDIV)    ||
 1322              		.loc 1 741 13 is_stmt 0 view .LVU413
 1323 04e4 C023     		movs	r3, #192
 1324 04e6 5B02     		lsls	r3, r3, #9
 1325 04e8 1340     		ands	r3, r2
ARM GAS  /tmp/ccZr23YC.s 			page 41


 741:Drivers/STM32F0xx_HAL_Driver/Src/stm32f0xx_hal_rcc.c ****            (READ_BIT(pll_config2, RCC_CFGR2_PREDIV) != RCC_OscInitStruct->PLL.PREDIV)    ||
 1326              		.loc 1 741 78 view .LVU414
 1327 04ea A16A     		ldr	r1, [r4, #40]
 741:Drivers/STM32F0xx_HAL_Driver/Src/stm32f0xx_hal_rcc.c ****            (READ_BIT(pll_config2, RCC_CFGR2_PREDIV) != RCC_OscInitStruct->PLL.PREDIV)    ||
 1328              		.loc 1 741 11 view .LVU415
 1329 04ec 8B42     		cmp	r3, r1
 1330 04ee 19D1     		bne	.L109
 742:Drivers/STM32F0xx_HAL_Driver/Src/stm32f0xx_hal_rcc.c ****            (READ_BIT(pll_config,  RCC_CFGR_PLLMUL)  != RCC_OscInitStruct->PLL.PLLMUL))
 1331              		.loc 1 742 13 view .LVU416
 1332 04f0 0F23     		movs	r3, #15
 1333 04f2 0340     		ands	r3, r0
 742:Drivers/STM32F0xx_HAL_Driver/Src/stm32f0xx_hal_rcc.c ****            (READ_BIT(pll_config,  RCC_CFGR_PLLMUL)  != RCC_OscInitStruct->PLL.PLLMUL))
 1334              		.loc 1 742 78 view .LVU417
 1335 04f4 216B     		ldr	r1, [r4, #48]
 741:Drivers/STM32F0xx_HAL_Driver/Src/stm32f0xx_hal_rcc.c ****            (READ_BIT(pll_config2, RCC_CFGR2_PREDIV) != RCC_OscInitStruct->PLL.PREDIV)    ||
 1336              		.loc 1 741 90 discriminator 1 view .LVU418
 1337 04f6 8B42     		cmp	r3, r1
 1338 04f8 16D1     		bne	.L110
 743:Drivers/STM32F0xx_HAL_Driver/Src/stm32f0xx_hal_rcc.c ****         {
 1339              		.loc 1 743 13 view .LVU419
 1340 04fa F023     		movs	r3, #240
 1341 04fc 9B03     		lsls	r3, r3, #14
 1342 04fe 1A40     		ands	r2, r3
 1343              	.LVL87:
 743:Drivers/STM32F0xx_HAL_Driver/Src/stm32f0xx_hal_rcc.c ****         {
 1344              		.loc 1 743 78 view .LVU420
 1345 0500 E36A     		ldr	r3, [r4, #44]
 742:Drivers/STM32F0xx_HAL_Driver/Src/stm32f0xx_hal_rcc.c ****            (READ_BIT(pll_config,  RCC_CFGR_PLLMUL)  != RCC_OscInitStruct->PLL.PLLMUL))
 1346              		.loc 1 742 90 view .LVU421
 1347 0502 9A42     		cmp	r2, r3
 1348 0504 12D1     		bne	.L111
 1349              		.loc 1 751 10 view .LVU422
 1350 0506 0020     		movs	r0, #0
 1351              	.LVL88:
 1352              		.loc 1 751 10 view .LVU423
 1353 0508 00E0     		b	.L20
 1354              	.LVL89:
 1355              	.L86:
 307:Drivers/STM32F0xx_HAL_Driver/Src/stm32f0xx_hal_rcc.c ****   }
 1356              		.loc 1 307 12 view .LVU424
 1357 050a 0120     		movs	r0, #1
 1358              	.LVL90:
 1359              	.L20:
 752:Drivers/STM32F0xx_HAL_Driver/Src/stm32f0xx_hal_rcc.c **** }
 1360              		.loc 1 752 1 view .LVU425
 1361 050c 02B0     		add	sp, sp, #8
 1362              		@ sp needed
 1363 050e 70BD     		pop	{r4, r5, r6, pc}
 1364              	.LVL91:
 1365              	.L124:
 325:Drivers/STM32F0xx_HAL_Driver/Src/stm32f0xx_hal_rcc.c ****       }
 1366              		.loc 1 325 16 view .LVU426
 1367 0510 0120     		movs	r0, #1
 1368              	.LVL92:
 325:Drivers/STM32F0xx_HAL_Driver/Src/stm32f0xx_hal_rcc.c ****       }
 1369              		.loc 1 325 16 view .LVU427
 1370 0512 FBE7     		b	.L20
ARM GAS  /tmp/ccZr23YC.s 			page 42


 1371              	.L90:
 379:Drivers/STM32F0xx_HAL_Driver/Src/stm32f0xx_hal_rcc.c ****       }
 1372              		.loc 1 379 16 view .LVU428
 1373 0514 0120     		movs	r0, #1
 1374 0516 F9E7     		b	.L20
 1375              	.L101:
 618:Drivers/STM32F0xx_HAL_Driver/Src/stm32f0xx_hal_rcc.c ****       }
 1376              		.loc 1 618 16 view .LVU429
 1377 0518 0120     		movs	r0, #1
 1378 051a F7E7     		b	.L20
 1379              	.L104:
 751:Drivers/STM32F0xx_HAL_Driver/Src/stm32f0xx_hal_rcc.c **** }
 1380              		.loc 1 751 10 view .LVU430
 1381 051c 0020     		movs	r0, #0
 1382 051e F5E7     		b	.L20
 1383              	.L108:
 734:Drivers/STM32F0xx_HAL_Driver/Src/stm32f0xx_hal_rcc.c ****       }
 1384              		.loc 1 734 16 view .LVU431
 1385 0520 0120     		movs	r0, #1
 1386 0522 F3E7     		b	.L20
 1387              	.LVL93:
 1388              	.L109:
 745:Drivers/STM32F0xx_HAL_Driver/Src/stm32f0xx_hal_rcc.c ****         }
 1389              		.loc 1 745 18 view .LVU432
 1390 0524 0120     		movs	r0, #1
 1391              	.LVL94:
 745:Drivers/STM32F0xx_HAL_Driver/Src/stm32f0xx_hal_rcc.c ****         }
 1392              		.loc 1 745 18 view .LVU433
 1393 0526 F1E7     		b	.L20
 1394              	.LVL95:
 1395              	.L110:
 745:Drivers/STM32F0xx_HAL_Driver/Src/stm32f0xx_hal_rcc.c ****         }
 1396              		.loc 1 745 18 view .LVU434
 1397 0528 0120     		movs	r0, #1
 1398              	.LVL96:
 745:Drivers/STM32F0xx_HAL_Driver/Src/stm32f0xx_hal_rcc.c ****         }
 1399              		.loc 1 745 18 view .LVU435
 1400 052a EFE7     		b	.L20
 1401              	.LVL97:
 1402              	.L111:
 745:Drivers/STM32F0xx_HAL_Driver/Src/stm32f0xx_hal_rcc.c ****         }
 1403              		.loc 1 745 18 view .LVU436
 1404 052c 0120     		movs	r0, #1
 1405              	.LVL98:
 745:Drivers/STM32F0xx_HAL_Driver/Src/stm32f0xx_hal_rcc.c ****         }
 1406              		.loc 1 745 18 view .LVU437
 1407 052e EDE7     		b	.L20
 1408              	.L142:
 1409              		.align	2
 1410              	.L141:
 1411 0530 00100240 		.word	1073876992
 1412 0534 FFFFFFEF 		.word	-268435457
 1413 0538 FFFFFFFE 		.word	-16777217
 1414 053c FFFFFEFF 		.word	-65537
 1415 0540 FF7FC2FF 		.word	-4030465
 1416              		.cfi_endproc
 1417              	.LFE41:
ARM GAS  /tmp/ccZr23YC.s 			page 43


 1419              		.section	.text.HAL_RCC_MCOConfig,"ax",%progbits
 1420              		.align	1
 1421              		.global	HAL_RCC_MCOConfig
 1422              		.syntax unified
 1423              		.code	16
 1424              		.thumb_func
 1426              	HAL_RCC_MCOConfig:
 1427              	.LVL99:
 1428              	.LFB43:
 753:Drivers/STM32F0xx_HAL_Driver/Src/stm32f0xx_hal_rcc.c **** 
 754:Drivers/STM32F0xx_HAL_Driver/Src/stm32f0xx_hal_rcc.c **** /**
 755:Drivers/STM32F0xx_HAL_Driver/Src/stm32f0xx_hal_rcc.c ****   * @brief  Initializes the CPU, AHB and APB buses clocks according to the specified 
 756:Drivers/STM32F0xx_HAL_Driver/Src/stm32f0xx_hal_rcc.c ****   *         parameters in the RCC_ClkInitStruct.
 757:Drivers/STM32F0xx_HAL_Driver/Src/stm32f0xx_hal_rcc.c ****   * @param  RCC_ClkInitStruct pointer to an RCC_OscInitTypeDef structure that
 758:Drivers/STM32F0xx_HAL_Driver/Src/stm32f0xx_hal_rcc.c ****   *         contains the configuration information for the RCC peripheral.
 759:Drivers/STM32F0xx_HAL_Driver/Src/stm32f0xx_hal_rcc.c ****   * @param  FLatency FLASH Latency                   
 760:Drivers/STM32F0xx_HAL_Driver/Src/stm32f0xx_hal_rcc.c ****   *          The value of this parameter depend on device used within the same series
 761:Drivers/STM32F0xx_HAL_Driver/Src/stm32f0xx_hal_rcc.c ****   * @note   The SystemCoreClock CMSIS variable is used to store System Clock Frequency 
 762:Drivers/STM32F0xx_HAL_Driver/Src/stm32f0xx_hal_rcc.c ****   *         and updated by @ref HAL_RCC_GetHCLKFreq() function called within this function
 763:Drivers/STM32F0xx_HAL_Driver/Src/stm32f0xx_hal_rcc.c ****   *
 764:Drivers/STM32F0xx_HAL_Driver/Src/stm32f0xx_hal_rcc.c ****   * @note   The HSI is used (enabled by hardware) as system clock source after
 765:Drivers/STM32F0xx_HAL_Driver/Src/stm32f0xx_hal_rcc.c ****   *         start-up from Reset, wake-up from STOP and STANDBY mode, or in case
 766:Drivers/STM32F0xx_HAL_Driver/Src/stm32f0xx_hal_rcc.c ****   *         of failure of the HSE used directly or indirectly as system clock
 767:Drivers/STM32F0xx_HAL_Driver/Src/stm32f0xx_hal_rcc.c ****   *         (if the Clock Security System CSS is enabled).
 768:Drivers/STM32F0xx_HAL_Driver/Src/stm32f0xx_hal_rcc.c ****   *           
 769:Drivers/STM32F0xx_HAL_Driver/Src/stm32f0xx_hal_rcc.c ****   * @note   A switch from one clock source to another occurs only if the target
 770:Drivers/STM32F0xx_HAL_Driver/Src/stm32f0xx_hal_rcc.c ****   *         clock source is ready (clock stable after start-up delay or PLL locked). 
 771:Drivers/STM32F0xx_HAL_Driver/Src/stm32f0xx_hal_rcc.c ****   *         If a clock source which is not yet ready is selected, the switch will
 772:Drivers/STM32F0xx_HAL_Driver/Src/stm32f0xx_hal_rcc.c ****   *         occur when the clock source will be ready. 
 773:Drivers/STM32F0xx_HAL_Driver/Src/stm32f0xx_hal_rcc.c ****   *         You can use @ref HAL_RCC_GetClockConfig() function to know which clock is
 774:Drivers/STM32F0xx_HAL_Driver/Src/stm32f0xx_hal_rcc.c ****   *         currently used as system clock source.
 775:Drivers/STM32F0xx_HAL_Driver/Src/stm32f0xx_hal_rcc.c ****   * @retval HAL status
 776:Drivers/STM32F0xx_HAL_Driver/Src/stm32f0xx_hal_rcc.c ****   */
 777:Drivers/STM32F0xx_HAL_Driver/Src/stm32f0xx_hal_rcc.c **** HAL_StatusTypeDef HAL_RCC_ClockConfig(RCC_ClkInitTypeDef  *RCC_ClkInitStruct, uint32_t FLatency)
 778:Drivers/STM32F0xx_HAL_Driver/Src/stm32f0xx_hal_rcc.c **** {
 779:Drivers/STM32F0xx_HAL_Driver/Src/stm32f0xx_hal_rcc.c ****   uint32_t tickstart;
 780:Drivers/STM32F0xx_HAL_Driver/Src/stm32f0xx_hal_rcc.c **** 
 781:Drivers/STM32F0xx_HAL_Driver/Src/stm32f0xx_hal_rcc.c ****   /* Check Null pointer */
 782:Drivers/STM32F0xx_HAL_Driver/Src/stm32f0xx_hal_rcc.c ****   if(RCC_ClkInitStruct == NULL)
 783:Drivers/STM32F0xx_HAL_Driver/Src/stm32f0xx_hal_rcc.c ****   {
 784:Drivers/STM32F0xx_HAL_Driver/Src/stm32f0xx_hal_rcc.c ****     return HAL_ERROR;
 785:Drivers/STM32F0xx_HAL_Driver/Src/stm32f0xx_hal_rcc.c ****   }
 786:Drivers/STM32F0xx_HAL_Driver/Src/stm32f0xx_hal_rcc.c **** 
 787:Drivers/STM32F0xx_HAL_Driver/Src/stm32f0xx_hal_rcc.c ****   /* Check the parameters */
 788:Drivers/STM32F0xx_HAL_Driver/Src/stm32f0xx_hal_rcc.c ****   assert_param(IS_RCC_CLOCKTYPE(RCC_ClkInitStruct->ClockType));
 789:Drivers/STM32F0xx_HAL_Driver/Src/stm32f0xx_hal_rcc.c ****   assert_param(IS_FLASH_LATENCY(FLatency));
 790:Drivers/STM32F0xx_HAL_Driver/Src/stm32f0xx_hal_rcc.c **** 
 791:Drivers/STM32F0xx_HAL_Driver/Src/stm32f0xx_hal_rcc.c ****   /* To correctly read data from FLASH memory, the number of wait states (LATENCY) 
 792:Drivers/STM32F0xx_HAL_Driver/Src/stm32f0xx_hal_rcc.c ****   must be correctly programmed according to the frequency of the CPU clock 
 793:Drivers/STM32F0xx_HAL_Driver/Src/stm32f0xx_hal_rcc.c ****     (HCLK) of the device. */
 794:Drivers/STM32F0xx_HAL_Driver/Src/stm32f0xx_hal_rcc.c **** 
 795:Drivers/STM32F0xx_HAL_Driver/Src/stm32f0xx_hal_rcc.c ****   /* Increasing the number of wait states because of higher CPU frequency */
 796:Drivers/STM32F0xx_HAL_Driver/Src/stm32f0xx_hal_rcc.c ****   if(FLatency > __HAL_FLASH_GET_LATENCY())
 797:Drivers/STM32F0xx_HAL_Driver/Src/stm32f0xx_hal_rcc.c ****   {    
 798:Drivers/STM32F0xx_HAL_Driver/Src/stm32f0xx_hal_rcc.c ****     /* Program the new number of wait states to the LATENCY bits in the FLASH_ACR register */
 799:Drivers/STM32F0xx_HAL_Driver/Src/stm32f0xx_hal_rcc.c ****     __HAL_FLASH_SET_LATENCY(FLatency);
 800:Drivers/STM32F0xx_HAL_Driver/Src/stm32f0xx_hal_rcc.c ****     
ARM GAS  /tmp/ccZr23YC.s 			page 44


 801:Drivers/STM32F0xx_HAL_Driver/Src/stm32f0xx_hal_rcc.c ****     /* Check that the new number of wait states is taken into account to access the Flash
 802:Drivers/STM32F0xx_HAL_Driver/Src/stm32f0xx_hal_rcc.c ****     memory by reading the FLASH_ACR register */
 803:Drivers/STM32F0xx_HAL_Driver/Src/stm32f0xx_hal_rcc.c ****     if(__HAL_FLASH_GET_LATENCY() != FLatency)
 804:Drivers/STM32F0xx_HAL_Driver/Src/stm32f0xx_hal_rcc.c ****     {
 805:Drivers/STM32F0xx_HAL_Driver/Src/stm32f0xx_hal_rcc.c ****       return HAL_ERROR;
 806:Drivers/STM32F0xx_HAL_Driver/Src/stm32f0xx_hal_rcc.c ****     }
 807:Drivers/STM32F0xx_HAL_Driver/Src/stm32f0xx_hal_rcc.c ****   }
 808:Drivers/STM32F0xx_HAL_Driver/Src/stm32f0xx_hal_rcc.c **** 
 809:Drivers/STM32F0xx_HAL_Driver/Src/stm32f0xx_hal_rcc.c ****   /*-------------------------- HCLK Configuration --------------------------*/
 810:Drivers/STM32F0xx_HAL_Driver/Src/stm32f0xx_hal_rcc.c ****   if(((RCC_ClkInitStruct->ClockType) & RCC_CLOCKTYPE_HCLK) == RCC_CLOCKTYPE_HCLK)
 811:Drivers/STM32F0xx_HAL_Driver/Src/stm32f0xx_hal_rcc.c ****   {
 812:Drivers/STM32F0xx_HAL_Driver/Src/stm32f0xx_hal_rcc.c ****     /* Set the highest APB divider in order to ensure that we do not go through
 813:Drivers/STM32F0xx_HAL_Driver/Src/stm32f0xx_hal_rcc.c ****        a non-spec phase whatever we decrease or increase HCLK. */
 814:Drivers/STM32F0xx_HAL_Driver/Src/stm32f0xx_hal_rcc.c ****     if(((RCC_ClkInitStruct->ClockType) & RCC_CLOCKTYPE_PCLK1) == RCC_CLOCKTYPE_PCLK1)
 815:Drivers/STM32F0xx_HAL_Driver/Src/stm32f0xx_hal_rcc.c ****     {
 816:Drivers/STM32F0xx_HAL_Driver/Src/stm32f0xx_hal_rcc.c ****       MODIFY_REG(RCC->CFGR, RCC_CFGR_PPRE, RCC_HCLK_DIV16);
 817:Drivers/STM32F0xx_HAL_Driver/Src/stm32f0xx_hal_rcc.c ****     }
 818:Drivers/STM32F0xx_HAL_Driver/Src/stm32f0xx_hal_rcc.c **** 
 819:Drivers/STM32F0xx_HAL_Driver/Src/stm32f0xx_hal_rcc.c ****     /* Set the new HCLK clock divider */
 820:Drivers/STM32F0xx_HAL_Driver/Src/stm32f0xx_hal_rcc.c ****     assert_param(IS_RCC_HCLK(RCC_ClkInitStruct->AHBCLKDivider));
 821:Drivers/STM32F0xx_HAL_Driver/Src/stm32f0xx_hal_rcc.c ****     MODIFY_REG(RCC->CFGR, RCC_CFGR_HPRE, RCC_ClkInitStruct->AHBCLKDivider);
 822:Drivers/STM32F0xx_HAL_Driver/Src/stm32f0xx_hal_rcc.c ****   }
 823:Drivers/STM32F0xx_HAL_Driver/Src/stm32f0xx_hal_rcc.c **** 
 824:Drivers/STM32F0xx_HAL_Driver/Src/stm32f0xx_hal_rcc.c ****   /*------------------------- SYSCLK Configuration ---------------------------*/ 
 825:Drivers/STM32F0xx_HAL_Driver/Src/stm32f0xx_hal_rcc.c ****   if(((RCC_ClkInitStruct->ClockType) & RCC_CLOCKTYPE_SYSCLK) == RCC_CLOCKTYPE_SYSCLK)
 826:Drivers/STM32F0xx_HAL_Driver/Src/stm32f0xx_hal_rcc.c ****   {
 827:Drivers/STM32F0xx_HAL_Driver/Src/stm32f0xx_hal_rcc.c ****     assert_param(IS_RCC_SYSCLKSOURCE(RCC_ClkInitStruct->SYSCLKSource));
 828:Drivers/STM32F0xx_HAL_Driver/Src/stm32f0xx_hal_rcc.c ****     
 829:Drivers/STM32F0xx_HAL_Driver/Src/stm32f0xx_hal_rcc.c ****     /* HSE is selected as System Clock Source */
 830:Drivers/STM32F0xx_HAL_Driver/Src/stm32f0xx_hal_rcc.c ****     if(RCC_ClkInitStruct->SYSCLKSource == RCC_SYSCLKSOURCE_HSE)
 831:Drivers/STM32F0xx_HAL_Driver/Src/stm32f0xx_hal_rcc.c ****     {
 832:Drivers/STM32F0xx_HAL_Driver/Src/stm32f0xx_hal_rcc.c ****       /* Check the HSE ready flag */  
 833:Drivers/STM32F0xx_HAL_Driver/Src/stm32f0xx_hal_rcc.c ****       if(__HAL_RCC_GET_FLAG(RCC_FLAG_HSERDY) == RESET)
 834:Drivers/STM32F0xx_HAL_Driver/Src/stm32f0xx_hal_rcc.c ****       {
 835:Drivers/STM32F0xx_HAL_Driver/Src/stm32f0xx_hal_rcc.c ****         return HAL_ERROR;
 836:Drivers/STM32F0xx_HAL_Driver/Src/stm32f0xx_hal_rcc.c ****       }
 837:Drivers/STM32F0xx_HAL_Driver/Src/stm32f0xx_hal_rcc.c ****     }
 838:Drivers/STM32F0xx_HAL_Driver/Src/stm32f0xx_hal_rcc.c ****     /* PLL is selected as System Clock Source */
 839:Drivers/STM32F0xx_HAL_Driver/Src/stm32f0xx_hal_rcc.c ****     else if(RCC_ClkInitStruct->SYSCLKSource == RCC_SYSCLKSOURCE_PLLCLK)
 840:Drivers/STM32F0xx_HAL_Driver/Src/stm32f0xx_hal_rcc.c ****     {
 841:Drivers/STM32F0xx_HAL_Driver/Src/stm32f0xx_hal_rcc.c ****       /* Check the PLL ready flag */  
 842:Drivers/STM32F0xx_HAL_Driver/Src/stm32f0xx_hal_rcc.c ****       if(__HAL_RCC_GET_FLAG(RCC_FLAG_PLLRDY) == RESET)
 843:Drivers/STM32F0xx_HAL_Driver/Src/stm32f0xx_hal_rcc.c ****       {
 844:Drivers/STM32F0xx_HAL_Driver/Src/stm32f0xx_hal_rcc.c ****         return HAL_ERROR;
 845:Drivers/STM32F0xx_HAL_Driver/Src/stm32f0xx_hal_rcc.c ****       }
 846:Drivers/STM32F0xx_HAL_Driver/Src/stm32f0xx_hal_rcc.c ****     }
 847:Drivers/STM32F0xx_HAL_Driver/Src/stm32f0xx_hal_rcc.c **** #if defined(RCC_CFGR_SWS_HSI48)
 848:Drivers/STM32F0xx_HAL_Driver/Src/stm32f0xx_hal_rcc.c ****     /* HSI48 is selected as System Clock Source */
 849:Drivers/STM32F0xx_HAL_Driver/Src/stm32f0xx_hal_rcc.c ****     else if(RCC_ClkInitStruct->SYSCLKSource == RCC_SYSCLKSOURCE_HSI48)
 850:Drivers/STM32F0xx_HAL_Driver/Src/stm32f0xx_hal_rcc.c ****     {
 851:Drivers/STM32F0xx_HAL_Driver/Src/stm32f0xx_hal_rcc.c ****       /* Check the HSI48 ready flag */
 852:Drivers/STM32F0xx_HAL_Driver/Src/stm32f0xx_hal_rcc.c ****       if(__HAL_RCC_GET_FLAG(RCC_FLAG_HSI48RDY) == RESET)
 853:Drivers/STM32F0xx_HAL_Driver/Src/stm32f0xx_hal_rcc.c ****       {
 854:Drivers/STM32F0xx_HAL_Driver/Src/stm32f0xx_hal_rcc.c ****         return HAL_ERROR;
 855:Drivers/STM32F0xx_HAL_Driver/Src/stm32f0xx_hal_rcc.c ****       }
 856:Drivers/STM32F0xx_HAL_Driver/Src/stm32f0xx_hal_rcc.c ****     }
 857:Drivers/STM32F0xx_HAL_Driver/Src/stm32f0xx_hal_rcc.c **** #endif /* RCC_CFGR_SWS_HSI48 */
ARM GAS  /tmp/ccZr23YC.s 			page 45


 858:Drivers/STM32F0xx_HAL_Driver/Src/stm32f0xx_hal_rcc.c ****     /* HSI is selected as System Clock Source */
 859:Drivers/STM32F0xx_HAL_Driver/Src/stm32f0xx_hal_rcc.c ****     else
 860:Drivers/STM32F0xx_HAL_Driver/Src/stm32f0xx_hal_rcc.c ****     {
 861:Drivers/STM32F0xx_HAL_Driver/Src/stm32f0xx_hal_rcc.c ****       /* Check the HSI ready flag */  
 862:Drivers/STM32F0xx_HAL_Driver/Src/stm32f0xx_hal_rcc.c ****       if(__HAL_RCC_GET_FLAG(RCC_FLAG_HSIRDY) == RESET)
 863:Drivers/STM32F0xx_HAL_Driver/Src/stm32f0xx_hal_rcc.c ****       {
 864:Drivers/STM32F0xx_HAL_Driver/Src/stm32f0xx_hal_rcc.c ****         return HAL_ERROR;
 865:Drivers/STM32F0xx_HAL_Driver/Src/stm32f0xx_hal_rcc.c ****       }
 866:Drivers/STM32F0xx_HAL_Driver/Src/stm32f0xx_hal_rcc.c ****     }
 867:Drivers/STM32F0xx_HAL_Driver/Src/stm32f0xx_hal_rcc.c ****     __HAL_RCC_SYSCLK_CONFIG(RCC_ClkInitStruct->SYSCLKSource);
 868:Drivers/STM32F0xx_HAL_Driver/Src/stm32f0xx_hal_rcc.c **** 
 869:Drivers/STM32F0xx_HAL_Driver/Src/stm32f0xx_hal_rcc.c ****     /* Get Start Tick */
 870:Drivers/STM32F0xx_HAL_Driver/Src/stm32f0xx_hal_rcc.c ****     tickstart = HAL_GetTick();
 871:Drivers/STM32F0xx_HAL_Driver/Src/stm32f0xx_hal_rcc.c ****     
 872:Drivers/STM32F0xx_HAL_Driver/Src/stm32f0xx_hal_rcc.c ****     while (__HAL_RCC_GET_SYSCLK_SOURCE() != (RCC_ClkInitStruct->SYSCLKSource << RCC_CFGR_SWS_Pos))
 873:Drivers/STM32F0xx_HAL_Driver/Src/stm32f0xx_hal_rcc.c ****     {
 874:Drivers/STM32F0xx_HAL_Driver/Src/stm32f0xx_hal_rcc.c ****       if((HAL_GetTick() - tickstart ) > CLOCKSWITCH_TIMEOUT_VALUE)
 875:Drivers/STM32F0xx_HAL_Driver/Src/stm32f0xx_hal_rcc.c ****       {
 876:Drivers/STM32F0xx_HAL_Driver/Src/stm32f0xx_hal_rcc.c ****         return HAL_TIMEOUT;
 877:Drivers/STM32F0xx_HAL_Driver/Src/stm32f0xx_hal_rcc.c ****       }
 878:Drivers/STM32F0xx_HAL_Driver/Src/stm32f0xx_hal_rcc.c ****     }
 879:Drivers/STM32F0xx_HAL_Driver/Src/stm32f0xx_hal_rcc.c ****   }
 880:Drivers/STM32F0xx_HAL_Driver/Src/stm32f0xx_hal_rcc.c **** 
 881:Drivers/STM32F0xx_HAL_Driver/Src/stm32f0xx_hal_rcc.c ****   /* Decreasing the number of wait states because of lower CPU frequency */
 882:Drivers/STM32F0xx_HAL_Driver/Src/stm32f0xx_hal_rcc.c ****   if(FLatency < __HAL_FLASH_GET_LATENCY())
 883:Drivers/STM32F0xx_HAL_Driver/Src/stm32f0xx_hal_rcc.c ****   {    
 884:Drivers/STM32F0xx_HAL_Driver/Src/stm32f0xx_hal_rcc.c ****     /* Program the new number of wait states to the LATENCY bits in the FLASH_ACR register */
 885:Drivers/STM32F0xx_HAL_Driver/Src/stm32f0xx_hal_rcc.c ****     __HAL_FLASH_SET_LATENCY(FLatency);
 886:Drivers/STM32F0xx_HAL_Driver/Src/stm32f0xx_hal_rcc.c ****     
 887:Drivers/STM32F0xx_HAL_Driver/Src/stm32f0xx_hal_rcc.c ****     /* Check that the new number of wait states is taken into account to access the Flash
 888:Drivers/STM32F0xx_HAL_Driver/Src/stm32f0xx_hal_rcc.c ****     memory by reading the FLASH_ACR register */
 889:Drivers/STM32F0xx_HAL_Driver/Src/stm32f0xx_hal_rcc.c ****     if(__HAL_FLASH_GET_LATENCY() != FLatency)
 890:Drivers/STM32F0xx_HAL_Driver/Src/stm32f0xx_hal_rcc.c ****     {
 891:Drivers/STM32F0xx_HAL_Driver/Src/stm32f0xx_hal_rcc.c ****       return HAL_ERROR;
 892:Drivers/STM32F0xx_HAL_Driver/Src/stm32f0xx_hal_rcc.c ****     }
 893:Drivers/STM32F0xx_HAL_Driver/Src/stm32f0xx_hal_rcc.c ****   }    
 894:Drivers/STM32F0xx_HAL_Driver/Src/stm32f0xx_hal_rcc.c **** 
 895:Drivers/STM32F0xx_HAL_Driver/Src/stm32f0xx_hal_rcc.c ****   /*-------------------------- PCLK1 Configuration ---------------------------*/ 
 896:Drivers/STM32F0xx_HAL_Driver/Src/stm32f0xx_hal_rcc.c ****   if(((RCC_ClkInitStruct->ClockType) & RCC_CLOCKTYPE_PCLK1) == RCC_CLOCKTYPE_PCLK1)
 897:Drivers/STM32F0xx_HAL_Driver/Src/stm32f0xx_hal_rcc.c ****   {
 898:Drivers/STM32F0xx_HAL_Driver/Src/stm32f0xx_hal_rcc.c ****     assert_param(IS_RCC_PCLK(RCC_ClkInitStruct->APB1CLKDivider));
 899:Drivers/STM32F0xx_HAL_Driver/Src/stm32f0xx_hal_rcc.c ****     MODIFY_REG(RCC->CFGR, RCC_CFGR_PPRE, RCC_ClkInitStruct->APB1CLKDivider);
 900:Drivers/STM32F0xx_HAL_Driver/Src/stm32f0xx_hal_rcc.c ****   }
 901:Drivers/STM32F0xx_HAL_Driver/Src/stm32f0xx_hal_rcc.c ****   
 902:Drivers/STM32F0xx_HAL_Driver/Src/stm32f0xx_hal_rcc.c ****   /* Update the SystemCoreClock global variable */
 903:Drivers/STM32F0xx_HAL_Driver/Src/stm32f0xx_hal_rcc.c ****   SystemCoreClock = HAL_RCC_GetSysClockFreq() >> AHBPrescTable[(RCC->CFGR & RCC_CFGR_HPRE)>> RCC_CF
 904:Drivers/STM32F0xx_HAL_Driver/Src/stm32f0xx_hal_rcc.c **** 
 905:Drivers/STM32F0xx_HAL_Driver/Src/stm32f0xx_hal_rcc.c ****   /* Configure the source of time base considering new system clocks settings*/
 906:Drivers/STM32F0xx_HAL_Driver/Src/stm32f0xx_hal_rcc.c ****   HAL_InitTick (TICK_INT_PRIORITY);
 907:Drivers/STM32F0xx_HAL_Driver/Src/stm32f0xx_hal_rcc.c ****   
 908:Drivers/STM32F0xx_HAL_Driver/Src/stm32f0xx_hal_rcc.c ****   return HAL_OK;
 909:Drivers/STM32F0xx_HAL_Driver/Src/stm32f0xx_hal_rcc.c **** }
 910:Drivers/STM32F0xx_HAL_Driver/Src/stm32f0xx_hal_rcc.c **** 
 911:Drivers/STM32F0xx_HAL_Driver/Src/stm32f0xx_hal_rcc.c **** /**
 912:Drivers/STM32F0xx_HAL_Driver/Src/stm32f0xx_hal_rcc.c ****   * @}
 913:Drivers/STM32F0xx_HAL_Driver/Src/stm32f0xx_hal_rcc.c ****   */
 914:Drivers/STM32F0xx_HAL_Driver/Src/stm32f0xx_hal_rcc.c **** 
ARM GAS  /tmp/ccZr23YC.s 			page 46


 915:Drivers/STM32F0xx_HAL_Driver/Src/stm32f0xx_hal_rcc.c **** /** @defgroup RCC_Exported_Functions_Group2 Peripheral Control functions
 916:Drivers/STM32F0xx_HAL_Driver/Src/stm32f0xx_hal_rcc.c ****   *  @brief   RCC clocks control functions
 917:Drivers/STM32F0xx_HAL_Driver/Src/stm32f0xx_hal_rcc.c ****   *
 918:Drivers/STM32F0xx_HAL_Driver/Src/stm32f0xx_hal_rcc.c ****   @verbatim   
 919:Drivers/STM32F0xx_HAL_Driver/Src/stm32f0xx_hal_rcc.c ****   ===============================================================================
 920:Drivers/STM32F0xx_HAL_Driver/Src/stm32f0xx_hal_rcc.c ****                   ##### Peripheral Control functions #####
 921:Drivers/STM32F0xx_HAL_Driver/Src/stm32f0xx_hal_rcc.c ****   ===============================================================================  
 922:Drivers/STM32F0xx_HAL_Driver/Src/stm32f0xx_hal_rcc.c ****     [..]
 923:Drivers/STM32F0xx_HAL_Driver/Src/stm32f0xx_hal_rcc.c ****     This subsection provides a set of functions allowing to control the RCC Clocks 
 924:Drivers/STM32F0xx_HAL_Driver/Src/stm32f0xx_hal_rcc.c ****     frequencies.
 925:Drivers/STM32F0xx_HAL_Driver/Src/stm32f0xx_hal_rcc.c **** 
 926:Drivers/STM32F0xx_HAL_Driver/Src/stm32f0xx_hal_rcc.c ****   @endverbatim
 927:Drivers/STM32F0xx_HAL_Driver/Src/stm32f0xx_hal_rcc.c ****   * @{
 928:Drivers/STM32F0xx_HAL_Driver/Src/stm32f0xx_hal_rcc.c ****   */
 929:Drivers/STM32F0xx_HAL_Driver/Src/stm32f0xx_hal_rcc.c **** 
 930:Drivers/STM32F0xx_HAL_Driver/Src/stm32f0xx_hal_rcc.c **** #if defined(RCC_CFGR_MCOPRE)
 931:Drivers/STM32F0xx_HAL_Driver/Src/stm32f0xx_hal_rcc.c **** /**
 932:Drivers/STM32F0xx_HAL_Driver/Src/stm32f0xx_hal_rcc.c ****   * @brief  Selects the clock source to output on MCO pin.
 933:Drivers/STM32F0xx_HAL_Driver/Src/stm32f0xx_hal_rcc.c ****   * @note   MCO pin should be configured in alternate function mode.
 934:Drivers/STM32F0xx_HAL_Driver/Src/stm32f0xx_hal_rcc.c ****   * @param  RCC_MCOx specifies the output direction for the clock source.
 935:Drivers/STM32F0xx_HAL_Driver/Src/stm32f0xx_hal_rcc.c ****   *          This parameter can be one of the following values:
 936:Drivers/STM32F0xx_HAL_Driver/Src/stm32f0xx_hal_rcc.c ****   *            @arg @ref RCC_MCO1 Clock source to output on MCO1 pin(PA8).
 937:Drivers/STM32F0xx_HAL_Driver/Src/stm32f0xx_hal_rcc.c ****   * @param  RCC_MCOSource specifies the clock source to output.
 938:Drivers/STM32F0xx_HAL_Driver/Src/stm32f0xx_hal_rcc.c ****   *          This parameter can be one of the following values:
 939:Drivers/STM32F0xx_HAL_Driver/Src/stm32f0xx_hal_rcc.c ****   *            @arg @ref RCC_MCO1SOURCE_NOCLOCK     No clock selected
 940:Drivers/STM32F0xx_HAL_Driver/Src/stm32f0xx_hal_rcc.c ****   *            @arg @ref RCC_MCO1SOURCE_SYSCLK      System Clock selected as MCO clock
 941:Drivers/STM32F0xx_HAL_Driver/Src/stm32f0xx_hal_rcc.c ****   *            @arg @ref RCC_MCO1SOURCE_HSI         HSI selected as MCO clock
 942:Drivers/STM32F0xx_HAL_Driver/Src/stm32f0xx_hal_rcc.c ****   *            @arg @ref RCC_MCO1SOURCE_HSE         HSE selected as MCO clock
 943:Drivers/STM32F0xx_HAL_Driver/Src/stm32f0xx_hal_rcc.c ****   *            @arg @ref RCC_MCO1SOURCE_LSI         LSI selected as MCO clock
 944:Drivers/STM32F0xx_HAL_Driver/Src/stm32f0xx_hal_rcc.c ****   *            @arg @ref RCC_MCO1SOURCE_LSE         LSE selected as MCO clock
 945:Drivers/STM32F0xx_HAL_Driver/Src/stm32f0xx_hal_rcc.c ****   *            @arg @ref RCC_MCO1SOURCE_HSI14       HSI14 selected as MCO clock
 946:Drivers/STM32F0xx_HAL_Driver/Src/stm32f0xx_hal_rcc.c ****   @if STM32F042x6
 947:Drivers/STM32F0xx_HAL_Driver/Src/stm32f0xx_hal_rcc.c ****   *            @arg @ref RCC_MCO1SOURCE_HSI48       HSI48 selected as MCO clock
 948:Drivers/STM32F0xx_HAL_Driver/Src/stm32f0xx_hal_rcc.c ****   *            @arg @ref RCC_MCO1SOURCE_PLLCLK      PLLCLK selected as MCO clock
 949:Drivers/STM32F0xx_HAL_Driver/Src/stm32f0xx_hal_rcc.c ****   @elseif STM32F048xx
 950:Drivers/STM32F0xx_HAL_Driver/Src/stm32f0xx_hal_rcc.c ****   *            @arg @ref RCC_MCO1SOURCE_HSI48       HSI48 selected as MCO clock
 951:Drivers/STM32F0xx_HAL_Driver/Src/stm32f0xx_hal_rcc.c ****   *            @arg @ref RCC_MCO1SOURCE_PLLCLK      PLLCLK selected as MCO clock
 952:Drivers/STM32F0xx_HAL_Driver/Src/stm32f0xx_hal_rcc.c ****   @elseif STM32F071xB
 953:Drivers/STM32F0xx_HAL_Driver/Src/stm32f0xx_hal_rcc.c ****   *            @arg @ref RCC_MCO1SOURCE_HSI48       HSI48 selected as MCO clock
 954:Drivers/STM32F0xx_HAL_Driver/Src/stm32f0xx_hal_rcc.c ****   *            @arg @ref RCC_MCO1SOURCE_PLLCLK      PLLCLK selected as MCO clock
 955:Drivers/STM32F0xx_HAL_Driver/Src/stm32f0xx_hal_rcc.c ****   @elseif STM32F072xB
 956:Drivers/STM32F0xx_HAL_Driver/Src/stm32f0xx_hal_rcc.c ****   *            @arg @ref RCC_MCO1SOURCE_HSI48       HSI48 selected as MCO clock
 957:Drivers/STM32F0xx_HAL_Driver/Src/stm32f0xx_hal_rcc.c ****   *            @arg @ref RCC_MCO1SOURCE_PLLCLK      PLLCLK selected as MCO clock
 958:Drivers/STM32F0xx_HAL_Driver/Src/stm32f0xx_hal_rcc.c ****   @elseif STM32F078xx
 959:Drivers/STM32F0xx_HAL_Driver/Src/stm32f0xx_hal_rcc.c ****   *            @arg @ref RCC_MCO1SOURCE_HSI48       HSI48 selected as MCO clock
 960:Drivers/STM32F0xx_HAL_Driver/Src/stm32f0xx_hal_rcc.c ****   *            @arg @ref RCC_MCO1SOURCE_PLLCLK      PLLCLK selected as MCO clock
 961:Drivers/STM32F0xx_HAL_Driver/Src/stm32f0xx_hal_rcc.c ****   @elseif STM32F091xC
 962:Drivers/STM32F0xx_HAL_Driver/Src/stm32f0xx_hal_rcc.c ****   *            @arg @ref RCC_MCO1SOURCE_HSI48       HSI48 selected as MCO clock
 963:Drivers/STM32F0xx_HAL_Driver/Src/stm32f0xx_hal_rcc.c ****   *            @arg @ref RCC_MCO1SOURCE_PLLCLK      PLLCLK selected as MCO clock
 964:Drivers/STM32F0xx_HAL_Driver/Src/stm32f0xx_hal_rcc.c ****   @elseif STM32F098xx
 965:Drivers/STM32F0xx_HAL_Driver/Src/stm32f0xx_hal_rcc.c ****   *            @arg @ref RCC_MCO1SOURCE_HSI48       HSI48 selected as MCO clock
 966:Drivers/STM32F0xx_HAL_Driver/Src/stm32f0xx_hal_rcc.c ****   *            @arg @ref RCC_MCO1SOURCE_PLLCLK      PLLCLK selected as MCO clock
 967:Drivers/STM32F0xx_HAL_Driver/Src/stm32f0xx_hal_rcc.c ****   @elif STM32F030x6
 968:Drivers/STM32F0xx_HAL_Driver/Src/stm32f0xx_hal_rcc.c ****   *            @arg @ref RCC_MCO1SOURCE_PLLCLK      PLLCLK selected as MCO clock
 969:Drivers/STM32F0xx_HAL_Driver/Src/stm32f0xx_hal_rcc.c ****   @elif STM32F030xC
 970:Drivers/STM32F0xx_HAL_Driver/Src/stm32f0xx_hal_rcc.c ****   *            @arg @ref RCC_MCO1SOURCE_PLLCLK      PLLCLK selected as MCO clock
 971:Drivers/STM32F0xx_HAL_Driver/Src/stm32f0xx_hal_rcc.c ****   @elif STM32F031x6
ARM GAS  /tmp/ccZr23YC.s 			page 47


 972:Drivers/STM32F0xx_HAL_Driver/Src/stm32f0xx_hal_rcc.c ****   *            @arg @ref RCC_MCO1SOURCE_PLLCLK      PLLCLK selected as MCO clock
 973:Drivers/STM32F0xx_HAL_Driver/Src/stm32f0xx_hal_rcc.c ****   @elif STM32F038xx
 974:Drivers/STM32F0xx_HAL_Driver/Src/stm32f0xx_hal_rcc.c ****   *            @arg @ref RCC_MCO1SOURCE_PLLCLK      PLLCLK selected as MCO clock
 975:Drivers/STM32F0xx_HAL_Driver/Src/stm32f0xx_hal_rcc.c ****   @elif STM32F070x6
 976:Drivers/STM32F0xx_HAL_Driver/Src/stm32f0xx_hal_rcc.c ****   *            @arg @ref RCC_MCO1SOURCE_PLLCLK      PLLCLK selected as MCO clock
 977:Drivers/STM32F0xx_HAL_Driver/Src/stm32f0xx_hal_rcc.c ****   @elif STM32F070xB
 978:Drivers/STM32F0xx_HAL_Driver/Src/stm32f0xx_hal_rcc.c ****   *            @arg @ref RCC_MCO1SOURCE_PLLCLK      PLLCLK selected as MCO clock
 979:Drivers/STM32F0xx_HAL_Driver/Src/stm32f0xx_hal_rcc.c ****   @endif
 980:Drivers/STM32F0xx_HAL_Driver/Src/stm32f0xx_hal_rcc.c ****   *            @arg @ref RCC_MCO1SOURCE_PLLCLK_DIV2 PLLCLK Divided by 2 selected as MCO clock
 981:Drivers/STM32F0xx_HAL_Driver/Src/stm32f0xx_hal_rcc.c ****   * @param  RCC_MCODiv specifies the MCO DIV.
 982:Drivers/STM32F0xx_HAL_Driver/Src/stm32f0xx_hal_rcc.c ****   *          This parameter can be one of the following values:
 983:Drivers/STM32F0xx_HAL_Driver/Src/stm32f0xx_hal_rcc.c ****   *            @arg @ref RCC_MCODIV_1   no division applied to MCO clock
 984:Drivers/STM32F0xx_HAL_Driver/Src/stm32f0xx_hal_rcc.c ****   *            @arg @ref RCC_MCODIV_2   division by 2 applied to MCO clock
 985:Drivers/STM32F0xx_HAL_Driver/Src/stm32f0xx_hal_rcc.c ****   *            @arg @ref RCC_MCODIV_4   division by 4 applied to MCO clock
 986:Drivers/STM32F0xx_HAL_Driver/Src/stm32f0xx_hal_rcc.c ****   *            @arg @ref RCC_MCODIV_8   division by 8 applied to MCO clock
 987:Drivers/STM32F0xx_HAL_Driver/Src/stm32f0xx_hal_rcc.c ****   *            @arg @ref RCC_MCODIV_16  division by 16 applied to MCO clock
 988:Drivers/STM32F0xx_HAL_Driver/Src/stm32f0xx_hal_rcc.c ****   *            @arg @ref RCC_MCODIV_32  division by 32 applied to MCO clock
 989:Drivers/STM32F0xx_HAL_Driver/Src/stm32f0xx_hal_rcc.c ****   *            @arg @ref RCC_MCODIV_64  division by 64 applied to MCO clock
 990:Drivers/STM32F0xx_HAL_Driver/Src/stm32f0xx_hal_rcc.c ****   *            @arg @ref RCC_MCODIV_128 division by 128 applied to MCO clock
 991:Drivers/STM32F0xx_HAL_Driver/Src/stm32f0xx_hal_rcc.c ****   * @retval None
 992:Drivers/STM32F0xx_HAL_Driver/Src/stm32f0xx_hal_rcc.c ****   */
 993:Drivers/STM32F0xx_HAL_Driver/Src/stm32f0xx_hal_rcc.c **** #else
 994:Drivers/STM32F0xx_HAL_Driver/Src/stm32f0xx_hal_rcc.c **** /**
 995:Drivers/STM32F0xx_HAL_Driver/Src/stm32f0xx_hal_rcc.c ****   * @brief  Selects the clock source to output on MCO pin.
 996:Drivers/STM32F0xx_HAL_Driver/Src/stm32f0xx_hal_rcc.c ****   * @note   MCO pin should be configured in alternate function mode.
 997:Drivers/STM32F0xx_HAL_Driver/Src/stm32f0xx_hal_rcc.c ****   * @param  RCC_MCOx specifies the output direction for the clock source.
 998:Drivers/STM32F0xx_HAL_Driver/Src/stm32f0xx_hal_rcc.c ****   *          This parameter can be one of the following values:
 999:Drivers/STM32F0xx_HAL_Driver/Src/stm32f0xx_hal_rcc.c ****   *            @arg @ref RCC_MCO1 Clock source to output on MCO1 pin(PA8).
1000:Drivers/STM32F0xx_HAL_Driver/Src/stm32f0xx_hal_rcc.c ****   * @param  RCC_MCOSource specifies the clock source to output.
1001:Drivers/STM32F0xx_HAL_Driver/Src/stm32f0xx_hal_rcc.c ****   *          This parameter can be one of the following values:
1002:Drivers/STM32F0xx_HAL_Driver/Src/stm32f0xx_hal_rcc.c ****   *            @arg @ref RCC_MCO1SOURCE_NOCLOCK     No clock selected as MCO clock
1003:Drivers/STM32F0xx_HAL_Driver/Src/stm32f0xx_hal_rcc.c ****   *            @arg @ref RCC_MCO1SOURCE_SYSCLK      System clock selected as MCO clock
1004:Drivers/STM32F0xx_HAL_Driver/Src/stm32f0xx_hal_rcc.c ****   *            @arg @ref RCC_MCO1SOURCE_HSI         HSI selected as MCO clock
1005:Drivers/STM32F0xx_HAL_Driver/Src/stm32f0xx_hal_rcc.c ****   *            @arg @ref RCC_MCO1SOURCE_HSE         HSE selected as MCO clock
1006:Drivers/STM32F0xx_HAL_Driver/Src/stm32f0xx_hal_rcc.c ****   *            @arg @ref RCC_MCO1SOURCE_LSI         LSI selected as MCO clock
1007:Drivers/STM32F0xx_HAL_Driver/Src/stm32f0xx_hal_rcc.c ****   *            @arg @ref RCC_MCO1SOURCE_LSE         LSE selected as MCO clock
1008:Drivers/STM32F0xx_HAL_Driver/Src/stm32f0xx_hal_rcc.c ****   *            @arg @ref RCC_MCO1SOURCE_HSI14       HSI14 selected as MCO clock
1009:Drivers/STM32F0xx_HAL_Driver/Src/stm32f0xx_hal_rcc.c ****   *            @arg @ref RCC_MCO1SOURCE_PLLCLK_DIV2 PLLCLK Divided by 2 selected as MCO clock
1010:Drivers/STM32F0xx_HAL_Driver/Src/stm32f0xx_hal_rcc.c ****   * @param  RCC_MCODiv specifies the MCO DIV.
1011:Drivers/STM32F0xx_HAL_Driver/Src/stm32f0xx_hal_rcc.c ****   *          This parameter can be one of the following values:
1012:Drivers/STM32F0xx_HAL_Driver/Src/stm32f0xx_hal_rcc.c ****   *            @arg @ref RCC_MCODIV_1 no division applied to MCO clock
1013:Drivers/STM32F0xx_HAL_Driver/Src/stm32f0xx_hal_rcc.c ****   * @retval None
1014:Drivers/STM32F0xx_HAL_Driver/Src/stm32f0xx_hal_rcc.c ****   */
1015:Drivers/STM32F0xx_HAL_Driver/Src/stm32f0xx_hal_rcc.c **** #endif
1016:Drivers/STM32F0xx_HAL_Driver/Src/stm32f0xx_hal_rcc.c **** void HAL_RCC_MCOConfig(uint32_t RCC_MCOx, uint32_t RCC_MCOSource, uint32_t RCC_MCODiv)
1017:Drivers/STM32F0xx_HAL_Driver/Src/stm32f0xx_hal_rcc.c **** {
 1429              		.loc 1 1017 1 is_stmt 1 view -0
 1430              		.cfi_startproc
 1431              		@ args = 0, pretend = 0, frame = 24
 1432              		@ frame_needed = 0, uses_anonymous_args = 0
 1433              		.loc 1 1017 1 is_stmt 0 view .LVU439
 1434 0000 70B5     		push	{r4, r5, r6, lr}
 1435              	.LCFI3:
 1436              		.cfi_def_cfa_offset 16
 1437              		.cfi_offset 4, -16
 1438              		.cfi_offset 5, -12
 1439              		.cfi_offset 6, -8
ARM GAS  /tmp/ccZr23YC.s 			page 48


 1440              		.cfi_offset 14, -4
 1441 0002 86B0     		sub	sp, sp, #24
 1442              	.LCFI4:
 1443              		.cfi_def_cfa_offset 40
 1444 0004 0D00     		movs	r5, r1
 1445 0006 1600     		movs	r6, r2
1018:Drivers/STM32F0xx_HAL_Driver/Src/stm32f0xx_hal_rcc.c ****   GPIO_InitTypeDef gpio;
 1446              		.loc 1 1018 3 is_stmt 1 view .LVU440
1019:Drivers/STM32F0xx_HAL_Driver/Src/stm32f0xx_hal_rcc.c **** 
1020:Drivers/STM32F0xx_HAL_Driver/Src/stm32f0xx_hal_rcc.c ****   /* Check the parameters */
1021:Drivers/STM32F0xx_HAL_Driver/Src/stm32f0xx_hal_rcc.c ****   assert_param(IS_RCC_MCO(RCC_MCOx));
 1447              		.loc 1 1021 3 view .LVU441
1022:Drivers/STM32F0xx_HAL_Driver/Src/stm32f0xx_hal_rcc.c ****   assert_param(IS_RCC_MCODIV(RCC_MCODiv));
 1448              		.loc 1 1022 3 view .LVU442
1023:Drivers/STM32F0xx_HAL_Driver/Src/stm32f0xx_hal_rcc.c ****   assert_param(IS_RCC_MCO1SOURCE(RCC_MCOSource));
 1449              		.loc 1 1023 3 view .LVU443
1024:Drivers/STM32F0xx_HAL_Driver/Src/stm32f0xx_hal_rcc.c **** 
1025:Drivers/STM32F0xx_HAL_Driver/Src/stm32f0xx_hal_rcc.c ****   /* Prevent unused argument(s) compilation warning */
1026:Drivers/STM32F0xx_HAL_Driver/Src/stm32f0xx_hal_rcc.c ****   UNUSED(RCC_MCOx);
 1450              		.loc 1 1026 3 view .LVU444
1027:Drivers/STM32F0xx_HAL_Driver/Src/stm32f0xx_hal_rcc.c **** 
1028:Drivers/STM32F0xx_HAL_Driver/Src/stm32f0xx_hal_rcc.c ****   /* Configure the MCO1 pin in alternate function mode */
1029:Drivers/STM32F0xx_HAL_Driver/Src/stm32f0xx_hal_rcc.c ****   gpio.Mode      = GPIO_MODE_AF_PP;
 1451              		.loc 1 1029 3 view .LVU445
 1452              		.loc 1 1029 18 is_stmt 0 view .LVU446
 1453 0008 01A9     		add	r1, sp, #4
 1454              	.LVL100:
 1455              		.loc 1 1029 18 view .LVU447
 1456 000a 0223     		movs	r3, #2
 1457 000c 4B60     		str	r3, [r1, #4]
1030:Drivers/STM32F0xx_HAL_Driver/Src/stm32f0xx_hal_rcc.c ****   gpio.Speed     = GPIO_SPEED_FREQ_HIGH;
 1458              		.loc 1 1030 3 is_stmt 1 view .LVU448
 1459              		.loc 1 1030 18 is_stmt 0 view .LVU449
 1460 000e 0133     		adds	r3, r3, #1
 1461 0010 CB60     		str	r3, [r1, #12]
1031:Drivers/STM32F0xx_HAL_Driver/Src/stm32f0xx_hal_rcc.c ****   gpio.Pull      = GPIO_NOPULL;
 1462              		.loc 1 1031 3 is_stmt 1 view .LVU450
 1463              		.loc 1 1031 18 is_stmt 0 view .LVU451
 1464 0012 0023     		movs	r3, #0
 1465 0014 8B60     		str	r3, [r1, #8]
1032:Drivers/STM32F0xx_HAL_Driver/Src/stm32f0xx_hal_rcc.c ****   gpio.Pin       = MCO1_PIN;
 1466              		.loc 1 1032 3 is_stmt 1 view .LVU452
 1467              		.loc 1 1032 18 is_stmt 0 view .LVU453
 1468 0016 8022     		movs	r2, #128
 1469              	.LVL101:
 1470              		.loc 1 1032 18 view .LVU454
 1471 0018 5200     		lsls	r2, r2, #1
 1472 001a 0192     		str	r2, [sp, #4]
1033:Drivers/STM32F0xx_HAL_Driver/Src/stm32f0xx_hal_rcc.c ****   gpio.Alternate = GPIO_AF0_MCO;
 1473              		.loc 1 1033 3 is_stmt 1 view .LVU455
 1474              		.loc 1 1033 18 is_stmt 0 view .LVU456
 1475 001c 0B61     		str	r3, [r1, #16]
1034:Drivers/STM32F0xx_HAL_Driver/Src/stm32f0xx_hal_rcc.c **** 
1035:Drivers/STM32F0xx_HAL_Driver/Src/stm32f0xx_hal_rcc.c ****   /* MCO1 Clock Enable */
1036:Drivers/STM32F0xx_HAL_Driver/Src/stm32f0xx_hal_rcc.c ****   MCO1_CLK_ENABLE();
 1476              		.loc 1 1036 3 is_stmt 1 view .LVU457
 1477              	.LBB5:
ARM GAS  /tmp/ccZr23YC.s 			page 49


 1478              		.loc 1 1036 3 view .LVU458
 1479              		.loc 1 1036 3 view .LVU459
 1480 001e 0B4C     		ldr	r4, .L144
 1481 0020 6369     		ldr	r3, [r4, #20]
 1482 0022 8022     		movs	r2, #128
 1483 0024 9202     		lsls	r2, r2, #10
 1484 0026 1343     		orrs	r3, r2
 1485 0028 6361     		str	r3, [r4, #20]
 1486              		.loc 1 1036 3 view .LVU460
 1487 002a 6369     		ldr	r3, [r4, #20]
 1488 002c 1340     		ands	r3, r2
 1489 002e 0093     		str	r3, [sp]
 1490              		.loc 1 1036 3 view .LVU461
 1491 0030 009B     		ldr	r3, [sp]
 1492              	.LBE5:
 1493              		.loc 1 1036 3 view .LVU462
1037:Drivers/STM32F0xx_HAL_Driver/Src/stm32f0xx_hal_rcc.c ****   
1038:Drivers/STM32F0xx_HAL_Driver/Src/stm32f0xx_hal_rcc.c ****   HAL_GPIO_Init(MCO1_GPIO_PORT, &gpio);
 1494              		.loc 1 1038 3 view .LVU463
 1495 0032 9020     		movs	r0, #144
 1496              	.LVL102:
 1497              		.loc 1 1038 3 is_stmt 0 view .LVU464
 1498 0034 C005     		lsls	r0, r0, #23
 1499 0036 FFF7FEFF 		bl	HAL_GPIO_Init
 1500              	.LVL103:
1039:Drivers/STM32F0xx_HAL_Driver/Src/stm32f0xx_hal_rcc.c ****   
1040:Drivers/STM32F0xx_HAL_Driver/Src/stm32f0xx_hal_rcc.c ****   /* Configure the MCO clock source */
1041:Drivers/STM32F0xx_HAL_Driver/Src/stm32f0xx_hal_rcc.c ****   __HAL_RCC_MCO1_CONFIG(RCC_MCOSource, RCC_MCODiv);
 1501              		.loc 1 1041 3 is_stmt 1 view .LVU465
 1502 003a 6268     		ldr	r2, [r4, #4]
 1503 003c 044B     		ldr	r3, .L144+4
 1504 003e 1A40     		ands	r2, r3
 1505 0040 3543     		orrs	r5, r6
 1506              	.LVL104:
 1507              		.loc 1 1041 3 is_stmt 0 view .LVU466
 1508 0042 2A43     		orrs	r2, r5
 1509 0044 6260     		str	r2, [r4, #4]
1042:Drivers/STM32F0xx_HAL_Driver/Src/stm32f0xx_hal_rcc.c **** }
 1510              		.loc 1 1042 1 view .LVU467
 1511 0046 06B0     		add	sp, sp, #24
 1512              		@ sp needed
 1513              	.LVL105:
 1514              		.loc 1 1042 1 view .LVU468
 1515 0048 70BD     		pop	{r4, r5, r6, pc}
 1516              	.L145:
 1517 004a C046     		.align	2
 1518              	.L144:
 1519 004c 00100240 		.word	1073876992
 1520 0050 FFFFFF80 		.word	-2130706433
 1521              		.cfi_endproc
 1522              	.LFE43:
 1524              		.section	.text.HAL_RCC_EnableCSS,"ax",%progbits
 1525              		.align	1
 1526              		.global	HAL_RCC_EnableCSS
 1527              		.syntax unified
 1528              		.code	16
 1529              		.thumb_func
ARM GAS  /tmp/ccZr23YC.s 			page 50


 1531              	HAL_RCC_EnableCSS:
 1532              	.LFB44:
1043:Drivers/STM32F0xx_HAL_Driver/Src/stm32f0xx_hal_rcc.c **** 
1044:Drivers/STM32F0xx_HAL_Driver/Src/stm32f0xx_hal_rcc.c **** /**
1045:Drivers/STM32F0xx_HAL_Driver/Src/stm32f0xx_hal_rcc.c ****   * @brief  Enables the Clock Security System.
1046:Drivers/STM32F0xx_HAL_Driver/Src/stm32f0xx_hal_rcc.c ****   * @note   If a failure is detected on the HSE oscillator clock, this oscillator
1047:Drivers/STM32F0xx_HAL_Driver/Src/stm32f0xx_hal_rcc.c ****   *         is automatically disabled and an interrupt is generated to inform the
1048:Drivers/STM32F0xx_HAL_Driver/Src/stm32f0xx_hal_rcc.c ****   *         software about the failure (Clock Security System Interrupt, CSSI),
1049:Drivers/STM32F0xx_HAL_Driver/Src/stm32f0xx_hal_rcc.c ****   *         allowing the MCU to perform rescue operations. The CSSI is linked to 
1050:Drivers/STM32F0xx_HAL_Driver/Src/stm32f0xx_hal_rcc.c ****   *         the Cortex-M0 NMI (Non-Maskable Interrupt) exception vector.  
1051:Drivers/STM32F0xx_HAL_Driver/Src/stm32f0xx_hal_rcc.c ****   * @retval None
1052:Drivers/STM32F0xx_HAL_Driver/Src/stm32f0xx_hal_rcc.c ****   */
1053:Drivers/STM32F0xx_HAL_Driver/Src/stm32f0xx_hal_rcc.c **** void HAL_RCC_EnableCSS(void)
1054:Drivers/STM32F0xx_HAL_Driver/Src/stm32f0xx_hal_rcc.c **** {
 1533              		.loc 1 1054 1 is_stmt 1 view -0
 1534              		.cfi_startproc
 1535              		@ args = 0, pretend = 0, frame = 0
 1536              		@ frame_needed = 0, uses_anonymous_args = 0
 1537              		@ link register save eliminated.
1055:Drivers/STM32F0xx_HAL_Driver/Src/stm32f0xx_hal_rcc.c ****   SET_BIT(RCC->CR, RCC_CR_CSSON) ;
 1538              		.loc 1 1055 3 view .LVU470
 1539 0000 034A     		ldr	r2, .L147
 1540 0002 1168     		ldr	r1, [r2]
 1541 0004 8023     		movs	r3, #128
 1542 0006 1B03     		lsls	r3, r3, #12
 1543 0008 0B43     		orrs	r3, r1
 1544 000a 1360     		str	r3, [r2]
1056:Drivers/STM32F0xx_HAL_Driver/Src/stm32f0xx_hal_rcc.c **** }
 1545              		.loc 1 1056 1 is_stmt 0 view .LVU471
 1546              		@ sp needed
 1547 000c 7047     		bx	lr
 1548              	.L148:
 1549 000e C046     		.align	2
 1550              	.L147:
 1551 0010 00100240 		.word	1073876992
 1552              		.cfi_endproc
 1553              	.LFE44:
 1555              		.section	.text.HAL_RCC_DisableCSS,"ax",%progbits
 1556              		.align	1
 1557              		.global	HAL_RCC_DisableCSS
 1558              		.syntax unified
 1559              		.code	16
 1560              		.thumb_func
 1562              	HAL_RCC_DisableCSS:
 1563              	.LFB45:
1057:Drivers/STM32F0xx_HAL_Driver/Src/stm32f0xx_hal_rcc.c **** 
1058:Drivers/STM32F0xx_HAL_Driver/Src/stm32f0xx_hal_rcc.c **** /**
1059:Drivers/STM32F0xx_HAL_Driver/Src/stm32f0xx_hal_rcc.c ****   * @brief  Disables the Clock Security System.
1060:Drivers/STM32F0xx_HAL_Driver/Src/stm32f0xx_hal_rcc.c ****   * @retval None
1061:Drivers/STM32F0xx_HAL_Driver/Src/stm32f0xx_hal_rcc.c ****   */
1062:Drivers/STM32F0xx_HAL_Driver/Src/stm32f0xx_hal_rcc.c **** void HAL_RCC_DisableCSS(void)
1063:Drivers/STM32F0xx_HAL_Driver/Src/stm32f0xx_hal_rcc.c **** {
 1564              		.loc 1 1063 1 is_stmt 1 view -0
 1565              		.cfi_startproc
 1566              		@ args = 0, pretend = 0, frame = 0
 1567              		@ frame_needed = 0, uses_anonymous_args = 0
 1568              		@ link register save eliminated.
ARM GAS  /tmp/ccZr23YC.s 			page 51


1064:Drivers/STM32F0xx_HAL_Driver/Src/stm32f0xx_hal_rcc.c ****   CLEAR_BIT(RCC->CR, RCC_CR_CSSON) ;
 1569              		.loc 1 1064 3 view .LVU473
 1570 0000 024A     		ldr	r2, .L150
 1571 0002 1368     		ldr	r3, [r2]
 1572 0004 0249     		ldr	r1, .L150+4
 1573 0006 0B40     		ands	r3, r1
 1574 0008 1360     		str	r3, [r2]
1065:Drivers/STM32F0xx_HAL_Driver/Src/stm32f0xx_hal_rcc.c **** }
 1575              		.loc 1 1065 1 is_stmt 0 view .LVU474
 1576              		@ sp needed
 1577 000a 7047     		bx	lr
 1578              	.L151:
 1579              		.align	2
 1580              	.L150:
 1581 000c 00100240 		.word	1073876992
 1582 0010 FFFFF7FF 		.word	-524289
 1583              		.cfi_endproc
 1584              	.LFE45:
 1586              		.section	.text.HAL_RCC_GetSysClockFreq,"ax",%progbits
 1587              		.align	1
 1588              		.global	HAL_RCC_GetSysClockFreq
 1589              		.syntax unified
 1590              		.code	16
 1591              		.thumb_func
 1593              	HAL_RCC_GetSysClockFreq:
 1594              	.LFB46:
1066:Drivers/STM32F0xx_HAL_Driver/Src/stm32f0xx_hal_rcc.c **** 
1067:Drivers/STM32F0xx_HAL_Driver/Src/stm32f0xx_hal_rcc.c **** /**
1068:Drivers/STM32F0xx_HAL_Driver/Src/stm32f0xx_hal_rcc.c ****   * @brief  Returns the SYSCLK frequency     
1069:Drivers/STM32F0xx_HAL_Driver/Src/stm32f0xx_hal_rcc.c ****   * @note   The system frequency computed by this function is not the real 
1070:Drivers/STM32F0xx_HAL_Driver/Src/stm32f0xx_hal_rcc.c ****   *         frequency in the chip. It is calculated based on the predefined 
1071:Drivers/STM32F0xx_HAL_Driver/Src/stm32f0xx_hal_rcc.c ****   *         constant and the selected clock source:
1072:Drivers/STM32F0xx_HAL_Driver/Src/stm32f0xx_hal_rcc.c ****   * @note     If SYSCLK source is HSI, function returns values based on HSI_VALUE(*)
1073:Drivers/STM32F0xx_HAL_Driver/Src/stm32f0xx_hal_rcc.c ****   * @note     If SYSCLK source is HSE, function returns a value based on HSE_VALUE
1074:Drivers/STM32F0xx_HAL_Driver/Src/stm32f0xx_hal_rcc.c ****   *           divided by PREDIV factor(**)
1075:Drivers/STM32F0xx_HAL_Driver/Src/stm32f0xx_hal_rcc.c ****   * @note     If SYSCLK source is PLL, function returns a value based on HSE_VALUE
1076:Drivers/STM32F0xx_HAL_Driver/Src/stm32f0xx_hal_rcc.c ****   *           divided by PREDIV factor(**) or depending on STM32F0xxxx devices either a value based
1077:Drivers/STM32F0xx_HAL_Driver/Src/stm32f0xx_hal_rcc.c ****   *           on HSI_VALUE divided by 2 or HSI_VALUE divided by PREDIV factor(*) multiplied by the 
1078:Drivers/STM32F0xx_HAL_Driver/Src/stm32f0xx_hal_rcc.c ****   *           PLL factor.
1079:Drivers/STM32F0xx_HAL_Driver/Src/stm32f0xx_hal_rcc.c ****   * @note     (*) HSI_VALUE is a constant defined in stm32f0xx_hal_conf.h file (default value
1080:Drivers/STM32F0xx_HAL_Driver/Src/stm32f0xx_hal_rcc.c ****   *               8 MHz) but the real value may vary depending on the variations
1081:Drivers/STM32F0xx_HAL_Driver/Src/stm32f0xx_hal_rcc.c ****   *               in voltage and temperature.
1082:Drivers/STM32F0xx_HAL_Driver/Src/stm32f0xx_hal_rcc.c ****   * @note     (**) HSE_VALUE is a constant defined in stm32f0xx_hal_conf.h file (default value
1083:Drivers/STM32F0xx_HAL_Driver/Src/stm32f0xx_hal_rcc.c ****   *                8 MHz), user has to ensure that HSE_VALUE is same as the real
1084:Drivers/STM32F0xx_HAL_Driver/Src/stm32f0xx_hal_rcc.c ****   *                frequency of the crystal used. Otherwise, this function may
1085:Drivers/STM32F0xx_HAL_Driver/Src/stm32f0xx_hal_rcc.c ****   *                have wrong result.
1086:Drivers/STM32F0xx_HAL_Driver/Src/stm32f0xx_hal_rcc.c ****   *                  
1087:Drivers/STM32F0xx_HAL_Driver/Src/stm32f0xx_hal_rcc.c ****   * @note   The result of this function could be not correct when using fractional
1088:Drivers/STM32F0xx_HAL_Driver/Src/stm32f0xx_hal_rcc.c ****   *         value for HSE crystal.
1089:Drivers/STM32F0xx_HAL_Driver/Src/stm32f0xx_hal_rcc.c ****   *           
1090:Drivers/STM32F0xx_HAL_Driver/Src/stm32f0xx_hal_rcc.c ****   * @note   This function can be used by the user application to compute the 
1091:Drivers/STM32F0xx_HAL_Driver/Src/stm32f0xx_hal_rcc.c ****   *         baud-rate for the communication peripherals or configure other parameters.
1092:Drivers/STM32F0xx_HAL_Driver/Src/stm32f0xx_hal_rcc.c ****   *           
1093:Drivers/STM32F0xx_HAL_Driver/Src/stm32f0xx_hal_rcc.c ****   * @note   Each time SYSCLK changes, this function must be called to update the
1094:Drivers/STM32F0xx_HAL_Driver/Src/stm32f0xx_hal_rcc.c ****   *         right SYSCLK value. Otherwise, any configuration based on this function will be incorre
1095:Drivers/STM32F0xx_HAL_Driver/Src/stm32f0xx_hal_rcc.c ****   *         
1096:Drivers/STM32F0xx_HAL_Driver/Src/stm32f0xx_hal_rcc.c ****   * @retval SYSCLK frequency
ARM GAS  /tmp/ccZr23YC.s 			page 52


1097:Drivers/STM32F0xx_HAL_Driver/Src/stm32f0xx_hal_rcc.c ****   */
1098:Drivers/STM32F0xx_HAL_Driver/Src/stm32f0xx_hal_rcc.c **** uint32_t HAL_RCC_GetSysClockFreq(void)
1099:Drivers/STM32F0xx_HAL_Driver/Src/stm32f0xx_hal_rcc.c **** {
 1595              		.loc 1 1099 1 is_stmt 1 view -0
 1596              		.cfi_startproc
 1597              		@ args = 0, pretend = 0, frame = 0
 1598              		@ frame_needed = 0, uses_anonymous_args = 0
 1599 0000 10B5     		push	{r4, lr}
 1600              	.LCFI5:
 1601              		.cfi_def_cfa_offset 8
 1602              		.cfi_offset 4, -8
 1603              		.cfi_offset 14, -4
1100:Drivers/STM32F0xx_HAL_Driver/Src/stm32f0xx_hal_rcc.c ****   static const uint8_t aPLLMULFactorTable[16U] = { 2U,  3U,  4U,  5U,  6U,  7U,  8U,  9U,
 1604              		.loc 1 1100 3 view .LVU476
1101:Drivers/STM32F0xx_HAL_Driver/Src/stm32f0xx_hal_rcc.c ****                                                    10U, 11U, 12U, 13U, 14U, 15U, 16U, 16U};
1102:Drivers/STM32F0xx_HAL_Driver/Src/stm32f0xx_hal_rcc.c ****   static const uint8_t aPredivFactorTable[16U] = { 1U, 2U,  3U,  4U,  5U,  6U,  7U,  8U,
 1605              		.loc 1 1102 3 view .LVU477
1103:Drivers/STM32F0xx_HAL_Driver/Src/stm32f0xx_hal_rcc.c ****                                                    9U,10U, 11U, 12U, 13U, 14U, 15U, 16U};
1104:Drivers/STM32F0xx_HAL_Driver/Src/stm32f0xx_hal_rcc.c **** 
1105:Drivers/STM32F0xx_HAL_Driver/Src/stm32f0xx_hal_rcc.c ****   uint32_t tmpreg = 0U, prediv = 0U, pllclk = 0U, pllmul = 0U;
 1606              		.loc 1 1105 3 view .LVU478
 1607              	.LVL106:
1106:Drivers/STM32F0xx_HAL_Driver/Src/stm32f0xx_hal_rcc.c ****   uint32_t sysclockfreq = 0U;
 1608              		.loc 1 1106 3 view .LVU479
1107:Drivers/STM32F0xx_HAL_Driver/Src/stm32f0xx_hal_rcc.c ****   
1108:Drivers/STM32F0xx_HAL_Driver/Src/stm32f0xx_hal_rcc.c ****   tmpreg = RCC->CFGR;
 1609              		.loc 1 1108 3 view .LVU480
 1610              		.loc 1 1108 10 is_stmt 0 view .LVU481
 1611 0002 184B     		ldr	r3, .L160
 1612 0004 5A68     		ldr	r2, [r3, #4]
 1613              	.LVL107:
1109:Drivers/STM32F0xx_HAL_Driver/Src/stm32f0xx_hal_rcc.c ****   
1110:Drivers/STM32F0xx_HAL_Driver/Src/stm32f0xx_hal_rcc.c ****   /* Get SYSCLK source -------------------------------------------------------*/
1111:Drivers/STM32F0xx_HAL_Driver/Src/stm32f0xx_hal_rcc.c ****   switch (tmpreg & RCC_CFGR_SWS)
 1614              		.loc 1 1111 3 is_stmt 1 view .LVU482
 1615              		.loc 1 1111 18 is_stmt 0 view .LVU483
 1616 0006 0C23     		movs	r3, #12
 1617 0008 1340     		ands	r3, r2
 1618              		.loc 1 1111 3 view .LVU484
 1619 000a 082B     		cmp	r3, #8
 1620 000c 03D0     		beq	.L153
 1621 000e 0C2B     		cmp	r3, #12
 1622 0010 25D1     		bne	.L157
1112:Drivers/STM32F0xx_HAL_Driver/Src/stm32f0xx_hal_rcc.c ****   {
1113:Drivers/STM32F0xx_HAL_Driver/Src/stm32f0xx_hal_rcc.c ****     case RCC_SYSCLKSOURCE_STATUS_HSE:  /* HSE used as system clock */
1114:Drivers/STM32F0xx_HAL_Driver/Src/stm32f0xx_hal_rcc.c ****     {
1115:Drivers/STM32F0xx_HAL_Driver/Src/stm32f0xx_hal_rcc.c ****       sysclockfreq = HSE_VALUE;
1116:Drivers/STM32F0xx_HAL_Driver/Src/stm32f0xx_hal_rcc.c ****       break;
1117:Drivers/STM32F0xx_HAL_Driver/Src/stm32f0xx_hal_rcc.c ****     }
1118:Drivers/STM32F0xx_HAL_Driver/Src/stm32f0xx_hal_rcc.c ****     case RCC_SYSCLKSOURCE_STATUS_PLLCLK:  /* PLL used as system clock */
1119:Drivers/STM32F0xx_HAL_Driver/Src/stm32f0xx_hal_rcc.c ****     {
1120:Drivers/STM32F0xx_HAL_Driver/Src/stm32f0xx_hal_rcc.c ****       pllmul = aPLLMULFactorTable[(uint32_t)(tmpreg & RCC_CFGR_PLLMUL) >> RCC_CFGR_PLLMUL_BITNUMBER
1121:Drivers/STM32F0xx_HAL_Driver/Src/stm32f0xx_hal_rcc.c ****       prediv = aPredivFactorTable[(uint32_t)(RCC->CFGR2 & RCC_CFGR2_PREDIV) >> RCC_CFGR2_PREDIV_BIT
1122:Drivers/STM32F0xx_HAL_Driver/Src/stm32f0xx_hal_rcc.c ****       if ((tmpreg & RCC_CFGR_PLLSRC) == RCC_PLLSOURCE_HSE)
1123:Drivers/STM32F0xx_HAL_Driver/Src/stm32f0xx_hal_rcc.c ****       {
1124:Drivers/STM32F0xx_HAL_Driver/Src/stm32f0xx_hal_rcc.c ****         /* HSE used as PLL clock source : PLLCLK = HSE/PREDIV * PLLMUL */
1125:Drivers/STM32F0xx_HAL_Driver/Src/stm32f0xx_hal_rcc.c ****         pllclk = (uint32_t)((uint64_t) HSE_VALUE / (uint64_t) (prediv)) * ((uint64_t) pllmul);
ARM GAS  /tmp/ccZr23YC.s 			page 53


1126:Drivers/STM32F0xx_HAL_Driver/Src/stm32f0xx_hal_rcc.c ****       }
1127:Drivers/STM32F0xx_HAL_Driver/Src/stm32f0xx_hal_rcc.c **** #if defined(RCC_CFGR_PLLSRC_HSI48_PREDIV)
1128:Drivers/STM32F0xx_HAL_Driver/Src/stm32f0xx_hal_rcc.c ****       else if ((tmpreg & RCC_CFGR_PLLSRC) == RCC_PLLSOURCE_HSI48)
1129:Drivers/STM32F0xx_HAL_Driver/Src/stm32f0xx_hal_rcc.c ****       {
1130:Drivers/STM32F0xx_HAL_Driver/Src/stm32f0xx_hal_rcc.c ****         /* HSI48 used as PLL clock source : PLLCLK = HSI48/PREDIV * PLLMUL */
1131:Drivers/STM32F0xx_HAL_Driver/Src/stm32f0xx_hal_rcc.c ****         pllclk = (uint32_t)((uint64_t) HSI48_VALUE / (uint64_t) (prediv)) * ((uint64_t) pllmul);
1132:Drivers/STM32F0xx_HAL_Driver/Src/stm32f0xx_hal_rcc.c ****       }
1133:Drivers/STM32F0xx_HAL_Driver/Src/stm32f0xx_hal_rcc.c **** #endif /* RCC_CFGR_PLLSRC_HSI48_PREDIV */
1134:Drivers/STM32F0xx_HAL_Driver/Src/stm32f0xx_hal_rcc.c ****       else
1135:Drivers/STM32F0xx_HAL_Driver/Src/stm32f0xx_hal_rcc.c ****       {
1136:Drivers/STM32F0xx_HAL_Driver/Src/stm32f0xx_hal_rcc.c **** #if  (defined(STM32F042x6) || defined(STM32F048xx) || defined(STM32F070x6) || defined(STM32F071xB) 
1137:Drivers/STM32F0xx_HAL_Driver/Src/stm32f0xx_hal_rcc.c ****         /* HSI used as PLL clock source : PLLCLK = HSI/PREDIV * PLLMUL */
1138:Drivers/STM32F0xx_HAL_Driver/Src/stm32f0xx_hal_rcc.c ****         pllclk = (uint32_t)((uint64_t) HSI_VALUE / (uint64_t) (prediv)) * ((uint64_t) pllmul);
1139:Drivers/STM32F0xx_HAL_Driver/Src/stm32f0xx_hal_rcc.c **** #else
1140:Drivers/STM32F0xx_HAL_Driver/Src/stm32f0xx_hal_rcc.c ****         /* HSI used as PLL clock source : PLLCLK = HSI/2 * PLLMUL */
1141:Drivers/STM32F0xx_HAL_Driver/Src/stm32f0xx_hal_rcc.c ****         pllclk = (uint32_t)((uint64_t) (HSI_VALUE >> 1U) * ((uint64_t) pllmul));
1142:Drivers/STM32F0xx_HAL_Driver/Src/stm32f0xx_hal_rcc.c **** #endif
1143:Drivers/STM32F0xx_HAL_Driver/Src/stm32f0xx_hal_rcc.c ****       }
1144:Drivers/STM32F0xx_HAL_Driver/Src/stm32f0xx_hal_rcc.c ****       sysclockfreq = pllclk;
1145:Drivers/STM32F0xx_HAL_Driver/Src/stm32f0xx_hal_rcc.c ****       break;
1146:Drivers/STM32F0xx_HAL_Driver/Src/stm32f0xx_hal_rcc.c ****     }
1147:Drivers/STM32F0xx_HAL_Driver/Src/stm32f0xx_hal_rcc.c **** #if defined(RCC_CFGR_SWS_HSI48)
1148:Drivers/STM32F0xx_HAL_Driver/Src/stm32f0xx_hal_rcc.c ****     case RCC_SYSCLKSOURCE_STATUS_HSI48:    /* HSI48 used as system clock source */
1149:Drivers/STM32F0xx_HAL_Driver/Src/stm32f0xx_hal_rcc.c ****     {
1150:Drivers/STM32F0xx_HAL_Driver/Src/stm32f0xx_hal_rcc.c ****       sysclockfreq = HSI48_VALUE;
 1623              		.loc 1 1150 20 view .LVU485
 1624 0012 1548     		ldr	r0, .L160+4
 1625              	.LVL108:
 1626              	.L152:
1151:Drivers/STM32F0xx_HAL_Driver/Src/stm32f0xx_hal_rcc.c ****       break;
1152:Drivers/STM32F0xx_HAL_Driver/Src/stm32f0xx_hal_rcc.c ****     }
1153:Drivers/STM32F0xx_HAL_Driver/Src/stm32f0xx_hal_rcc.c **** #endif /* RCC_CFGR_SWS_HSI48 */
1154:Drivers/STM32F0xx_HAL_Driver/Src/stm32f0xx_hal_rcc.c ****     case RCC_SYSCLKSOURCE_STATUS_HSI:  /* HSI used as system clock source */
1155:Drivers/STM32F0xx_HAL_Driver/Src/stm32f0xx_hal_rcc.c ****     default: /* HSI used as system clock */
1156:Drivers/STM32F0xx_HAL_Driver/Src/stm32f0xx_hal_rcc.c ****     {
1157:Drivers/STM32F0xx_HAL_Driver/Src/stm32f0xx_hal_rcc.c ****       sysclockfreq = HSI_VALUE;
1158:Drivers/STM32F0xx_HAL_Driver/Src/stm32f0xx_hal_rcc.c ****       break;
1159:Drivers/STM32F0xx_HAL_Driver/Src/stm32f0xx_hal_rcc.c ****     }
1160:Drivers/STM32F0xx_HAL_Driver/Src/stm32f0xx_hal_rcc.c ****   }
1161:Drivers/STM32F0xx_HAL_Driver/Src/stm32f0xx_hal_rcc.c ****   return sysclockfreq;
1162:Drivers/STM32F0xx_HAL_Driver/Src/stm32f0xx_hal_rcc.c **** }
 1627              		.loc 1 1162 1 view .LVU486
 1628              		@ sp needed
 1629 0014 10BD     		pop	{r4, pc}
 1630              	.LVL109:
 1631              	.L153:
1120:Drivers/STM32F0xx_HAL_Driver/Src/stm32f0xx_hal_rcc.c ****       prediv = aPredivFactorTable[(uint32_t)(RCC->CFGR2 & RCC_CFGR2_PREDIV) >> RCC_CFGR2_PREDIV_BIT
 1632              		.loc 1 1120 7 is_stmt 1 view .LVU487
1120:Drivers/STM32F0xx_HAL_Driver/Src/stm32f0xx_hal_rcc.c ****       prediv = aPredivFactorTable[(uint32_t)(RCC->CFGR2 & RCC_CFGR2_PREDIV) >> RCC_CFGR2_PREDIV_BIT
 1633              		.loc 1 1120 72 is_stmt 0 view .LVU488
 1634 0016 910C     		lsrs	r1, r2, #18
 1635 0018 0F23     		movs	r3, #15
 1636 001a 1940     		ands	r1, r3
1120:Drivers/STM32F0xx_HAL_Driver/Src/stm32f0xx_hal_rcc.c ****       prediv = aPredivFactorTable[(uint32_t)(RCC->CFGR2 & RCC_CFGR2_PREDIV) >> RCC_CFGR2_PREDIV_BIT
 1637              		.loc 1 1120 34 view .LVU489
 1638 001c 1348     		ldr	r0, .L160+8
 1639 001e 445C     		ldrb	r4, [r0, r1]
ARM GAS  /tmp/ccZr23YC.s 			page 54


 1640              	.LVL110:
1121:Drivers/STM32F0xx_HAL_Driver/Src/stm32f0xx_hal_rcc.c ****       if ((tmpreg & RCC_CFGR_PLLSRC) == RCC_PLLSOURCE_HSE)
 1641              		.loc 1 1121 7 is_stmt 1 view .LVU490
1121:Drivers/STM32F0xx_HAL_Driver/Src/stm32f0xx_hal_rcc.c ****       if ((tmpreg & RCC_CFGR_PLLSRC) == RCC_PLLSOURCE_HSE)
 1642              		.loc 1 1121 49 is_stmt 0 view .LVU491
 1643 0020 1049     		ldr	r1, .L160
 1644 0022 C96A     		ldr	r1, [r1, #44]
1121:Drivers/STM32F0xx_HAL_Driver/Src/stm32f0xx_hal_rcc.c ****       if ((tmpreg & RCC_CFGR_PLLSRC) == RCC_PLLSOURCE_HSE)
 1645              		.loc 1 1121 77 view .LVU492
 1646 0024 0B40     		ands	r3, r1
1121:Drivers/STM32F0xx_HAL_Driver/Src/stm32f0xx_hal_rcc.c ****       if ((tmpreg & RCC_CFGR_PLLSRC) == RCC_PLLSOURCE_HSE)
 1647              		.loc 1 1121 34 view .LVU493
 1648 0026 1249     		ldr	r1, .L160+12
 1649 0028 C95C     		ldrb	r1, [r1, r3]
 1650              	.LVL111:
1122:Drivers/STM32F0xx_HAL_Driver/Src/stm32f0xx_hal_rcc.c ****       {
 1651              		.loc 1 1122 7 is_stmt 1 view .LVU494
1122:Drivers/STM32F0xx_HAL_Driver/Src/stm32f0xx_hal_rcc.c ****       {
 1652              		.loc 1 1122 19 is_stmt 0 view .LVU495
 1653 002a C023     		movs	r3, #192
 1654 002c 5B02     		lsls	r3, r3, #9
 1655 002e 1A40     		ands	r2, r3
 1656              	.LVL112:
1122:Drivers/STM32F0xx_HAL_Driver/Src/stm32f0xx_hal_rcc.c ****       {
 1657              		.loc 1 1122 10 view .LVU496
 1658 0030 8023     		movs	r3, #128
 1659 0032 5B02     		lsls	r3, r3, #9
 1660 0034 9A42     		cmp	r2, r3
 1661 0036 08D0     		beq	.L158
1128:Drivers/STM32F0xx_HAL_Driver/Src/stm32f0xx_hal_rcc.c ****       {
 1662              		.loc 1 1128 12 is_stmt 1 view .LVU497
1128:Drivers/STM32F0xx_HAL_Driver/Src/stm32f0xx_hal_rcc.c ****       {
 1663              		.loc 1 1128 15 is_stmt 0 view .LVU498
 1664 0038 C023     		movs	r3, #192
 1665 003a 5B02     		lsls	r3, r3, #9
 1666 003c 9A42     		cmp	r2, r3
 1667 003e 09D0     		beq	.L159
1138:Drivers/STM32F0xx_HAL_Driver/Src/stm32f0xx_hal_rcc.c **** #else
 1668              		.loc 1 1138 9 is_stmt 1 view .LVU499
1138:Drivers/STM32F0xx_HAL_Driver/Src/stm32f0xx_hal_rcc.c **** #else
 1669              		.loc 1 1138 18 is_stmt 0 view .LVU500
 1670 0040 0C48     		ldr	r0, .L160+16
 1671 0042 FFF7FEFF 		bl	__aeabi_uidiv
 1672              	.LVL113:
1138:Drivers/STM32F0xx_HAL_Driver/Src/stm32f0xx_hal_rcc.c **** #else
 1673              		.loc 1 1138 16 view .LVU501
 1674 0046 6043     		muls	r0, r4
 1675              	.LVL114:
1138:Drivers/STM32F0xx_HAL_Driver/Src/stm32f0xx_hal_rcc.c **** #else
 1676              		.loc 1 1138 16 view .LVU502
 1677 0048 E4E7     		b	.L152
 1678              	.LVL115:
 1679              	.L158:
1125:Drivers/STM32F0xx_HAL_Driver/Src/stm32f0xx_hal_rcc.c ****       }
 1680              		.loc 1 1125 9 is_stmt 1 view .LVU503
1125:Drivers/STM32F0xx_HAL_Driver/Src/stm32f0xx_hal_rcc.c ****       }
 1681              		.loc 1 1125 18 is_stmt 0 view .LVU504
ARM GAS  /tmp/ccZr23YC.s 			page 55


 1682 004a 0A48     		ldr	r0, .L160+16
 1683 004c FFF7FEFF 		bl	__aeabi_uidiv
 1684              	.LVL116:
1125:Drivers/STM32F0xx_HAL_Driver/Src/stm32f0xx_hal_rcc.c ****       }
 1685              		.loc 1 1125 16 view .LVU505
 1686 0050 6043     		muls	r0, r4
 1687              	.LVL117:
1125:Drivers/STM32F0xx_HAL_Driver/Src/stm32f0xx_hal_rcc.c ****       }
 1688              		.loc 1 1125 16 view .LVU506
 1689 0052 DFE7     		b	.L152
 1690              	.LVL118:
 1691              	.L159:
1131:Drivers/STM32F0xx_HAL_Driver/Src/stm32f0xx_hal_rcc.c ****       }
 1692              		.loc 1 1131 9 is_stmt 1 view .LVU507
1131:Drivers/STM32F0xx_HAL_Driver/Src/stm32f0xx_hal_rcc.c ****       }
 1693              		.loc 1 1131 18 is_stmt 0 view .LVU508
 1694 0054 0448     		ldr	r0, .L160+4
 1695 0056 FFF7FEFF 		bl	__aeabi_uidiv
 1696              	.LVL119:
1131:Drivers/STM32F0xx_HAL_Driver/Src/stm32f0xx_hal_rcc.c ****       }
 1697              		.loc 1 1131 16 view .LVU509
 1698 005a 6043     		muls	r0, r4
 1699              	.LVL120:
1131:Drivers/STM32F0xx_HAL_Driver/Src/stm32f0xx_hal_rcc.c ****       }
 1700              		.loc 1 1131 16 view .LVU510
 1701 005c DAE7     		b	.L152
 1702              	.LVL121:
 1703              	.L157:
1111:Drivers/STM32F0xx_HAL_Driver/Src/stm32f0xx_hal_rcc.c ****   {
 1704              		.loc 1 1111 3 view .LVU511
 1705 005e 0548     		ldr	r0, .L160+16
 1706              	.LVL122:
1161:Drivers/STM32F0xx_HAL_Driver/Src/stm32f0xx_hal_rcc.c **** }
 1707              		.loc 1 1161 3 is_stmt 1 view .LVU512
1161:Drivers/STM32F0xx_HAL_Driver/Src/stm32f0xx_hal_rcc.c **** }
 1708              		.loc 1 1161 10 is_stmt 0 view .LVU513
 1709 0060 D8E7     		b	.L152
 1710              	.L161:
 1711 0062 C046     		.align	2
 1712              	.L160:
 1713 0064 00100240 		.word	1073876992
 1714 0068 006CDC02 		.word	48000000
 1715 006c 00000000 		.word	aPLLMULFactorTable.1
 1716 0070 00000000 		.word	aPredivFactorTable.0
 1717 0074 00127A00 		.word	8000000
 1718              		.cfi_endproc
 1719              	.LFE46:
 1721              		.section	.text.HAL_RCC_ClockConfig,"ax",%progbits
 1722              		.align	1
 1723              		.global	HAL_RCC_ClockConfig
 1724              		.syntax unified
 1725              		.code	16
 1726              		.thumb_func
 1728              	HAL_RCC_ClockConfig:
 1729              	.LVL123:
 1730              	.LFB42:
 778:Drivers/STM32F0xx_HAL_Driver/Src/stm32f0xx_hal_rcc.c ****   uint32_t tickstart;
ARM GAS  /tmp/ccZr23YC.s 			page 56


 1731              		.loc 1 778 1 is_stmt 1 view -0
 1732              		.cfi_startproc
 1733              		@ args = 0, pretend = 0, frame = 0
 1734              		@ frame_needed = 0, uses_anonymous_args = 0
 778:Drivers/STM32F0xx_HAL_Driver/Src/stm32f0xx_hal_rcc.c ****   uint32_t tickstart;
 1735              		.loc 1 778 1 is_stmt 0 view .LVU515
 1736 0000 70B5     		push	{r4, r5, r6, lr}
 1737              	.LCFI6:
 1738              		.cfi_def_cfa_offset 16
 1739              		.cfi_offset 4, -16
 1740              		.cfi_offset 5, -12
 1741              		.cfi_offset 6, -8
 1742              		.cfi_offset 14, -4
 1743 0002 0400     		movs	r4, r0
 1744 0004 0D00     		movs	r5, r1
 779:Drivers/STM32F0xx_HAL_Driver/Src/stm32f0xx_hal_rcc.c **** 
 1745              		.loc 1 779 3 is_stmt 1 view .LVU516
 782:Drivers/STM32F0xx_HAL_Driver/Src/stm32f0xx_hal_rcc.c ****   {
 1746              		.loc 1 782 3 view .LVU517
 782:Drivers/STM32F0xx_HAL_Driver/Src/stm32f0xx_hal_rcc.c ****   {
 1747              		.loc 1 782 5 is_stmt 0 view .LVU518
 1748 0006 0028     		cmp	r0, #0
 1749 0008 00D1     		bne	.LCB1648
 1750 000a 86E0     		b	.L176	@long jump
 1751              	.LCB1648:
 788:Drivers/STM32F0xx_HAL_Driver/Src/stm32f0xx_hal_rcc.c ****   assert_param(IS_FLASH_LATENCY(FLatency));
 1752              		.loc 1 788 3 is_stmt 1 view .LVU519
 789:Drivers/STM32F0xx_HAL_Driver/Src/stm32f0xx_hal_rcc.c **** 
 1753              		.loc 1 789 3 view .LVU520
 796:Drivers/STM32F0xx_HAL_Driver/Src/stm32f0xx_hal_rcc.c ****   {    
 1754              		.loc 1 796 3 view .LVU521
 796:Drivers/STM32F0xx_HAL_Driver/Src/stm32f0xx_hal_rcc.c ****   {    
 1755              		.loc 1 796 17 is_stmt 0 view .LVU522
 1756 000c 474B     		ldr	r3, .L195
 1757 000e 1A68     		ldr	r2, [r3]
 1758 0010 0123     		movs	r3, #1
 1759 0012 1340     		ands	r3, r2
 796:Drivers/STM32F0xx_HAL_Driver/Src/stm32f0xx_hal_rcc.c ****   {    
 1760              		.loc 1 796 5 view .LVU523
 1761 0014 8B42     		cmp	r3, r1
 1762 0016 0AD2     		bcs	.L164
 799:Drivers/STM32F0xx_HAL_Driver/Src/stm32f0xx_hal_rcc.c ****     
 1763              		.loc 1 799 5 is_stmt 1 view .LVU524
 1764 0018 4449     		ldr	r1, .L195
 1765              	.LVL124:
 799:Drivers/STM32F0xx_HAL_Driver/Src/stm32f0xx_hal_rcc.c ****     
 1766              		.loc 1 799 5 is_stmt 0 view .LVU525
 1767 001a 0B68     		ldr	r3, [r1]
 1768 001c 0122     		movs	r2, #1
 1769 001e 9343     		bics	r3, r2
 1770 0020 2B43     		orrs	r3, r5
 1771 0022 0B60     		str	r3, [r1]
 803:Drivers/STM32F0xx_HAL_Driver/Src/stm32f0xx_hal_rcc.c ****     {
 1772              		.loc 1 803 5 is_stmt 1 view .LVU526
 803:Drivers/STM32F0xx_HAL_Driver/Src/stm32f0xx_hal_rcc.c ****     {
 1773              		.loc 1 803 8 is_stmt 0 view .LVU527
 1774 0024 0B68     		ldr	r3, [r1]
ARM GAS  /tmp/ccZr23YC.s 			page 57


 1775 0026 1A40     		ands	r2, r3
 803:Drivers/STM32F0xx_HAL_Driver/Src/stm32f0xx_hal_rcc.c ****     {
 1776              		.loc 1 803 7 view .LVU528
 1777 0028 AA42     		cmp	r2, r5
 1778 002a 00D0     		beq	.LCB1670
 1779 002c 77E0     		b	.L177	@long jump
 1780              	.LCB1670:
 1781              	.L164:
 810:Drivers/STM32F0xx_HAL_Driver/Src/stm32f0xx_hal_rcc.c ****   {
 1782              		.loc 1 810 3 is_stmt 1 view .LVU529
 810:Drivers/STM32F0xx_HAL_Driver/Src/stm32f0xx_hal_rcc.c ****   {
 1783              		.loc 1 810 25 is_stmt 0 view .LVU530
 1784 002e 2368     		ldr	r3, [r4]
 810:Drivers/STM32F0xx_HAL_Driver/Src/stm32f0xx_hal_rcc.c ****   {
 1785              		.loc 1 810 5 view .LVU531
 1786 0030 9A07     		lsls	r2, r3, #30
 1787 0032 0ED5     		bpl	.L165
 814:Drivers/STM32F0xx_HAL_Driver/Src/stm32f0xx_hal_rcc.c ****     {
 1788              		.loc 1 814 5 is_stmt 1 view .LVU532
 814:Drivers/STM32F0xx_HAL_Driver/Src/stm32f0xx_hal_rcc.c ****     {
 1789              		.loc 1 814 7 is_stmt 0 view .LVU533
 1790 0034 5B07     		lsls	r3, r3, #29
 1791 0036 05D5     		bpl	.L166
 816:Drivers/STM32F0xx_HAL_Driver/Src/stm32f0xx_hal_rcc.c ****     }
 1792              		.loc 1 816 7 is_stmt 1 view .LVU534
 1793 0038 3D4A     		ldr	r2, .L195+4
 1794 003a 5168     		ldr	r1, [r2, #4]
 1795 003c E023     		movs	r3, #224
 1796 003e DB00     		lsls	r3, r3, #3
 1797 0040 0B43     		orrs	r3, r1
 1798 0042 5360     		str	r3, [r2, #4]
 1799              	.L166:
 820:Drivers/STM32F0xx_HAL_Driver/Src/stm32f0xx_hal_rcc.c ****     MODIFY_REG(RCC->CFGR, RCC_CFGR_HPRE, RCC_ClkInitStruct->AHBCLKDivider);
 1800              		.loc 1 820 5 view .LVU535
 821:Drivers/STM32F0xx_HAL_Driver/Src/stm32f0xx_hal_rcc.c ****   }
 1801              		.loc 1 821 5 view .LVU536
 1802 0044 3A4A     		ldr	r2, .L195+4
 1803 0046 5368     		ldr	r3, [r2, #4]
 1804 0048 F021     		movs	r1, #240
 1805 004a 8B43     		bics	r3, r1
 1806 004c A168     		ldr	r1, [r4, #8]
 1807 004e 0B43     		orrs	r3, r1
 1808 0050 5360     		str	r3, [r2, #4]
 1809              	.L165:
 825:Drivers/STM32F0xx_HAL_Driver/Src/stm32f0xx_hal_rcc.c ****   {
 1810              		.loc 1 825 3 view .LVU537
 825:Drivers/STM32F0xx_HAL_Driver/Src/stm32f0xx_hal_rcc.c ****   {
 1811              		.loc 1 825 25 is_stmt 0 view .LVU538
 1812 0052 2368     		ldr	r3, [r4]
 825:Drivers/STM32F0xx_HAL_Driver/Src/stm32f0xx_hal_rcc.c ****   {
 1813              		.loc 1 825 5 view .LVU539
 1814 0054 DB07     		lsls	r3, r3, #31
 1815 0056 35D5     		bpl	.L167
 827:Drivers/STM32F0xx_HAL_Driver/Src/stm32f0xx_hal_rcc.c ****     
 1816              		.loc 1 827 5 is_stmt 1 view .LVU540
 830:Drivers/STM32F0xx_HAL_Driver/Src/stm32f0xx_hal_rcc.c ****     {
 1817              		.loc 1 830 5 view .LVU541
ARM GAS  /tmp/ccZr23YC.s 			page 58


 830:Drivers/STM32F0xx_HAL_Driver/Src/stm32f0xx_hal_rcc.c ****     {
 1818              		.loc 1 830 25 is_stmt 0 view .LVU542
 1819 0058 6368     		ldr	r3, [r4, #4]
 830:Drivers/STM32F0xx_HAL_Driver/Src/stm32f0xx_hal_rcc.c ****     {
 1820              		.loc 1 830 7 view .LVU543
 1821 005a 012B     		cmp	r3, #1
 1822 005c 09D0     		beq	.L191
 839:Drivers/STM32F0xx_HAL_Driver/Src/stm32f0xx_hal_rcc.c ****     {
 1823              		.loc 1 839 10 is_stmt 1 view .LVU544
 839:Drivers/STM32F0xx_HAL_Driver/Src/stm32f0xx_hal_rcc.c ****     {
 1824              		.loc 1 839 12 is_stmt 0 view .LVU545
 1825 005e 022B     		cmp	r3, #2
 1826 0060 24D0     		beq	.L192
 849:Drivers/STM32F0xx_HAL_Driver/Src/stm32f0xx_hal_rcc.c ****     {
 1827              		.loc 1 849 10 is_stmt 1 view .LVU546
 849:Drivers/STM32F0xx_HAL_Driver/Src/stm32f0xx_hal_rcc.c ****     {
 1828              		.loc 1 849 12 is_stmt 0 view .LVU547
 1829 0062 032B     		cmp	r3, #3
 1830 0064 28D0     		beq	.L193
 862:Drivers/STM32F0xx_HAL_Driver/Src/stm32f0xx_hal_rcc.c ****       {
 1831              		.loc 1 862 7 is_stmt 1 view .LVU548
 862:Drivers/STM32F0xx_HAL_Driver/Src/stm32f0xx_hal_rcc.c ****       {
 1832              		.loc 1 862 10 is_stmt 0 view .LVU549
 1833 0066 324A     		ldr	r2, .L195+4
 1834 0068 1268     		ldr	r2, [r2]
 862:Drivers/STM32F0xx_HAL_Driver/Src/stm32f0xx_hal_rcc.c ****       {
 1835              		.loc 1 862 9 view .LVU550
 1836 006a 9207     		lsls	r2, r2, #30
 1837 006c 05D4     		bmi	.L169
 864:Drivers/STM32F0xx_HAL_Driver/Src/stm32f0xx_hal_rcc.c ****       }
 1838              		.loc 1 864 16 view .LVU551
 1839 006e 0120     		movs	r0, #1
 1840              	.LVL125:
 864:Drivers/STM32F0xx_HAL_Driver/Src/stm32f0xx_hal_rcc.c ****       }
 1841              		.loc 1 864 16 view .LVU552
 1842 0070 52E0     		b	.L163
 1843              	.LVL126:
 1844              	.L191:
 833:Drivers/STM32F0xx_HAL_Driver/Src/stm32f0xx_hal_rcc.c ****       {
 1845              		.loc 1 833 7 is_stmt 1 view .LVU553
 833:Drivers/STM32F0xx_HAL_Driver/Src/stm32f0xx_hal_rcc.c ****       {
 1846              		.loc 1 833 10 is_stmt 0 view .LVU554
 1847 0072 2F4A     		ldr	r2, .L195+4
 1848 0074 1268     		ldr	r2, [r2]
 833:Drivers/STM32F0xx_HAL_Driver/Src/stm32f0xx_hal_rcc.c ****       {
 1849              		.loc 1 833 9 view .LVU555
 1850 0076 9203     		lsls	r2, r2, #14
 1851 0078 53D5     		bpl	.L194
 1852              	.L169:
 867:Drivers/STM32F0xx_HAL_Driver/Src/stm32f0xx_hal_rcc.c **** 
 1853              		.loc 1 867 5 is_stmt 1 view .LVU556
 1854 007a 2D49     		ldr	r1, .L195+4
 1855 007c 4A68     		ldr	r2, [r1, #4]
 1856 007e 0320     		movs	r0, #3
 1857              	.LVL127:
 867:Drivers/STM32F0xx_HAL_Driver/Src/stm32f0xx_hal_rcc.c **** 
 1858              		.loc 1 867 5 is_stmt 0 view .LVU557
ARM GAS  /tmp/ccZr23YC.s 			page 59


 1859 0080 8243     		bics	r2, r0
 1860 0082 1343     		orrs	r3, r2
 1861 0084 4B60     		str	r3, [r1, #4]
 870:Drivers/STM32F0xx_HAL_Driver/Src/stm32f0xx_hal_rcc.c ****     
 1862              		.loc 1 870 5 is_stmt 1 view .LVU558
 870:Drivers/STM32F0xx_HAL_Driver/Src/stm32f0xx_hal_rcc.c ****     
 1863              		.loc 1 870 17 is_stmt 0 view .LVU559
 1864 0086 FFF7FEFF 		bl	HAL_GetTick
 1865              	.LVL128:
 1866 008a 0600     		movs	r6, r0
 1867              	.LVL129:
 872:Drivers/STM32F0xx_HAL_Driver/Src/stm32f0xx_hal_rcc.c ****     {
 1868              		.loc 1 872 5 is_stmt 1 view .LVU560
 1869              	.L172:
 872:Drivers/STM32F0xx_HAL_Driver/Src/stm32f0xx_hal_rcc.c ****     {
 1870              		.loc 1 872 42 view .LVU561
 872:Drivers/STM32F0xx_HAL_Driver/Src/stm32f0xx_hal_rcc.c ****     {
 1871              		.loc 1 872 12 is_stmt 0 view .LVU562
 1872 008c 284B     		ldr	r3, .L195+4
 1873 008e 5B68     		ldr	r3, [r3, #4]
 1874 0090 0C22     		movs	r2, #12
 1875 0092 1A40     		ands	r2, r3
 872:Drivers/STM32F0xx_HAL_Driver/Src/stm32f0xx_hal_rcc.c ****     {
 1876              		.loc 1 872 63 view .LVU563
 1877 0094 6368     		ldr	r3, [r4, #4]
 872:Drivers/STM32F0xx_HAL_Driver/Src/stm32f0xx_hal_rcc.c ****     {
 1878              		.loc 1 872 78 view .LVU564
 1879 0096 9B00     		lsls	r3, r3, #2
 872:Drivers/STM32F0xx_HAL_Driver/Src/stm32f0xx_hal_rcc.c ****     {
 1880              		.loc 1 872 42 view .LVU565
 1881 0098 9A42     		cmp	r2, r3
 1882 009a 13D0     		beq	.L167
 874:Drivers/STM32F0xx_HAL_Driver/Src/stm32f0xx_hal_rcc.c ****       {
 1883              		.loc 1 874 7 is_stmt 1 view .LVU566
 874:Drivers/STM32F0xx_HAL_Driver/Src/stm32f0xx_hal_rcc.c ****       {
 1884              		.loc 1 874 11 is_stmt 0 view .LVU567
 1885 009c FFF7FEFF 		bl	HAL_GetTick
 1886              	.LVL130:
 874:Drivers/STM32F0xx_HAL_Driver/Src/stm32f0xx_hal_rcc.c ****       {
 1887              		.loc 1 874 25 discriminator 1 view .LVU568
 1888 00a0 801B     		subs	r0, r0, r6
 874:Drivers/STM32F0xx_HAL_Driver/Src/stm32f0xx_hal_rcc.c ****       {
 1889              		.loc 1 874 9 discriminator 1 view .LVU569
 1890 00a2 244B     		ldr	r3, .L195+8
 1891 00a4 9842     		cmp	r0, r3
 1892 00a6 F1D9     		bls	.L172
 876:Drivers/STM32F0xx_HAL_Driver/Src/stm32f0xx_hal_rcc.c ****       }
 1893              		.loc 1 876 16 view .LVU570
 1894 00a8 0320     		movs	r0, #3
 1895 00aa 35E0     		b	.L163
 1896              	.LVL131:
 1897              	.L192:
 842:Drivers/STM32F0xx_HAL_Driver/Src/stm32f0xx_hal_rcc.c ****       {
 1898              		.loc 1 842 7 is_stmt 1 view .LVU571
 842:Drivers/STM32F0xx_HAL_Driver/Src/stm32f0xx_hal_rcc.c ****       {
 1899              		.loc 1 842 10 is_stmt 0 view .LVU572
 1900 00ac 204A     		ldr	r2, .L195+4
ARM GAS  /tmp/ccZr23YC.s 			page 60


 1901 00ae 1268     		ldr	r2, [r2]
 842:Drivers/STM32F0xx_HAL_Driver/Src/stm32f0xx_hal_rcc.c ****       {
 1902              		.loc 1 842 9 view .LVU573
 1903 00b0 9201     		lsls	r2, r2, #6
 1904 00b2 E2D4     		bmi	.L169
 844:Drivers/STM32F0xx_HAL_Driver/Src/stm32f0xx_hal_rcc.c ****       }
 1905              		.loc 1 844 16 view .LVU574
 1906 00b4 0120     		movs	r0, #1
 1907              	.LVL132:
 844:Drivers/STM32F0xx_HAL_Driver/Src/stm32f0xx_hal_rcc.c ****       }
 1908              		.loc 1 844 16 view .LVU575
 1909 00b6 2FE0     		b	.L163
 1910              	.LVL133:
 1911              	.L193:
 852:Drivers/STM32F0xx_HAL_Driver/Src/stm32f0xx_hal_rcc.c ****       {
 1912              		.loc 1 852 7 is_stmt 1 view .LVU576
 852:Drivers/STM32F0xx_HAL_Driver/Src/stm32f0xx_hal_rcc.c ****       {
 1913              		.loc 1 852 10 is_stmt 0 view .LVU577
 1914 00b8 1D4A     		ldr	r2, .L195+4
 1915 00ba 526B     		ldr	r2, [r2, #52]
 852:Drivers/STM32F0xx_HAL_Driver/Src/stm32f0xx_hal_rcc.c ****       {
 1916              		.loc 1 852 9 view .LVU578
 1917 00bc 9203     		lsls	r2, r2, #14
 1918 00be DCD4     		bmi	.L169
 854:Drivers/STM32F0xx_HAL_Driver/Src/stm32f0xx_hal_rcc.c ****       }
 1919              		.loc 1 854 16 view .LVU579
 1920 00c0 0120     		movs	r0, #1
 1921              	.LVL134:
 854:Drivers/STM32F0xx_HAL_Driver/Src/stm32f0xx_hal_rcc.c ****       }
 1922              		.loc 1 854 16 view .LVU580
 1923 00c2 29E0     		b	.L163
 1924              	.L167:
 882:Drivers/STM32F0xx_HAL_Driver/Src/stm32f0xx_hal_rcc.c ****   {    
 1925              		.loc 1 882 3 is_stmt 1 view .LVU581
 882:Drivers/STM32F0xx_HAL_Driver/Src/stm32f0xx_hal_rcc.c ****   {    
 1926              		.loc 1 882 17 is_stmt 0 view .LVU582
 1927 00c4 194B     		ldr	r3, .L195
 1928 00c6 1A68     		ldr	r2, [r3]
 1929 00c8 0123     		movs	r3, #1
 1930 00ca 1340     		ands	r3, r2
 882:Drivers/STM32F0xx_HAL_Driver/Src/stm32f0xx_hal_rcc.c ****   {    
 1931              		.loc 1 882 5 view .LVU583
 1932 00cc AB42     		cmp	r3, r5
 1933 00ce 09D9     		bls	.L174
 885:Drivers/STM32F0xx_HAL_Driver/Src/stm32f0xx_hal_rcc.c ****     
 1934              		.loc 1 885 5 is_stmt 1 view .LVU584
 1935 00d0 1649     		ldr	r1, .L195
 1936 00d2 0B68     		ldr	r3, [r1]
 1937 00d4 0122     		movs	r2, #1
 1938 00d6 9343     		bics	r3, r2
 1939 00d8 2B43     		orrs	r3, r5
 1940 00da 0B60     		str	r3, [r1]
 889:Drivers/STM32F0xx_HAL_Driver/Src/stm32f0xx_hal_rcc.c ****     {
 1941              		.loc 1 889 5 view .LVU585
 889:Drivers/STM32F0xx_HAL_Driver/Src/stm32f0xx_hal_rcc.c ****     {
 1942              		.loc 1 889 8 is_stmt 0 view .LVU586
 1943 00dc 0B68     		ldr	r3, [r1]
ARM GAS  /tmp/ccZr23YC.s 			page 61


 1944 00de 1A40     		ands	r2, r3
 889:Drivers/STM32F0xx_HAL_Driver/Src/stm32f0xx_hal_rcc.c ****     {
 1945              		.loc 1 889 7 view .LVU587
 1946 00e0 AA42     		cmp	r2, r5
 1947 00e2 20D1     		bne	.L183
 1948              	.L174:
 896:Drivers/STM32F0xx_HAL_Driver/Src/stm32f0xx_hal_rcc.c ****   {
 1949              		.loc 1 896 3 is_stmt 1 view .LVU588
 896:Drivers/STM32F0xx_HAL_Driver/Src/stm32f0xx_hal_rcc.c ****   {
 1950              		.loc 1 896 25 is_stmt 0 view .LVU589
 1951 00e4 2368     		ldr	r3, [r4]
 896:Drivers/STM32F0xx_HAL_Driver/Src/stm32f0xx_hal_rcc.c ****   {
 1952              		.loc 1 896 5 view .LVU590
 1953 00e6 5B07     		lsls	r3, r3, #29
 1954 00e8 06D5     		bpl	.L175
 898:Drivers/STM32F0xx_HAL_Driver/Src/stm32f0xx_hal_rcc.c ****     MODIFY_REG(RCC->CFGR, RCC_CFGR_PPRE, RCC_ClkInitStruct->APB1CLKDivider);
 1955              		.loc 1 898 5 is_stmt 1 view .LVU591
 899:Drivers/STM32F0xx_HAL_Driver/Src/stm32f0xx_hal_rcc.c ****   }
 1956              		.loc 1 899 5 view .LVU592
 1957 00ea 114A     		ldr	r2, .L195+4
 1958 00ec 5368     		ldr	r3, [r2, #4]
 1959 00ee 1249     		ldr	r1, .L195+12
 1960 00f0 0B40     		ands	r3, r1
 1961 00f2 E168     		ldr	r1, [r4, #12]
 1962 00f4 0B43     		orrs	r3, r1
 1963 00f6 5360     		str	r3, [r2, #4]
 1964              	.L175:
 903:Drivers/STM32F0xx_HAL_Driver/Src/stm32f0xx_hal_rcc.c **** 
 1965              		.loc 1 903 3 view .LVU593
 903:Drivers/STM32F0xx_HAL_Driver/Src/stm32f0xx_hal_rcc.c **** 
 1966              		.loc 1 903 21 is_stmt 0 view .LVU594
 1967 00f8 FFF7FEFF 		bl	HAL_RCC_GetSysClockFreq
 1968              	.LVL135:
 903:Drivers/STM32F0xx_HAL_Driver/Src/stm32f0xx_hal_rcc.c **** 
 1969              		.loc 1 903 68 discriminator 1 view .LVU595
 1970 00fc 0C4B     		ldr	r3, .L195+4
 1971 00fe 5A68     		ldr	r2, [r3, #4]
 903:Drivers/STM32F0xx_HAL_Driver/Src/stm32f0xx_hal_rcc.c **** 
 1972              		.loc 1 903 91 discriminator 1 view .LVU596
 1973 0100 1209     		lsrs	r2, r2, #4
 1974 0102 0F23     		movs	r3, #15
 1975 0104 1340     		ands	r3, r2
 903:Drivers/STM32F0xx_HAL_Driver/Src/stm32f0xx_hal_rcc.c **** 
 1976              		.loc 1 903 63 discriminator 1 view .LVU597
 1977 0106 0D4A     		ldr	r2, .L195+16
 1978 0108 D35C     		ldrb	r3, [r2, r3]
 903:Drivers/STM32F0xx_HAL_Driver/Src/stm32f0xx_hal_rcc.c **** 
 1979              		.loc 1 903 47 discriminator 1 view .LVU598
 1980 010a D840     		lsrs	r0, r0, r3
 903:Drivers/STM32F0xx_HAL_Driver/Src/stm32f0xx_hal_rcc.c **** 
 1981              		.loc 1 903 19 discriminator 1 view .LVU599
 1982 010c 0C4B     		ldr	r3, .L195+20
 1983 010e 1860     		str	r0, [r3]
 906:Drivers/STM32F0xx_HAL_Driver/Src/stm32f0xx_hal_rcc.c ****   
 1984              		.loc 1 906 3 is_stmt 1 view .LVU600
 1985 0110 0320     		movs	r0, #3
 1986 0112 FFF7FEFF 		bl	HAL_InitTick
ARM GAS  /tmp/ccZr23YC.s 			page 62


 1987              	.LVL136:
 908:Drivers/STM32F0xx_HAL_Driver/Src/stm32f0xx_hal_rcc.c **** }
 1988              		.loc 1 908 3 view .LVU601
 908:Drivers/STM32F0xx_HAL_Driver/Src/stm32f0xx_hal_rcc.c **** }
 1989              		.loc 1 908 10 is_stmt 0 view .LVU602
 1990 0116 0020     		movs	r0, #0
 1991              	.L163:
 909:Drivers/STM32F0xx_HAL_Driver/Src/stm32f0xx_hal_rcc.c **** 
 1992              		.loc 1 909 1 view .LVU603
 1993              		@ sp needed
 1994              	.LVL137:
 1995              	.LVL138:
 909:Drivers/STM32F0xx_HAL_Driver/Src/stm32f0xx_hal_rcc.c **** 
 1996              		.loc 1 909 1 view .LVU604
 1997 0118 70BD     		pop	{r4, r5, r6, pc}
 1998              	.LVL139:
 1999              	.L176:
 784:Drivers/STM32F0xx_HAL_Driver/Src/stm32f0xx_hal_rcc.c ****   }
 2000              		.loc 1 784 12 view .LVU605
 2001 011a 0120     		movs	r0, #1
 2002              	.LVL140:
 784:Drivers/STM32F0xx_HAL_Driver/Src/stm32f0xx_hal_rcc.c ****   }
 2003              		.loc 1 784 12 view .LVU606
 2004 011c FCE7     		b	.L163
 2005              	.LVL141:
 2006              	.L177:
 805:Drivers/STM32F0xx_HAL_Driver/Src/stm32f0xx_hal_rcc.c ****     }
 2007              		.loc 1 805 14 view .LVU607
 2008 011e 0120     		movs	r0, #1
 2009              	.LVL142:
 805:Drivers/STM32F0xx_HAL_Driver/Src/stm32f0xx_hal_rcc.c ****     }
 2010              		.loc 1 805 14 view .LVU608
 2011 0120 FAE7     		b	.L163
 2012              	.LVL143:
 2013              	.L194:
 835:Drivers/STM32F0xx_HAL_Driver/Src/stm32f0xx_hal_rcc.c ****       }
 2014              		.loc 1 835 16 view .LVU609
 2015 0122 0120     		movs	r0, #1
 2016              	.LVL144:
 835:Drivers/STM32F0xx_HAL_Driver/Src/stm32f0xx_hal_rcc.c ****       }
 2017              		.loc 1 835 16 view .LVU610
 2018 0124 F8E7     		b	.L163
 2019              	.L183:
 891:Drivers/STM32F0xx_HAL_Driver/Src/stm32f0xx_hal_rcc.c ****     }
 2020              		.loc 1 891 14 view .LVU611
 2021 0126 0120     		movs	r0, #1
 2022 0128 F6E7     		b	.L163
 2023              	.L196:
 2024 012a C046     		.align	2
 2025              	.L195:
 2026 012c 00200240 		.word	1073881088
 2027 0130 00100240 		.word	1073876992
 2028 0134 88130000 		.word	5000
 2029 0138 FFF8FFFF 		.word	-1793
 2030 013c 00000000 		.word	AHBPrescTable
 2031 0140 00000000 		.word	SystemCoreClock
 2032              		.cfi_endproc
ARM GAS  /tmp/ccZr23YC.s 			page 63


 2033              	.LFE42:
 2035              		.section	.text.HAL_RCC_GetHCLKFreq,"ax",%progbits
 2036              		.align	1
 2037              		.global	HAL_RCC_GetHCLKFreq
 2038              		.syntax unified
 2039              		.code	16
 2040              		.thumb_func
 2042              	HAL_RCC_GetHCLKFreq:
 2043              	.LFB47:
1163:Drivers/STM32F0xx_HAL_Driver/Src/stm32f0xx_hal_rcc.c **** 
1164:Drivers/STM32F0xx_HAL_Driver/Src/stm32f0xx_hal_rcc.c **** /**
1165:Drivers/STM32F0xx_HAL_Driver/Src/stm32f0xx_hal_rcc.c ****   * @brief  Returns the HCLK frequency     
1166:Drivers/STM32F0xx_HAL_Driver/Src/stm32f0xx_hal_rcc.c ****   * @note   Each time HCLK changes, this function must be called to update the
1167:Drivers/STM32F0xx_HAL_Driver/Src/stm32f0xx_hal_rcc.c ****   *         right HCLK value. Otherwise, any configuration based on this function will be incorrect
1168:Drivers/STM32F0xx_HAL_Driver/Src/stm32f0xx_hal_rcc.c ****   * 
1169:Drivers/STM32F0xx_HAL_Driver/Src/stm32f0xx_hal_rcc.c ****   * @note   The SystemCoreClock CMSIS variable is used to store System Clock Frequency 
1170:Drivers/STM32F0xx_HAL_Driver/Src/stm32f0xx_hal_rcc.c ****   *         and updated within this function
1171:Drivers/STM32F0xx_HAL_Driver/Src/stm32f0xx_hal_rcc.c ****   * @retval HCLK frequency
1172:Drivers/STM32F0xx_HAL_Driver/Src/stm32f0xx_hal_rcc.c ****   */
1173:Drivers/STM32F0xx_HAL_Driver/Src/stm32f0xx_hal_rcc.c **** uint32_t HAL_RCC_GetHCLKFreq(void)
1174:Drivers/STM32F0xx_HAL_Driver/Src/stm32f0xx_hal_rcc.c **** {
 2044              		.loc 1 1174 1 is_stmt 1 view -0
 2045              		.cfi_startproc
 2046              		@ args = 0, pretend = 0, frame = 0
 2047              		@ frame_needed = 0, uses_anonymous_args = 0
 2048              		@ link register save eliminated.
1175:Drivers/STM32F0xx_HAL_Driver/Src/stm32f0xx_hal_rcc.c ****   return SystemCoreClock;
 2049              		.loc 1 1175 3 view .LVU613
 2050              		.loc 1 1175 10 is_stmt 0 view .LVU614
 2051 0000 014B     		ldr	r3, .L198
 2052              		.loc 1 1175 10 discriminator 1 view .LVU615
 2053 0002 1868     		ldr	r0, [r3]
1176:Drivers/STM32F0xx_HAL_Driver/Src/stm32f0xx_hal_rcc.c **** }
 2054              		.loc 1 1176 1 view .LVU616
 2055              		@ sp needed
 2056 0004 7047     		bx	lr
 2057              	.L199:
 2058 0006 C046     		.align	2
 2059              	.L198:
 2060 0008 00000000 		.word	SystemCoreClock
 2061              		.cfi_endproc
 2062              	.LFE47:
 2064              		.section	.text.HAL_RCC_GetPCLK1Freq,"ax",%progbits
 2065              		.align	1
 2066              		.global	HAL_RCC_GetPCLK1Freq
 2067              		.syntax unified
 2068              		.code	16
 2069              		.thumb_func
 2071              	HAL_RCC_GetPCLK1Freq:
 2072              	.LFB48:
1177:Drivers/STM32F0xx_HAL_Driver/Src/stm32f0xx_hal_rcc.c **** 
1178:Drivers/STM32F0xx_HAL_Driver/Src/stm32f0xx_hal_rcc.c **** /**
1179:Drivers/STM32F0xx_HAL_Driver/Src/stm32f0xx_hal_rcc.c ****   * @brief  Returns the PCLK1 frequency     
1180:Drivers/STM32F0xx_HAL_Driver/Src/stm32f0xx_hal_rcc.c ****   * @note   Each time PCLK1 changes, this function must be called to update the
1181:Drivers/STM32F0xx_HAL_Driver/Src/stm32f0xx_hal_rcc.c ****   *         right PCLK1 value. Otherwise, any configuration based on this function will be incorrec
1182:Drivers/STM32F0xx_HAL_Driver/Src/stm32f0xx_hal_rcc.c ****   * @retval PCLK1 frequency
1183:Drivers/STM32F0xx_HAL_Driver/Src/stm32f0xx_hal_rcc.c ****   */
ARM GAS  /tmp/ccZr23YC.s 			page 64


1184:Drivers/STM32F0xx_HAL_Driver/Src/stm32f0xx_hal_rcc.c **** uint32_t HAL_RCC_GetPCLK1Freq(void)
1185:Drivers/STM32F0xx_HAL_Driver/Src/stm32f0xx_hal_rcc.c **** {
 2073              		.loc 1 1185 1 is_stmt 1 view -0
 2074              		.cfi_startproc
 2075              		@ args = 0, pretend = 0, frame = 0
 2076              		@ frame_needed = 0, uses_anonymous_args = 0
 2077 0000 10B5     		push	{r4, lr}
 2078              	.LCFI7:
 2079              		.cfi_def_cfa_offset 8
 2080              		.cfi_offset 4, -8
 2081              		.cfi_offset 14, -4
1186:Drivers/STM32F0xx_HAL_Driver/Src/stm32f0xx_hal_rcc.c ****   /* Get HCLK source and Compute PCLK1 frequency ---------------------------*/
1187:Drivers/STM32F0xx_HAL_Driver/Src/stm32f0xx_hal_rcc.c ****   return (HAL_RCC_GetHCLKFreq() >> APBPrescTable[(RCC->CFGR & RCC_CFGR_PPRE) >> RCC_CFGR_PPRE_BITNU
 2082              		.loc 1 1187 3 view .LVU618
 2083              		.loc 1 1187 11 is_stmt 0 view .LVU619
 2084 0002 FFF7FEFF 		bl	HAL_RCC_GetHCLKFreq
 2085              	.LVL145:
 2086              		.loc 1 1187 54 discriminator 1 view .LVU620
 2087 0006 044B     		ldr	r3, .L201
 2088 0008 5A68     		ldr	r2, [r3, #4]
 2089              		.loc 1 1187 78 discriminator 1 view .LVU621
 2090 000a 120A     		lsrs	r2, r2, #8
 2091 000c 0723     		movs	r3, #7
 2092 000e 1340     		ands	r3, r2
 2093              		.loc 1 1187 49 discriminator 1 view .LVU622
 2094 0010 024A     		ldr	r2, .L201+4
 2095 0012 D35C     		ldrb	r3, [r2, r3]
 2096              		.loc 1 1187 33 discriminator 1 view .LVU623
 2097 0014 D840     		lsrs	r0, r0, r3
1188:Drivers/STM32F0xx_HAL_Driver/Src/stm32f0xx_hal_rcc.c **** }    
 2098              		.loc 1 1188 1 view .LVU624
 2099              		@ sp needed
 2100 0016 10BD     		pop	{r4, pc}
 2101              	.L202:
 2102              		.align	2
 2103              	.L201:
 2104 0018 00100240 		.word	1073876992
 2105 001c 00000000 		.word	APBPrescTable
 2106              		.cfi_endproc
 2107              	.LFE48:
 2109              		.section	.text.HAL_RCC_GetOscConfig,"ax",%progbits
 2110              		.align	1
 2111              		.global	HAL_RCC_GetOscConfig
 2112              		.syntax unified
 2113              		.code	16
 2114              		.thumb_func
 2116              	HAL_RCC_GetOscConfig:
 2117              	.LVL146:
 2118              	.LFB49:
1189:Drivers/STM32F0xx_HAL_Driver/Src/stm32f0xx_hal_rcc.c **** 
1190:Drivers/STM32F0xx_HAL_Driver/Src/stm32f0xx_hal_rcc.c **** /**
1191:Drivers/STM32F0xx_HAL_Driver/Src/stm32f0xx_hal_rcc.c ****   * @brief  Configures the RCC_OscInitStruct according to the internal 
1192:Drivers/STM32F0xx_HAL_Driver/Src/stm32f0xx_hal_rcc.c ****   * RCC configuration registers.
1193:Drivers/STM32F0xx_HAL_Driver/Src/stm32f0xx_hal_rcc.c ****   * @param  RCC_OscInitStruct pointer to an RCC_OscInitTypeDef structure that 
1194:Drivers/STM32F0xx_HAL_Driver/Src/stm32f0xx_hal_rcc.c ****   * will be configured.
1195:Drivers/STM32F0xx_HAL_Driver/Src/stm32f0xx_hal_rcc.c ****   * @retval None
1196:Drivers/STM32F0xx_HAL_Driver/Src/stm32f0xx_hal_rcc.c ****   */
ARM GAS  /tmp/ccZr23YC.s 			page 65


1197:Drivers/STM32F0xx_HAL_Driver/Src/stm32f0xx_hal_rcc.c **** void HAL_RCC_GetOscConfig(RCC_OscInitTypeDef  *RCC_OscInitStruct)
1198:Drivers/STM32F0xx_HAL_Driver/Src/stm32f0xx_hal_rcc.c **** {
 2119              		.loc 1 1198 1 is_stmt 1 view -0
 2120              		.cfi_startproc
 2121              		@ args = 0, pretend = 0, frame = 0
 2122              		@ frame_needed = 0, uses_anonymous_args = 0
 2123              		@ link register save eliminated.
1199:Drivers/STM32F0xx_HAL_Driver/Src/stm32f0xx_hal_rcc.c ****   /* Check the parameters */
1200:Drivers/STM32F0xx_HAL_Driver/Src/stm32f0xx_hal_rcc.c ****   assert_param(RCC_OscInitStruct != NULL);
 2124              		.loc 1 1200 3 view .LVU626
1201:Drivers/STM32F0xx_HAL_Driver/Src/stm32f0xx_hal_rcc.c **** 
1202:Drivers/STM32F0xx_HAL_Driver/Src/stm32f0xx_hal_rcc.c ****   /* Set all possible values for the Oscillator type parameter ---------------*/
1203:Drivers/STM32F0xx_HAL_Driver/Src/stm32f0xx_hal_rcc.c ****   RCC_OscInitStruct->OscillatorType = RCC_OSCILLATORTYPE_HSE | RCC_OSCILLATORTYPE_HSI  \
 2125              		.loc 1 1203 3 view .LVU627
 2126              		.loc 1 1203 37 is_stmt 0 view .LVU628
 2127 0000 1F23     		movs	r3, #31
 2128 0002 0360     		str	r3, [r0]
1204:Drivers/STM32F0xx_HAL_Driver/Src/stm32f0xx_hal_rcc.c ****                   | RCC_OSCILLATORTYPE_LSE | RCC_OSCILLATORTYPE_LSI | RCC_OSCILLATORTYPE_HSI14;
1205:Drivers/STM32F0xx_HAL_Driver/Src/stm32f0xx_hal_rcc.c **** #if defined(RCC_HSI48_SUPPORT)
1206:Drivers/STM32F0xx_HAL_Driver/Src/stm32f0xx_hal_rcc.c ****   RCC_OscInitStruct->OscillatorType |= RCC_OSCILLATORTYPE_HSI48;
 2129              		.loc 1 1206 3 is_stmt 1 view .LVU629
 2130              		.loc 1 1206 37 is_stmt 0 view .LVU630
 2131 0004 2033     		adds	r3, r3, #32
 2132 0006 0360     		str	r3, [r0]
1207:Drivers/STM32F0xx_HAL_Driver/Src/stm32f0xx_hal_rcc.c **** #endif /* RCC_HSI48_SUPPORT */
1208:Drivers/STM32F0xx_HAL_Driver/Src/stm32f0xx_hal_rcc.c **** 
1209:Drivers/STM32F0xx_HAL_Driver/Src/stm32f0xx_hal_rcc.c **** 
1210:Drivers/STM32F0xx_HAL_Driver/Src/stm32f0xx_hal_rcc.c ****   /* Get the HSE configuration -----------------------------------------------*/
1211:Drivers/STM32F0xx_HAL_Driver/Src/stm32f0xx_hal_rcc.c ****   if((RCC->CR &RCC_CR_HSEBYP) == RCC_CR_HSEBYP)
 2133              		.loc 1 1211 3 is_stmt 1 view .LVU631
 2134              		.loc 1 1211 10 is_stmt 0 view .LVU632
 2135 0008 324B     		ldr	r3, .L218
 2136 000a 1B68     		ldr	r3, [r3]
 2137              		.loc 1 1211 5 view .LVU633
 2138 000c 5B03     		lsls	r3, r3, #13
 2139 000e 40D5     		bpl	.L204
1212:Drivers/STM32F0xx_HAL_Driver/Src/stm32f0xx_hal_rcc.c ****   {
1213:Drivers/STM32F0xx_HAL_Driver/Src/stm32f0xx_hal_rcc.c ****     RCC_OscInitStruct->HSEState = RCC_HSE_BYPASS;
 2140              		.loc 1 1213 5 is_stmt 1 view .LVU634
 2141              		.loc 1 1213 33 is_stmt 0 view .LVU635
 2142 0010 0523     		movs	r3, #5
 2143 0012 4360     		str	r3, [r0, #4]
 2144              	.L205:
1214:Drivers/STM32F0xx_HAL_Driver/Src/stm32f0xx_hal_rcc.c ****   }
1215:Drivers/STM32F0xx_HAL_Driver/Src/stm32f0xx_hal_rcc.c ****   else if((RCC->CR &RCC_CR_HSEON) == RCC_CR_HSEON)
1216:Drivers/STM32F0xx_HAL_Driver/Src/stm32f0xx_hal_rcc.c ****   {
1217:Drivers/STM32F0xx_HAL_Driver/Src/stm32f0xx_hal_rcc.c ****     RCC_OscInitStruct->HSEState = RCC_HSE_ON;
1218:Drivers/STM32F0xx_HAL_Driver/Src/stm32f0xx_hal_rcc.c ****   }
1219:Drivers/STM32F0xx_HAL_Driver/Src/stm32f0xx_hal_rcc.c ****   else
1220:Drivers/STM32F0xx_HAL_Driver/Src/stm32f0xx_hal_rcc.c ****   {
1221:Drivers/STM32F0xx_HAL_Driver/Src/stm32f0xx_hal_rcc.c ****     RCC_OscInitStruct->HSEState = RCC_HSE_OFF;
1222:Drivers/STM32F0xx_HAL_Driver/Src/stm32f0xx_hal_rcc.c ****   }
1223:Drivers/STM32F0xx_HAL_Driver/Src/stm32f0xx_hal_rcc.c **** 
1224:Drivers/STM32F0xx_HAL_Driver/Src/stm32f0xx_hal_rcc.c ****   /* Get the HSI configuration -----------------------------------------------*/
1225:Drivers/STM32F0xx_HAL_Driver/Src/stm32f0xx_hal_rcc.c ****   if((RCC->CR &RCC_CR_HSION) == RCC_CR_HSION)
 2145              		.loc 1 1225 3 is_stmt 1 view .LVU636
 2146              		.loc 1 1225 10 is_stmt 0 view .LVU637
ARM GAS  /tmp/ccZr23YC.s 			page 66


 2147 0014 2F4B     		ldr	r3, .L218
 2148 0016 1B68     		ldr	r3, [r3]
 2149              		.loc 1 1225 5 view .LVU638
 2150 0018 DB07     		lsls	r3, r3, #31
 2151 001a 44D5     		bpl	.L207
1226:Drivers/STM32F0xx_HAL_Driver/Src/stm32f0xx_hal_rcc.c ****   {
1227:Drivers/STM32F0xx_HAL_Driver/Src/stm32f0xx_hal_rcc.c ****     RCC_OscInitStruct->HSIState = RCC_HSI_ON;
 2152              		.loc 1 1227 5 is_stmt 1 view .LVU639
 2153              		.loc 1 1227 33 is_stmt 0 view .LVU640
 2154 001c 0123     		movs	r3, #1
 2155 001e C360     		str	r3, [r0, #12]
 2156              	.L208:
1228:Drivers/STM32F0xx_HAL_Driver/Src/stm32f0xx_hal_rcc.c ****   }
1229:Drivers/STM32F0xx_HAL_Driver/Src/stm32f0xx_hal_rcc.c ****   else
1230:Drivers/STM32F0xx_HAL_Driver/Src/stm32f0xx_hal_rcc.c ****   {
1231:Drivers/STM32F0xx_HAL_Driver/Src/stm32f0xx_hal_rcc.c ****     RCC_OscInitStruct->HSIState = RCC_HSI_OFF;
1232:Drivers/STM32F0xx_HAL_Driver/Src/stm32f0xx_hal_rcc.c ****   }
1233:Drivers/STM32F0xx_HAL_Driver/Src/stm32f0xx_hal_rcc.c ****   
1234:Drivers/STM32F0xx_HAL_Driver/Src/stm32f0xx_hal_rcc.c ****   RCC_OscInitStruct->HSICalibrationValue = (uint32_t)((RCC->CR &RCC_CR_HSITRIM) >> RCC_CR_HSITRIM_B
 2157              		.loc 1 1234 3 is_stmt 1 view .LVU641
 2158              		.loc 1 1234 59 is_stmt 0 view .LVU642
 2159 0020 2C49     		ldr	r1, .L218
 2160 0022 0A68     		ldr	r2, [r1]
 2161              		.loc 1 1234 44 view .LVU643
 2162 0024 D208     		lsrs	r2, r2, #3
 2163 0026 1F23     		movs	r3, #31
 2164 0028 1340     		ands	r3, r2
 2165              		.loc 1 1234 42 view .LVU644
 2166 002a 0361     		str	r3, [r0, #16]
1235:Drivers/STM32F0xx_HAL_Driver/Src/stm32f0xx_hal_rcc.c ****   
1236:Drivers/STM32F0xx_HAL_Driver/Src/stm32f0xx_hal_rcc.c ****   /* Get the LSE configuration -----------------------------------------------*/
1237:Drivers/STM32F0xx_HAL_Driver/Src/stm32f0xx_hal_rcc.c ****   if((RCC->BDCR &RCC_BDCR_LSEBYP) == RCC_BDCR_LSEBYP)
 2167              		.loc 1 1237 3 is_stmt 1 view .LVU645
 2168              		.loc 1 1237 10 is_stmt 0 view .LVU646
 2169 002c 0B6A     		ldr	r3, [r1, #32]
 2170              		.loc 1 1237 5 view .LVU647
 2171 002e 5B07     		lsls	r3, r3, #29
 2172 0030 3CD5     		bpl	.L209
1238:Drivers/STM32F0xx_HAL_Driver/Src/stm32f0xx_hal_rcc.c ****   {
1239:Drivers/STM32F0xx_HAL_Driver/Src/stm32f0xx_hal_rcc.c ****     RCC_OscInitStruct->LSEState = RCC_LSE_BYPASS;
 2173              		.loc 1 1239 5 is_stmt 1 view .LVU648
 2174              		.loc 1 1239 33 is_stmt 0 view .LVU649
 2175 0032 0523     		movs	r3, #5
 2176 0034 8360     		str	r3, [r0, #8]
 2177              	.L210:
1240:Drivers/STM32F0xx_HAL_Driver/Src/stm32f0xx_hal_rcc.c ****   }
1241:Drivers/STM32F0xx_HAL_Driver/Src/stm32f0xx_hal_rcc.c ****   else if((RCC->BDCR &RCC_BDCR_LSEON) == RCC_BDCR_LSEON)
1242:Drivers/STM32F0xx_HAL_Driver/Src/stm32f0xx_hal_rcc.c ****   {
1243:Drivers/STM32F0xx_HAL_Driver/Src/stm32f0xx_hal_rcc.c ****     RCC_OscInitStruct->LSEState = RCC_LSE_ON;
1244:Drivers/STM32F0xx_HAL_Driver/Src/stm32f0xx_hal_rcc.c ****   }
1245:Drivers/STM32F0xx_HAL_Driver/Src/stm32f0xx_hal_rcc.c ****   else
1246:Drivers/STM32F0xx_HAL_Driver/Src/stm32f0xx_hal_rcc.c ****   {
1247:Drivers/STM32F0xx_HAL_Driver/Src/stm32f0xx_hal_rcc.c ****     RCC_OscInitStruct->LSEState = RCC_LSE_OFF;
1248:Drivers/STM32F0xx_HAL_Driver/Src/stm32f0xx_hal_rcc.c ****   }
1249:Drivers/STM32F0xx_HAL_Driver/Src/stm32f0xx_hal_rcc.c ****   
1250:Drivers/STM32F0xx_HAL_Driver/Src/stm32f0xx_hal_rcc.c ****   /* Get the LSI configuration -----------------------------------------------*/
1251:Drivers/STM32F0xx_HAL_Driver/Src/stm32f0xx_hal_rcc.c ****   if((RCC->CSR &RCC_CSR_LSION) == RCC_CSR_LSION)
ARM GAS  /tmp/ccZr23YC.s 			page 67


 2178              		.loc 1 1251 3 is_stmt 1 view .LVU650
 2179              		.loc 1 1251 10 is_stmt 0 view .LVU651
 2180 0036 274B     		ldr	r3, .L218
 2181 0038 5B6A     		ldr	r3, [r3, #36]
 2182              		.loc 1 1251 5 view .LVU652
 2183 003a DB07     		lsls	r3, r3, #31
 2184 003c 40D5     		bpl	.L212
1252:Drivers/STM32F0xx_HAL_Driver/Src/stm32f0xx_hal_rcc.c ****   {
1253:Drivers/STM32F0xx_HAL_Driver/Src/stm32f0xx_hal_rcc.c ****     RCC_OscInitStruct->LSIState = RCC_LSI_ON;
 2185              		.loc 1 1253 5 is_stmt 1 view .LVU653
 2186              		.loc 1 1253 33 is_stmt 0 view .LVU654
 2187 003e 0123     		movs	r3, #1
 2188 0040 C361     		str	r3, [r0, #28]
 2189              	.L213:
1254:Drivers/STM32F0xx_HAL_Driver/Src/stm32f0xx_hal_rcc.c ****   }
1255:Drivers/STM32F0xx_HAL_Driver/Src/stm32f0xx_hal_rcc.c ****   else
1256:Drivers/STM32F0xx_HAL_Driver/Src/stm32f0xx_hal_rcc.c ****   {
1257:Drivers/STM32F0xx_HAL_Driver/Src/stm32f0xx_hal_rcc.c ****     RCC_OscInitStruct->LSIState = RCC_LSI_OFF;
1258:Drivers/STM32F0xx_HAL_Driver/Src/stm32f0xx_hal_rcc.c ****   }
1259:Drivers/STM32F0xx_HAL_Driver/Src/stm32f0xx_hal_rcc.c ****   
1260:Drivers/STM32F0xx_HAL_Driver/Src/stm32f0xx_hal_rcc.c ****   /* Get the HSI14 configuration -----------------------------------------------*/
1261:Drivers/STM32F0xx_HAL_Driver/Src/stm32f0xx_hal_rcc.c ****   if((RCC->CR2 & RCC_CR2_HSI14ON) == RCC_CR2_HSI14ON)
 2190              		.loc 1 1261 3 is_stmt 1 view .LVU655
 2191              		.loc 1 1261 10 is_stmt 0 view .LVU656
 2192 0042 244B     		ldr	r3, .L218
 2193 0044 5B6B     		ldr	r3, [r3, #52]
 2194              		.loc 1 1261 5 view .LVU657
 2195 0046 DB07     		lsls	r3, r3, #31
 2196 0048 3DD5     		bpl	.L214
1262:Drivers/STM32F0xx_HAL_Driver/Src/stm32f0xx_hal_rcc.c ****   {
1263:Drivers/STM32F0xx_HAL_Driver/Src/stm32f0xx_hal_rcc.c ****     RCC_OscInitStruct->HSI14State = RCC_HSI_ON;
 2197              		.loc 1 1263 5 is_stmt 1 view .LVU658
 2198              		.loc 1 1263 35 is_stmt 0 view .LVU659
 2199 004a 0123     		movs	r3, #1
 2200 004c 4361     		str	r3, [r0, #20]
 2201              	.L215:
1264:Drivers/STM32F0xx_HAL_Driver/Src/stm32f0xx_hal_rcc.c ****   }
1265:Drivers/STM32F0xx_HAL_Driver/Src/stm32f0xx_hal_rcc.c ****   else
1266:Drivers/STM32F0xx_HAL_Driver/Src/stm32f0xx_hal_rcc.c ****   {
1267:Drivers/STM32F0xx_HAL_Driver/Src/stm32f0xx_hal_rcc.c ****     RCC_OscInitStruct->HSI14State = RCC_HSI_OFF;
1268:Drivers/STM32F0xx_HAL_Driver/Src/stm32f0xx_hal_rcc.c ****   }
1269:Drivers/STM32F0xx_HAL_Driver/Src/stm32f0xx_hal_rcc.c **** 
1270:Drivers/STM32F0xx_HAL_Driver/Src/stm32f0xx_hal_rcc.c ****   RCC_OscInitStruct->HSI14CalibrationValue = (uint32_t)((RCC->CR2 & RCC_CR2_HSI14TRIM) >> RCC_HSI14
 2202              		.loc 1 1270 3 is_stmt 1 view .LVU660
 2203              		.loc 1 1270 61 is_stmt 0 view .LVU661
 2204 004e 214A     		ldr	r2, .L218
 2205 0050 516B     		ldr	r1, [r2, #52]
 2206              		.loc 1 1270 46 view .LVU662
 2207 0052 C908     		lsrs	r1, r1, #3
 2208 0054 1F23     		movs	r3, #31
 2209 0056 0B40     		ands	r3, r1
 2210              		.loc 1 1270 44 view .LVU663
 2211 0058 8361     		str	r3, [r0, #24]
1271:Drivers/STM32F0xx_HAL_Driver/Src/stm32f0xx_hal_rcc.c ****   
1272:Drivers/STM32F0xx_HAL_Driver/Src/stm32f0xx_hal_rcc.c **** #if defined(RCC_HSI48_SUPPORT)
1273:Drivers/STM32F0xx_HAL_Driver/Src/stm32f0xx_hal_rcc.c ****   /* Get the HSI48 configuration if any-----------------------------------------*/
1274:Drivers/STM32F0xx_HAL_Driver/Src/stm32f0xx_hal_rcc.c ****   RCC_OscInitStruct->HSI48State = __HAL_RCC_GET_HSI48_STATE();
ARM GAS  /tmp/ccZr23YC.s 			page 68


 2212              		.loc 1 1274 3 is_stmt 1 view .LVU664
 2213              		.loc 1 1274 35 is_stmt 0 view .LVU665
 2214 005a 536B     		ldr	r3, [r2, #52]
 2215 005c 8021     		movs	r1, #128
 2216 005e 4902     		lsls	r1, r1, #9
 2217 0060 0B40     		ands	r3, r1
 2218 0062 591E     		subs	r1, r3, #1
 2219 0064 8B41     		sbcs	r3, r3, r1
 2220              		.loc 1 1274 33 view .LVU666
 2221 0066 0362     		str	r3, [r0, #32]
1275:Drivers/STM32F0xx_HAL_Driver/Src/stm32f0xx_hal_rcc.c **** #endif /* RCC_HSI48_SUPPORT */
1276:Drivers/STM32F0xx_HAL_Driver/Src/stm32f0xx_hal_rcc.c **** 
1277:Drivers/STM32F0xx_HAL_Driver/Src/stm32f0xx_hal_rcc.c ****   /* Get the PLL configuration -----------------------------------------------*/
1278:Drivers/STM32F0xx_HAL_Driver/Src/stm32f0xx_hal_rcc.c ****   if((RCC->CR &RCC_CR_PLLON) == RCC_CR_PLLON)
 2222              		.loc 1 1278 3 is_stmt 1 view .LVU667
 2223              		.loc 1 1278 10 is_stmt 0 view .LVU668
 2224 0068 1368     		ldr	r3, [r2]
 2225              		.loc 1 1278 5 view .LVU669
 2226 006a DB01     		lsls	r3, r3, #7
 2227 006c 2ED5     		bpl	.L216
1279:Drivers/STM32F0xx_HAL_Driver/Src/stm32f0xx_hal_rcc.c ****   {
1280:Drivers/STM32F0xx_HAL_Driver/Src/stm32f0xx_hal_rcc.c ****     RCC_OscInitStruct->PLL.PLLState = RCC_PLL_ON;
 2228              		.loc 1 1280 5 is_stmt 1 view .LVU670
 2229              		.loc 1 1280 37 is_stmt 0 view .LVU671
 2230 006e 0223     		movs	r3, #2
 2231 0070 4362     		str	r3, [r0, #36]
 2232              	.L217:
1281:Drivers/STM32F0xx_HAL_Driver/Src/stm32f0xx_hal_rcc.c ****   }
1282:Drivers/STM32F0xx_HAL_Driver/Src/stm32f0xx_hal_rcc.c ****   else
1283:Drivers/STM32F0xx_HAL_Driver/Src/stm32f0xx_hal_rcc.c ****   {
1284:Drivers/STM32F0xx_HAL_Driver/Src/stm32f0xx_hal_rcc.c ****     RCC_OscInitStruct->PLL.PLLState = RCC_PLL_OFF;
1285:Drivers/STM32F0xx_HAL_Driver/Src/stm32f0xx_hal_rcc.c ****   }
1286:Drivers/STM32F0xx_HAL_Driver/Src/stm32f0xx_hal_rcc.c ****   RCC_OscInitStruct->PLL.PLLSource = (uint32_t)(RCC->CFGR & RCC_CFGR_PLLSRC);
 2233              		.loc 1 1286 3 is_stmt 1 view .LVU672
 2234              		.loc 1 1286 52 is_stmt 0 view .LVU673
 2235 0072 184B     		ldr	r3, .L218
 2236 0074 5A68     		ldr	r2, [r3, #4]
 2237              		.loc 1 1286 38 view .LVU674
 2238 0076 C021     		movs	r1, #192
 2239 0078 4902     		lsls	r1, r1, #9
 2240 007a 0A40     		ands	r2, r1
 2241              		.loc 1 1286 36 view .LVU675
 2242 007c 8262     		str	r2, [r0, #40]
1287:Drivers/STM32F0xx_HAL_Driver/Src/stm32f0xx_hal_rcc.c ****   RCC_OscInitStruct->PLL.PLLMUL = (uint32_t)(RCC->CFGR & RCC_CFGR_PLLMUL);
 2243              		.loc 1 1287 3 is_stmt 1 view .LVU676
 2244              		.loc 1 1287 49 is_stmt 0 view .LVU677
 2245 007e 5A68     		ldr	r2, [r3, #4]
 2246              		.loc 1 1287 35 view .LVU678
 2247 0080 F021     		movs	r1, #240
 2248 0082 8903     		lsls	r1, r1, #14
 2249 0084 0A40     		ands	r2, r1
 2250              		.loc 1 1287 33 view .LVU679
 2251 0086 C262     		str	r2, [r0, #44]
1288:Drivers/STM32F0xx_HAL_Driver/Src/stm32f0xx_hal_rcc.c ****   RCC_OscInitStruct->PLL.PREDIV = (uint32_t)(RCC->CFGR2 & RCC_CFGR2_PREDIV);
 2252              		.loc 1 1288 3 is_stmt 1 view .LVU680
 2253              		.loc 1 1288 49 is_stmt 0 view .LVU681
 2254 0088 DA6A     		ldr	r2, [r3, #44]
ARM GAS  /tmp/ccZr23YC.s 			page 69


 2255              		.loc 1 1288 35 view .LVU682
 2256 008a 0F23     		movs	r3, #15
 2257 008c 1340     		ands	r3, r2
 2258              		.loc 1 1288 33 view .LVU683
 2259 008e 0363     		str	r3, [r0, #48]
1289:Drivers/STM32F0xx_HAL_Driver/Src/stm32f0xx_hal_rcc.c **** }
 2260              		.loc 1 1289 1 view .LVU684
 2261              		@ sp needed
 2262 0090 7047     		bx	lr
 2263              	.L204:
1215:Drivers/STM32F0xx_HAL_Driver/Src/stm32f0xx_hal_rcc.c ****   {
 2264              		.loc 1 1215 8 is_stmt 1 view .LVU685
1215:Drivers/STM32F0xx_HAL_Driver/Src/stm32f0xx_hal_rcc.c ****   {
 2265              		.loc 1 1215 15 is_stmt 0 view .LVU686
 2266 0092 104B     		ldr	r3, .L218
 2267 0094 1B68     		ldr	r3, [r3]
1215:Drivers/STM32F0xx_HAL_Driver/Src/stm32f0xx_hal_rcc.c ****   {
 2268              		.loc 1 1215 10 view .LVU687
 2269 0096 DB03     		lsls	r3, r3, #15
 2270 0098 02D5     		bpl	.L206
1217:Drivers/STM32F0xx_HAL_Driver/Src/stm32f0xx_hal_rcc.c ****   }
 2271              		.loc 1 1217 5 is_stmt 1 view .LVU688
1217:Drivers/STM32F0xx_HAL_Driver/Src/stm32f0xx_hal_rcc.c ****   }
 2272              		.loc 1 1217 33 is_stmt 0 view .LVU689
 2273 009a 0123     		movs	r3, #1
 2274 009c 4360     		str	r3, [r0, #4]
 2275 009e B9E7     		b	.L205
 2276              	.L206:
1221:Drivers/STM32F0xx_HAL_Driver/Src/stm32f0xx_hal_rcc.c ****   }
 2277              		.loc 1 1221 5 is_stmt 1 view .LVU690
1221:Drivers/STM32F0xx_HAL_Driver/Src/stm32f0xx_hal_rcc.c ****   }
 2278              		.loc 1 1221 33 is_stmt 0 view .LVU691
 2279 00a0 0023     		movs	r3, #0
 2280 00a2 4360     		str	r3, [r0, #4]
 2281 00a4 B6E7     		b	.L205
 2282              	.L207:
1231:Drivers/STM32F0xx_HAL_Driver/Src/stm32f0xx_hal_rcc.c ****   }
