ARM GAS  /tmp/ccp4GKZ9.s 			page 1


   1              		.cpu cortex-m0
   2              		.arch armv6s-m
   3              		.fpu softvfp
   4              		.eabi_attribute 20, 1
   5              		.eabi_attribute 21, 1
   6              		.eabi_attribute 23, 3
   7              		.eabi_attribute 24, 1
   8              		.eabi_attribute 25, 1
   9              		.eabi_attribute 26, 1
  10              		.eabi_attribute 30, 1
  11              		.eabi_attribute 34, 0
  12              		.eabi_attribute 18, 4
  13              		.file	"usbd_ctlreq.c"
  14              		.text
  15              	.Ltext0:
  16              		.cfi_sections	.debug_frame
  17              		.file 1 "Middlewares/ST/STM32_USB_Device_Library/Core/Src/usbd_ctlreq.c"
  18              		.section	.text.USBD_GetLen,"ax",%progbits
  19              		.align	1
  20              		.syntax unified
  21              		.code	16
  22              		.thumb_func
  24              	USBD_GetLen:
  25              	.LVL0:
  26              	.LFB56:
   1:Middlewares/ST/STM32_USB_Device_Library/Core/Src/usbd_ctlreq.c **** /**
   2:Middlewares/ST/STM32_USB_Device_Library/Core/Src/usbd_ctlreq.c ****   ******************************************************************************
   3:Middlewares/ST/STM32_USB_Device_Library/Core/Src/usbd_ctlreq.c ****   * @file    usbd_req.c
   4:Middlewares/ST/STM32_USB_Device_Library/Core/Src/usbd_ctlreq.c ****   * @author  MCD Application Team
   5:Middlewares/ST/STM32_USB_Device_Library/Core/Src/usbd_ctlreq.c ****   * @brief   This file provides the standard USB requests following chapter 9.
   6:Middlewares/ST/STM32_USB_Device_Library/Core/Src/usbd_ctlreq.c ****   ******************************************************************************
   7:Middlewares/ST/STM32_USB_Device_Library/Core/Src/usbd_ctlreq.c ****   * @attention
   8:Middlewares/ST/STM32_USB_Device_Library/Core/Src/usbd_ctlreq.c ****   *
   9:Middlewares/ST/STM32_USB_Device_Library/Core/Src/usbd_ctlreq.c ****   * <h2><center>&copy; Copyright (c) 2015 STMicroelectronics.
  10:Middlewares/ST/STM32_USB_Device_Library/Core/Src/usbd_ctlreq.c ****   * All rights reserved.</center></h2>
  11:Middlewares/ST/STM32_USB_Device_Library/Core/Src/usbd_ctlreq.c ****   *
  12:Middlewares/ST/STM32_USB_Device_Library/Core/Src/usbd_ctlreq.c ****   * This software component is licensed by ST under Ultimate Liberty license
  13:Middlewares/ST/STM32_USB_Device_Library/Core/Src/usbd_ctlreq.c ****   * SLA0044, the "License"; You may not use this file except in compliance with
  14:Middlewares/ST/STM32_USB_Device_Library/Core/Src/usbd_ctlreq.c ****   * the License. You may obtain a copy of the License at:
  15:Middlewares/ST/STM32_USB_Device_Library/Core/Src/usbd_ctlreq.c ****   *                      www.st.com/SLA0044
  16:Middlewares/ST/STM32_USB_Device_Library/Core/Src/usbd_ctlreq.c ****   *
  17:Middlewares/ST/STM32_USB_Device_Library/Core/Src/usbd_ctlreq.c ****   ******************************************************************************
  18:Middlewares/ST/STM32_USB_Device_Library/Core/Src/usbd_ctlreq.c ****   */
  19:Middlewares/ST/STM32_USB_Device_Library/Core/Src/usbd_ctlreq.c **** 
  20:Middlewares/ST/STM32_USB_Device_Library/Core/Src/usbd_ctlreq.c **** /* Includes ------------------------------------------------------------------*/
  21:Middlewares/ST/STM32_USB_Device_Library/Core/Src/usbd_ctlreq.c **** #include "usbd_ctlreq.h"
  22:Middlewares/ST/STM32_USB_Device_Library/Core/Src/usbd_ctlreq.c **** #include "usbd_ioreq.h"
  23:Middlewares/ST/STM32_USB_Device_Library/Core/Src/usbd_ctlreq.c **** 
  24:Middlewares/ST/STM32_USB_Device_Library/Core/Src/usbd_ctlreq.c **** 
  25:Middlewares/ST/STM32_USB_Device_Library/Core/Src/usbd_ctlreq.c **** /** @addtogroup STM32_USBD_STATE_DEVICE_LIBRARY
  26:Middlewares/ST/STM32_USB_Device_Library/Core/Src/usbd_ctlreq.c ****   * @{
  27:Middlewares/ST/STM32_USB_Device_Library/Core/Src/usbd_ctlreq.c ****   */
  28:Middlewares/ST/STM32_USB_Device_Library/Core/Src/usbd_ctlreq.c **** 
  29:Middlewares/ST/STM32_USB_Device_Library/Core/Src/usbd_ctlreq.c **** 
  30:Middlewares/ST/STM32_USB_Device_Library/Core/Src/usbd_ctlreq.c **** /** @defgroup USBD_REQ
  31:Middlewares/ST/STM32_USB_Device_Library/Core/Src/usbd_ctlreq.c ****   * @brief USB standard requests module
  32:Middlewares/ST/STM32_USB_Device_Library/Core/Src/usbd_ctlreq.c ****   * @{
ARM GAS  /tmp/ccp4GKZ9.s 			page 2


  33:Middlewares/ST/STM32_USB_Device_Library/Core/Src/usbd_ctlreq.c ****   */
  34:Middlewares/ST/STM32_USB_Device_Library/Core/Src/usbd_ctlreq.c **** 
  35:Middlewares/ST/STM32_USB_Device_Library/Core/Src/usbd_ctlreq.c **** /** @defgroup USBD_REQ_Private_TypesDefinitions
  36:Middlewares/ST/STM32_USB_Device_Library/Core/Src/usbd_ctlreq.c ****   * @{
  37:Middlewares/ST/STM32_USB_Device_Library/Core/Src/usbd_ctlreq.c ****   */
  38:Middlewares/ST/STM32_USB_Device_Library/Core/Src/usbd_ctlreq.c **** 
  39:Middlewares/ST/STM32_USB_Device_Library/Core/Src/usbd_ctlreq.c **** /**
  40:Middlewares/ST/STM32_USB_Device_Library/Core/Src/usbd_ctlreq.c ****   * @}
  41:Middlewares/ST/STM32_USB_Device_Library/Core/Src/usbd_ctlreq.c ****   */
  42:Middlewares/ST/STM32_USB_Device_Library/Core/Src/usbd_ctlreq.c **** 
  43:Middlewares/ST/STM32_USB_Device_Library/Core/Src/usbd_ctlreq.c **** 
  44:Middlewares/ST/STM32_USB_Device_Library/Core/Src/usbd_ctlreq.c **** /** @defgroup USBD_REQ_Private_Defines
  45:Middlewares/ST/STM32_USB_Device_Library/Core/Src/usbd_ctlreq.c ****   * @{
  46:Middlewares/ST/STM32_USB_Device_Library/Core/Src/usbd_ctlreq.c ****   */
  47:Middlewares/ST/STM32_USB_Device_Library/Core/Src/usbd_ctlreq.c **** 
  48:Middlewares/ST/STM32_USB_Device_Library/Core/Src/usbd_ctlreq.c **** /**
  49:Middlewares/ST/STM32_USB_Device_Library/Core/Src/usbd_ctlreq.c ****   * @}
  50:Middlewares/ST/STM32_USB_Device_Library/Core/Src/usbd_ctlreq.c ****   */
  51:Middlewares/ST/STM32_USB_Device_Library/Core/Src/usbd_ctlreq.c **** 
  52:Middlewares/ST/STM32_USB_Device_Library/Core/Src/usbd_ctlreq.c **** 
  53:Middlewares/ST/STM32_USB_Device_Library/Core/Src/usbd_ctlreq.c **** /** @defgroup USBD_REQ_Private_Macros
  54:Middlewares/ST/STM32_USB_Device_Library/Core/Src/usbd_ctlreq.c ****   * @{
  55:Middlewares/ST/STM32_USB_Device_Library/Core/Src/usbd_ctlreq.c ****   */
  56:Middlewares/ST/STM32_USB_Device_Library/Core/Src/usbd_ctlreq.c **** 
  57:Middlewares/ST/STM32_USB_Device_Library/Core/Src/usbd_ctlreq.c **** /**
  58:Middlewares/ST/STM32_USB_Device_Library/Core/Src/usbd_ctlreq.c ****   * @}
  59:Middlewares/ST/STM32_USB_Device_Library/Core/Src/usbd_ctlreq.c ****   */
  60:Middlewares/ST/STM32_USB_Device_Library/Core/Src/usbd_ctlreq.c **** 
  61:Middlewares/ST/STM32_USB_Device_Library/Core/Src/usbd_ctlreq.c **** 
  62:Middlewares/ST/STM32_USB_Device_Library/Core/Src/usbd_ctlreq.c **** /** @defgroup USBD_REQ_Private_Variables
  63:Middlewares/ST/STM32_USB_Device_Library/Core/Src/usbd_ctlreq.c ****   * @{
  64:Middlewares/ST/STM32_USB_Device_Library/Core/Src/usbd_ctlreq.c ****   */
  65:Middlewares/ST/STM32_USB_Device_Library/Core/Src/usbd_ctlreq.c **** 
  66:Middlewares/ST/STM32_USB_Device_Library/Core/Src/usbd_ctlreq.c **** /**
  67:Middlewares/ST/STM32_USB_Device_Library/Core/Src/usbd_ctlreq.c ****   * @}
  68:Middlewares/ST/STM32_USB_Device_Library/Core/Src/usbd_ctlreq.c ****   */
  69:Middlewares/ST/STM32_USB_Device_Library/Core/Src/usbd_ctlreq.c **** 
  70:Middlewares/ST/STM32_USB_Device_Library/Core/Src/usbd_ctlreq.c **** 
  71:Middlewares/ST/STM32_USB_Device_Library/Core/Src/usbd_ctlreq.c **** /** @defgroup USBD_REQ_Private_FunctionPrototypes
  72:Middlewares/ST/STM32_USB_Device_Library/Core/Src/usbd_ctlreq.c ****   * @{
  73:Middlewares/ST/STM32_USB_Device_Library/Core/Src/usbd_ctlreq.c ****   */
  74:Middlewares/ST/STM32_USB_Device_Library/Core/Src/usbd_ctlreq.c **** static void USBD_GetDescriptor(USBD_HandleTypeDef *pdev,
  75:Middlewares/ST/STM32_USB_Device_Library/Core/Src/usbd_ctlreq.c ****                                USBD_SetupReqTypedef *req);
  76:Middlewares/ST/STM32_USB_Device_Library/Core/Src/usbd_ctlreq.c **** 
  77:Middlewares/ST/STM32_USB_Device_Library/Core/Src/usbd_ctlreq.c **** static void USBD_SetAddress(USBD_HandleTypeDef *pdev,
  78:Middlewares/ST/STM32_USB_Device_Library/Core/Src/usbd_ctlreq.c ****                             USBD_SetupReqTypedef *req);
  79:Middlewares/ST/STM32_USB_Device_Library/Core/Src/usbd_ctlreq.c **** 
  80:Middlewares/ST/STM32_USB_Device_Library/Core/Src/usbd_ctlreq.c **** static void USBD_SetConfig(USBD_HandleTypeDef *pdev,
  81:Middlewares/ST/STM32_USB_Device_Library/Core/Src/usbd_ctlreq.c ****                            USBD_SetupReqTypedef *req);
  82:Middlewares/ST/STM32_USB_Device_Library/Core/Src/usbd_ctlreq.c **** 
  83:Middlewares/ST/STM32_USB_Device_Library/Core/Src/usbd_ctlreq.c **** static void USBD_GetConfig(USBD_HandleTypeDef *pdev,
  84:Middlewares/ST/STM32_USB_Device_Library/Core/Src/usbd_ctlreq.c ****                            USBD_SetupReqTypedef *req);
  85:Middlewares/ST/STM32_USB_Device_Library/Core/Src/usbd_ctlreq.c **** 
  86:Middlewares/ST/STM32_USB_Device_Library/Core/Src/usbd_ctlreq.c **** static void USBD_GetStatus(USBD_HandleTypeDef *pdev,
  87:Middlewares/ST/STM32_USB_Device_Library/Core/Src/usbd_ctlreq.c ****                            USBD_SetupReqTypedef *req);
  88:Middlewares/ST/STM32_USB_Device_Library/Core/Src/usbd_ctlreq.c **** 
  89:Middlewares/ST/STM32_USB_Device_Library/Core/Src/usbd_ctlreq.c **** static void USBD_SetFeature(USBD_HandleTypeDef *pdev,
ARM GAS  /tmp/ccp4GKZ9.s 			page 3


  90:Middlewares/ST/STM32_USB_Device_Library/Core/Src/usbd_ctlreq.c ****                             USBD_SetupReqTypedef *req);
  91:Middlewares/ST/STM32_USB_Device_Library/Core/Src/usbd_ctlreq.c **** 
  92:Middlewares/ST/STM32_USB_Device_Library/Core/Src/usbd_ctlreq.c **** static void USBD_ClrFeature(USBD_HandleTypeDef *pdev,
  93:Middlewares/ST/STM32_USB_Device_Library/Core/Src/usbd_ctlreq.c ****                             USBD_SetupReqTypedef *req);
  94:Middlewares/ST/STM32_USB_Device_Library/Core/Src/usbd_ctlreq.c **** 
  95:Middlewares/ST/STM32_USB_Device_Library/Core/Src/usbd_ctlreq.c **** static uint8_t USBD_GetLen(uint8_t *buf);
  96:Middlewares/ST/STM32_USB_Device_Library/Core/Src/usbd_ctlreq.c **** 
  97:Middlewares/ST/STM32_USB_Device_Library/Core/Src/usbd_ctlreq.c **** /**
  98:Middlewares/ST/STM32_USB_Device_Library/Core/Src/usbd_ctlreq.c ****   * @}
  99:Middlewares/ST/STM32_USB_Device_Library/Core/Src/usbd_ctlreq.c ****   */
 100:Middlewares/ST/STM32_USB_Device_Library/Core/Src/usbd_ctlreq.c **** 
 101:Middlewares/ST/STM32_USB_Device_Library/Core/Src/usbd_ctlreq.c **** 
 102:Middlewares/ST/STM32_USB_Device_Library/Core/Src/usbd_ctlreq.c **** /** @defgroup USBD_REQ_Private_Functions
 103:Middlewares/ST/STM32_USB_Device_Library/Core/Src/usbd_ctlreq.c ****   * @{
 104:Middlewares/ST/STM32_USB_Device_Library/Core/Src/usbd_ctlreq.c ****   */
 105:Middlewares/ST/STM32_USB_Device_Library/Core/Src/usbd_ctlreq.c **** 
 106:Middlewares/ST/STM32_USB_Device_Library/Core/Src/usbd_ctlreq.c **** 
 107:Middlewares/ST/STM32_USB_Device_Library/Core/Src/usbd_ctlreq.c **** /**
 108:Middlewares/ST/STM32_USB_Device_Library/Core/Src/usbd_ctlreq.c **** * @brief  USBD_StdDevReq
 109:Middlewares/ST/STM32_USB_Device_Library/Core/Src/usbd_ctlreq.c **** *         Handle standard usb device requests
 110:Middlewares/ST/STM32_USB_Device_Library/Core/Src/usbd_ctlreq.c **** * @param  pdev: device instance
 111:Middlewares/ST/STM32_USB_Device_Library/Core/Src/usbd_ctlreq.c **** * @param  req: usb request
 112:Middlewares/ST/STM32_USB_Device_Library/Core/Src/usbd_ctlreq.c **** * @retval status
 113:Middlewares/ST/STM32_USB_Device_Library/Core/Src/usbd_ctlreq.c **** */
 114:Middlewares/ST/STM32_USB_Device_Library/Core/Src/usbd_ctlreq.c **** USBD_StatusTypeDef  USBD_StdDevReq(USBD_HandleTypeDef *pdev,
 115:Middlewares/ST/STM32_USB_Device_Library/Core/Src/usbd_ctlreq.c ****                                    USBD_SetupReqTypedef *req)
 116:Middlewares/ST/STM32_USB_Device_Library/Core/Src/usbd_ctlreq.c **** {
 117:Middlewares/ST/STM32_USB_Device_Library/Core/Src/usbd_ctlreq.c ****   USBD_StatusTypeDef ret = USBD_OK;
 118:Middlewares/ST/STM32_USB_Device_Library/Core/Src/usbd_ctlreq.c **** 
 119:Middlewares/ST/STM32_USB_Device_Library/Core/Src/usbd_ctlreq.c ****   switch (req->bmRequest & USB_REQ_TYPE_MASK)
 120:Middlewares/ST/STM32_USB_Device_Library/Core/Src/usbd_ctlreq.c ****   {
 121:Middlewares/ST/STM32_USB_Device_Library/Core/Src/usbd_ctlreq.c ****     case USB_REQ_TYPE_CLASS:
 122:Middlewares/ST/STM32_USB_Device_Library/Core/Src/usbd_ctlreq.c ****     case USB_REQ_TYPE_VENDOR:
 123:Middlewares/ST/STM32_USB_Device_Library/Core/Src/usbd_ctlreq.c ****       pdev->pClass->Setup(pdev, req);
 124:Middlewares/ST/STM32_USB_Device_Library/Core/Src/usbd_ctlreq.c ****       break;
 125:Middlewares/ST/STM32_USB_Device_Library/Core/Src/usbd_ctlreq.c **** 
 126:Middlewares/ST/STM32_USB_Device_Library/Core/Src/usbd_ctlreq.c ****     case USB_REQ_TYPE_STANDARD:
 127:Middlewares/ST/STM32_USB_Device_Library/Core/Src/usbd_ctlreq.c ****       switch (req->bRequest)
 128:Middlewares/ST/STM32_USB_Device_Library/Core/Src/usbd_ctlreq.c ****       {
 129:Middlewares/ST/STM32_USB_Device_Library/Core/Src/usbd_ctlreq.c ****         case USB_REQ_GET_DESCRIPTOR:
 130:Middlewares/ST/STM32_USB_Device_Library/Core/Src/usbd_ctlreq.c ****           USBD_GetDescriptor(pdev, req);
 131:Middlewares/ST/STM32_USB_Device_Library/Core/Src/usbd_ctlreq.c ****           break;
 132:Middlewares/ST/STM32_USB_Device_Library/Core/Src/usbd_ctlreq.c **** 
 133:Middlewares/ST/STM32_USB_Device_Library/Core/Src/usbd_ctlreq.c ****         case USB_REQ_SET_ADDRESS:
 134:Middlewares/ST/STM32_USB_Device_Library/Core/Src/usbd_ctlreq.c ****           USBD_SetAddress(pdev, req);
 135:Middlewares/ST/STM32_USB_Device_Library/Core/Src/usbd_ctlreq.c ****           break;
 136:Middlewares/ST/STM32_USB_Device_Library/Core/Src/usbd_ctlreq.c **** 
 137:Middlewares/ST/STM32_USB_Device_Library/Core/Src/usbd_ctlreq.c ****         case USB_REQ_SET_CONFIGURATION:
 138:Middlewares/ST/STM32_USB_Device_Library/Core/Src/usbd_ctlreq.c ****           USBD_SetConfig(pdev, req);
 139:Middlewares/ST/STM32_USB_Device_Library/Core/Src/usbd_ctlreq.c ****           break;
 140:Middlewares/ST/STM32_USB_Device_Library/Core/Src/usbd_ctlreq.c **** 
 141:Middlewares/ST/STM32_USB_Device_Library/Core/Src/usbd_ctlreq.c ****         case USB_REQ_GET_CONFIGURATION:
 142:Middlewares/ST/STM32_USB_Device_Library/Core/Src/usbd_ctlreq.c ****           USBD_GetConfig(pdev, req);
 143:Middlewares/ST/STM32_USB_Device_Library/Core/Src/usbd_ctlreq.c ****           break;
 144:Middlewares/ST/STM32_USB_Device_Library/Core/Src/usbd_ctlreq.c **** 
 145:Middlewares/ST/STM32_USB_Device_Library/Core/Src/usbd_ctlreq.c ****         case USB_REQ_GET_STATUS:
 146:Middlewares/ST/STM32_USB_Device_Library/Core/Src/usbd_ctlreq.c ****           USBD_GetStatus(pdev, req);
ARM GAS  /tmp/ccp4GKZ9.s 			page 4


 147:Middlewares/ST/STM32_USB_Device_Library/Core/Src/usbd_ctlreq.c ****           break;
 148:Middlewares/ST/STM32_USB_Device_Library/Core/Src/usbd_ctlreq.c **** 
 149:Middlewares/ST/STM32_USB_Device_Library/Core/Src/usbd_ctlreq.c ****         case USB_REQ_SET_FEATURE:
 150:Middlewares/ST/STM32_USB_Device_Library/Core/Src/usbd_ctlreq.c ****           USBD_SetFeature(pdev, req);
 151:Middlewares/ST/STM32_USB_Device_Library/Core/Src/usbd_ctlreq.c ****           break;
 152:Middlewares/ST/STM32_USB_Device_Library/Core/Src/usbd_ctlreq.c **** 
 153:Middlewares/ST/STM32_USB_Device_Library/Core/Src/usbd_ctlreq.c ****         case USB_REQ_CLEAR_FEATURE:
 154:Middlewares/ST/STM32_USB_Device_Library/Core/Src/usbd_ctlreq.c ****           USBD_ClrFeature(pdev, req);
 155:Middlewares/ST/STM32_USB_Device_Library/Core/Src/usbd_ctlreq.c ****           break;
 156:Middlewares/ST/STM32_USB_Device_Library/Core/Src/usbd_ctlreq.c **** 
 157:Middlewares/ST/STM32_USB_Device_Library/Core/Src/usbd_ctlreq.c ****         default:
 158:Middlewares/ST/STM32_USB_Device_Library/Core/Src/usbd_ctlreq.c ****           USBD_CtlError(pdev, req);
 159:Middlewares/ST/STM32_USB_Device_Library/Core/Src/usbd_ctlreq.c ****           break;
 160:Middlewares/ST/STM32_USB_Device_Library/Core/Src/usbd_ctlreq.c ****       }
 161:Middlewares/ST/STM32_USB_Device_Library/Core/Src/usbd_ctlreq.c ****       break;
 162:Middlewares/ST/STM32_USB_Device_Library/Core/Src/usbd_ctlreq.c **** 
 163:Middlewares/ST/STM32_USB_Device_Library/Core/Src/usbd_ctlreq.c ****     default:
 164:Middlewares/ST/STM32_USB_Device_Library/Core/Src/usbd_ctlreq.c ****       USBD_CtlError(pdev, req);
 165:Middlewares/ST/STM32_USB_Device_Library/Core/Src/usbd_ctlreq.c ****       break;
 166:Middlewares/ST/STM32_USB_Device_Library/Core/Src/usbd_ctlreq.c ****   }
 167:Middlewares/ST/STM32_USB_Device_Library/Core/Src/usbd_ctlreq.c **** 
 168:Middlewares/ST/STM32_USB_Device_Library/Core/Src/usbd_ctlreq.c ****   return ret;
 169:Middlewares/ST/STM32_USB_Device_Library/Core/Src/usbd_ctlreq.c **** }
 170:Middlewares/ST/STM32_USB_Device_Library/Core/Src/usbd_ctlreq.c **** 
 171:Middlewares/ST/STM32_USB_Device_Library/Core/Src/usbd_ctlreq.c **** /**
 172:Middlewares/ST/STM32_USB_Device_Library/Core/Src/usbd_ctlreq.c **** * @brief  USBD_StdItfReq
 173:Middlewares/ST/STM32_USB_Device_Library/Core/Src/usbd_ctlreq.c **** *         Handle standard usb interface requests
 174:Middlewares/ST/STM32_USB_Device_Library/Core/Src/usbd_ctlreq.c **** * @param  pdev: device instance
 175:Middlewares/ST/STM32_USB_Device_Library/Core/Src/usbd_ctlreq.c **** * @param  req: usb request
 176:Middlewares/ST/STM32_USB_Device_Library/Core/Src/usbd_ctlreq.c **** * @retval status
 177:Middlewares/ST/STM32_USB_Device_Library/Core/Src/usbd_ctlreq.c **** */
 178:Middlewares/ST/STM32_USB_Device_Library/Core/Src/usbd_ctlreq.c **** USBD_StatusTypeDef  USBD_StdItfReq(USBD_HandleTypeDef *pdev,
 179:Middlewares/ST/STM32_USB_Device_Library/Core/Src/usbd_ctlreq.c ****                                    USBD_SetupReqTypedef  *req)
 180:Middlewares/ST/STM32_USB_Device_Library/Core/Src/usbd_ctlreq.c **** {
 181:Middlewares/ST/STM32_USB_Device_Library/Core/Src/usbd_ctlreq.c ****   USBD_StatusTypeDef ret = USBD_OK;
 182:Middlewares/ST/STM32_USB_Device_Library/Core/Src/usbd_ctlreq.c **** 
 183:Middlewares/ST/STM32_USB_Device_Library/Core/Src/usbd_ctlreq.c ****   switch (req->bmRequest & USB_REQ_TYPE_MASK)
 184:Middlewares/ST/STM32_USB_Device_Library/Core/Src/usbd_ctlreq.c ****   {
 185:Middlewares/ST/STM32_USB_Device_Library/Core/Src/usbd_ctlreq.c ****     case USB_REQ_TYPE_CLASS:
 186:Middlewares/ST/STM32_USB_Device_Library/Core/Src/usbd_ctlreq.c ****     case USB_REQ_TYPE_VENDOR:
 187:Middlewares/ST/STM32_USB_Device_Library/Core/Src/usbd_ctlreq.c ****     case USB_REQ_TYPE_STANDARD:
 188:Middlewares/ST/STM32_USB_Device_Library/Core/Src/usbd_ctlreq.c ****       switch (pdev->dev_state)
 189:Middlewares/ST/STM32_USB_Device_Library/Core/Src/usbd_ctlreq.c ****       {
 190:Middlewares/ST/STM32_USB_Device_Library/Core/Src/usbd_ctlreq.c ****         case USBD_STATE_DEFAULT:
 191:Middlewares/ST/STM32_USB_Device_Library/Core/Src/usbd_ctlreq.c ****         case USBD_STATE_ADDRESSED:
 192:Middlewares/ST/STM32_USB_Device_Library/Core/Src/usbd_ctlreq.c ****         case USBD_STATE_CONFIGURED:
 193:Middlewares/ST/STM32_USB_Device_Library/Core/Src/usbd_ctlreq.c **** 
 194:Middlewares/ST/STM32_USB_Device_Library/Core/Src/usbd_ctlreq.c ****           if (LOBYTE(req->wIndex) <= USBD_MAX_NUM_INTERFACES)
 195:Middlewares/ST/STM32_USB_Device_Library/Core/Src/usbd_ctlreq.c ****           {
 196:Middlewares/ST/STM32_USB_Device_Library/Core/Src/usbd_ctlreq.c ****             ret = (USBD_StatusTypeDef)pdev->pClass->Setup(pdev, req);
 197:Middlewares/ST/STM32_USB_Device_Library/Core/Src/usbd_ctlreq.c **** 
 198:Middlewares/ST/STM32_USB_Device_Library/Core/Src/usbd_ctlreq.c ****             if ((req->wLength == 0U) && (ret == USBD_OK))
 199:Middlewares/ST/STM32_USB_Device_Library/Core/Src/usbd_ctlreq.c ****             {
 200:Middlewares/ST/STM32_USB_Device_Library/Core/Src/usbd_ctlreq.c ****               USBD_CtlSendStatus(pdev);
 201:Middlewares/ST/STM32_USB_Device_Library/Core/Src/usbd_ctlreq.c ****             }
 202:Middlewares/ST/STM32_USB_Device_Library/Core/Src/usbd_ctlreq.c ****           }
 203:Middlewares/ST/STM32_USB_Device_Library/Core/Src/usbd_ctlreq.c ****           else
ARM GAS  /tmp/ccp4GKZ9.s 			page 5


 204:Middlewares/ST/STM32_USB_Device_Library/Core/Src/usbd_ctlreq.c ****           {
 205:Middlewares/ST/STM32_USB_Device_Library/Core/Src/usbd_ctlreq.c ****             USBD_CtlError(pdev, req);
 206:Middlewares/ST/STM32_USB_Device_Library/Core/Src/usbd_ctlreq.c ****           }
 207:Middlewares/ST/STM32_USB_Device_Library/Core/Src/usbd_ctlreq.c ****           break;
 208:Middlewares/ST/STM32_USB_Device_Library/Core/Src/usbd_ctlreq.c **** 
 209:Middlewares/ST/STM32_USB_Device_Library/Core/Src/usbd_ctlreq.c ****         default:
 210:Middlewares/ST/STM32_USB_Device_Library/Core/Src/usbd_ctlreq.c ****           USBD_CtlError(pdev, req);
 211:Middlewares/ST/STM32_USB_Device_Library/Core/Src/usbd_ctlreq.c ****           break;
 212:Middlewares/ST/STM32_USB_Device_Library/Core/Src/usbd_ctlreq.c ****       }
 213:Middlewares/ST/STM32_USB_Device_Library/Core/Src/usbd_ctlreq.c ****       break;
 214:Middlewares/ST/STM32_USB_Device_Library/Core/Src/usbd_ctlreq.c **** 
 215:Middlewares/ST/STM32_USB_Device_Library/Core/Src/usbd_ctlreq.c ****     default:
 216:Middlewares/ST/STM32_USB_Device_Library/Core/Src/usbd_ctlreq.c ****       USBD_CtlError(pdev, req);
 217:Middlewares/ST/STM32_USB_Device_Library/Core/Src/usbd_ctlreq.c ****       break;
 218:Middlewares/ST/STM32_USB_Device_Library/Core/Src/usbd_ctlreq.c ****   }
 219:Middlewares/ST/STM32_USB_Device_Library/Core/Src/usbd_ctlreq.c **** 
 220:Middlewares/ST/STM32_USB_Device_Library/Core/Src/usbd_ctlreq.c ****   return USBD_OK;
 221:Middlewares/ST/STM32_USB_Device_Library/Core/Src/usbd_ctlreq.c **** }
 222:Middlewares/ST/STM32_USB_Device_Library/Core/Src/usbd_ctlreq.c **** 
 223:Middlewares/ST/STM32_USB_Device_Library/Core/Src/usbd_ctlreq.c **** /**
 224:Middlewares/ST/STM32_USB_Device_Library/Core/Src/usbd_ctlreq.c **** * @brief  USBD_StdEPReq
 225:Middlewares/ST/STM32_USB_Device_Library/Core/Src/usbd_ctlreq.c **** *         Handle standard usb endpoint requests
 226:Middlewares/ST/STM32_USB_Device_Library/Core/Src/usbd_ctlreq.c **** * @param  pdev: device instance
 227:Middlewares/ST/STM32_USB_Device_Library/Core/Src/usbd_ctlreq.c **** * @param  req: usb request
 228:Middlewares/ST/STM32_USB_Device_Library/Core/Src/usbd_ctlreq.c **** * @retval status
 229:Middlewares/ST/STM32_USB_Device_Library/Core/Src/usbd_ctlreq.c **** */
 230:Middlewares/ST/STM32_USB_Device_Library/Core/Src/usbd_ctlreq.c **** USBD_StatusTypeDef  USBD_StdEPReq(USBD_HandleTypeDef *pdev,
 231:Middlewares/ST/STM32_USB_Device_Library/Core/Src/usbd_ctlreq.c ****                                   USBD_SetupReqTypedef  *req)
 232:Middlewares/ST/STM32_USB_Device_Library/Core/Src/usbd_ctlreq.c **** {
 233:Middlewares/ST/STM32_USB_Device_Library/Core/Src/usbd_ctlreq.c ****   USBD_EndpointTypeDef *pep;
 234:Middlewares/ST/STM32_USB_Device_Library/Core/Src/usbd_ctlreq.c ****   uint8_t   ep_addr;
 235:Middlewares/ST/STM32_USB_Device_Library/Core/Src/usbd_ctlreq.c ****   USBD_StatusTypeDef ret = USBD_OK;
 236:Middlewares/ST/STM32_USB_Device_Library/Core/Src/usbd_ctlreq.c ****   ep_addr  = LOBYTE(req->wIndex);
 237:Middlewares/ST/STM32_USB_Device_Library/Core/Src/usbd_ctlreq.c **** 
 238:Middlewares/ST/STM32_USB_Device_Library/Core/Src/usbd_ctlreq.c ****   switch (req->bmRequest & USB_REQ_TYPE_MASK)
 239:Middlewares/ST/STM32_USB_Device_Library/Core/Src/usbd_ctlreq.c ****   {
 240:Middlewares/ST/STM32_USB_Device_Library/Core/Src/usbd_ctlreq.c ****     case USB_REQ_TYPE_CLASS:
 241:Middlewares/ST/STM32_USB_Device_Library/Core/Src/usbd_ctlreq.c ****     case USB_REQ_TYPE_VENDOR:
 242:Middlewares/ST/STM32_USB_Device_Library/Core/Src/usbd_ctlreq.c ****       pdev->pClass->Setup(pdev, req);
 243:Middlewares/ST/STM32_USB_Device_Library/Core/Src/usbd_ctlreq.c ****       break;
 244:Middlewares/ST/STM32_USB_Device_Library/Core/Src/usbd_ctlreq.c **** 
 245:Middlewares/ST/STM32_USB_Device_Library/Core/Src/usbd_ctlreq.c ****     case USB_REQ_TYPE_STANDARD:
 246:Middlewares/ST/STM32_USB_Device_Library/Core/Src/usbd_ctlreq.c ****       /* Check if it is a class request */
 247:Middlewares/ST/STM32_USB_Device_Library/Core/Src/usbd_ctlreq.c ****       if ((req->bmRequest & 0x60U) == 0x20U)
 248:Middlewares/ST/STM32_USB_Device_Library/Core/Src/usbd_ctlreq.c ****       {
 249:Middlewares/ST/STM32_USB_Device_Library/Core/Src/usbd_ctlreq.c ****         ret = (USBD_StatusTypeDef)pdev->pClass->Setup(pdev, req);
 250:Middlewares/ST/STM32_USB_Device_Library/Core/Src/usbd_ctlreq.c **** 
 251:Middlewares/ST/STM32_USB_Device_Library/Core/Src/usbd_ctlreq.c ****         return ret;
 252:Middlewares/ST/STM32_USB_Device_Library/Core/Src/usbd_ctlreq.c ****       }
 253:Middlewares/ST/STM32_USB_Device_Library/Core/Src/usbd_ctlreq.c **** 
 254:Middlewares/ST/STM32_USB_Device_Library/Core/Src/usbd_ctlreq.c ****       switch (req->bRequest)
 255:Middlewares/ST/STM32_USB_Device_Library/Core/Src/usbd_ctlreq.c ****       {
 256:Middlewares/ST/STM32_USB_Device_Library/Core/Src/usbd_ctlreq.c ****         case USB_REQ_SET_FEATURE:
 257:Middlewares/ST/STM32_USB_Device_Library/Core/Src/usbd_ctlreq.c ****           switch (pdev->dev_state)
 258:Middlewares/ST/STM32_USB_Device_Library/Core/Src/usbd_ctlreq.c ****           {
 259:Middlewares/ST/STM32_USB_Device_Library/Core/Src/usbd_ctlreq.c ****             case USBD_STATE_ADDRESSED:
 260:Middlewares/ST/STM32_USB_Device_Library/Core/Src/usbd_ctlreq.c ****               if ((ep_addr != 0x00U) && (ep_addr != 0x80U))
ARM GAS  /tmp/ccp4GKZ9.s 			page 6


 261:Middlewares/ST/STM32_USB_Device_Library/Core/Src/usbd_ctlreq.c ****               {
 262:Middlewares/ST/STM32_USB_Device_Library/Core/Src/usbd_ctlreq.c ****                 USBD_LL_StallEP(pdev, ep_addr);
 263:Middlewares/ST/STM32_USB_Device_Library/Core/Src/usbd_ctlreq.c ****                 USBD_LL_StallEP(pdev, 0x80U);
 264:Middlewares/ST/STM32_USB_Device_Library/Core/Src/usbd_ctlreq.c ****               }
 265:Middlewares/ST/STM32_USB_Device_Library/Core/Src/usbd_ctlreq.c ****               else
 266:Middlewares/ST/STM32_USB_Device_Library/Core/Src/usbd_ctlreq.c ****               {
 267:Middlewares/ST/STM32_USB_Device_Library/Core/Src/usbd_ctlreq.c ****                 USBD_CtlError(pdev, req);
 268:Middlewares/ST/STM32_USB_Device_Library/Core/Src/usbd_ctlreq.c ****               }
 269:Middlewares/ST/STM32_USB_Device_Library/Core/Src/usbd_ctlreq.c ****               break;
 270:Middlewares/ST/STM32_USB_Device_Library/Core/Src/usbd_ctlreq.c **** 
 271:Middlewares/ST/STM32_USB_Device_Library/Core/Src/usbd_ctlreq.c ****             case USBD_STATE_CONFIGURED:
 272:Middlewares/ST/STM32_USB_Device_Library/Core/Src/usbd_ctlreq.c ****               if (req->wValue == USB_FEATURE_EP_HALT)
 273:Middlewares/ST/STM32_USB_Device_Library/Core/Src/usbd_ctlreq.c ****               {
 274:Middlewares/ST/STM32_USB_Device_Library/Core/Src/usbd_ctlreq.c ****                 if ((ep_addr != 0x00U) &&
 275:Middlewares/ST/STM32_USB_Device_Library/Core/Src/usbd_ctlreq.c ****                     (ep_addr != 0x80U) && (req->wLength == 0x00U))
 276:Middlewares/ST/STM32_USB_Device_Library/Core/Src/usbd_ctlreq.c ****                 {
 277:Middlewares/ST/STM32_USB_Device_Library/Core/Src/usbd_ctlreq.c ****                   USBD_LL_StallEP(pdev, ep_addr);
 278:Middlewares/ST/STM32_USB_Device_Library/Core/Src/usbd_ctlreq.c ****                 }
 279:Middlewares/ST/STM32_USB_Device_Library/Core/Src/usbd_ctlreq.c ****               }
 280:Middlewares/ST/STM32_USB_Device_Library/Core/Src/usbd_ctlreq.c ****               USBD_CtlSendStatus(pdev);
 281:Middlewares/ST/STM32_USB_Device_Library/Core/Src/usbd_ctlreq.c **** 
 282:Middlewares/ST/STM32_USB_Device_Library/Core/Src/usbd_ctlreq.c ****               break;
 283:Middlewares/ST/STM32_USB_Device_Library/Core/Src/usbd_ctlreq.c **** 
 284:Middlewares/ST/STM32_USB_Device_Library/Core/Src/usbd_ctlreq.c ****             default:
 285:Middlewares/ST/STM32_USB_Device_Library/Core/Src/usbd_ctlreq.c ****               USBD_CtlError(pdev, req);
 286:Middlewares/ST/STM32_USB_Device_Library/Core/Src/usbd_ctlreq.c ****               break;
 287:Middlewares/ST/STM32_USB_Device_Library/Core/Src/usbd_ctlreq.c ****           }
 288:Middlewares/ST/STM32_USB_Device_Library/Core/Src/usbd_ctlreq.c ****           break;
 289:Middlewares/ST/STM32_USB_Device_Library/Core/Src/usbd_ctlreq.c **** 
 290:Middlewares/ST/STM32_USB_Device_Library/Core/Src/usbd_ctlreq.c ****         case USB_REQ_CLEAR_FEATURE:
 291:Middlewares/ST/STM32_USB_Device_Library/Core/Src/usbd_ctlreq.c **** 
 292:Middlewares/ST/STM32_USB_Device_Library/Core/Src/usbd_ctlreq.c ****           switch (pdev->dev_state)
 293:Middlewares/ST/STM32_USB_Device_Library/Core/Src/usbd_ctlreq.c ****           {
 294:Middlewares/ST/STM32_USB_Device_Library/Core/Src/usbd_ctlreq.c ****             case USBD_STATE_ADDRESSED:
 295:Middlewares/ST/STM32_USB_Device_Library/Core/Src/usbd_ctlreq.c ****               if ((ep_addr != 0x00U) && (ep_addr != 0x80U))
 296:Middlewares/ST/STM32_USB_Device_Library/Core/Src/usbd_ctlreq.c ****               {
 297:Middlewares/ST/STM32_USB_Device_Library/Core/Src/usbd_ctlreq.c ****                 USBD_LL_StallEP(pdev, ep_addr);
 298:Middlewares/ST/STM32_USB_Device_Library/Core/Src/usbd_ctlreq.c ****                 USBD_LL_StallEP(pdev, 0x80U);
 299:Middlewares/ST/STM32_USB_Device_Library/Core/Src/usbd_ctlreq.c ****               }
 300:Middlewares/ST/STM32_USB_Device_Library/Core/Src/usbd_ctlreq.c ****               else
 301:Middlewares/ST/STM32_USB_Device_Library/Core/Src/usbd_ctlreq.c ****               {
 302:Middlewares/ST/STM32_USB_Device_Library/Core/Src/usbd_ctlreq.c ****                 USBD_CtlError(pdev, req);
 303:Middlewares/ST/STM32_USB_Device_Library/Core/Src/usbd_ctlreq.c ****               }
 304:Middlewares/ST/STM32_USB_Device_Library/Core/Src/usbd_ctlreq.c ****               break;
 305:Middlewares/ST/STM32_USB_Device_Library/Core/Src/usbd_ctlreq.c **** 
 306:Middlewares/ST/STM32_USB_Device_Library/Core/Src/usbd_ctlreq.c ****             case USBD_STATE_CONFIGURED:
 307:Middlewares/ST/STM32_USB_Device_Library/Core/Src/usbd_ctlreq.c ****               if (req->wValue == USB_FEATURE_EP_HALT)
 308:Middlewares/ST/STM32_USB_Device_Library/Core/Src/usbd_ctlreq.c ****               {
 309:Middlewares/ST/STM32_USB_Device_Library/Core/Src/usbd_ctlreq.c ****                 if ((ep_addr & 0x7FU) != 0x00U)
 310:Middlewares/ST/STM32_USB_Device_Library/Core/Src/usbd_ctlreq.c ****                 {
 311:Middlewares/ST/STM32_USB_Device_Library/Core/Src/usbd_ctlreq.c ****                   USBD_LL_ClearStallEP(pdev, ep_addr);
 312:Middlewares/ST/STM32_USB_Device_Library/Core/Src/usbd_ctlreq.c ****                 }
 313:Middlewares/ST/STM32_USB_Device_Library/Core/Src/usbd_ctlreq.c ****                 USBD_CtlSendStatus(pdev);
 314:Middlewares/ST/STM32_USB_Device_Library/Core/Src/usbd_ctlreq.c ****               }
 315:Middlewares/ST/STM32_USB_Device_Library/Core/Src/usbd_ctlreq.c ****               break;
 316:Middlewares/ST/STM32_USB_Device_Library/Core/Src/usbd_ctlreq.c **** 
 317:Middlewares/ST/STM32_USB_Device_Library/Core/Src/usbd_ctlreq.c ****             default:
ARM GAS  /tmp/ccp4GKZ9.s 			page 7


 318:Middlewares/ST/STM32_USB_Device_Library/Core/Src/usbd_ctlreq.c ****               USBD_CtlError(pdev, req);
 319:Middlewares/ST/STM32_USB_Device_Library/Core/Src/usbd_ctlreq.c ****               break;
 320:Middlewares/ST/STM32_USB_Device_Library/Core/Src/usbd_ctlreq.c ****           }
 321:Middlewares/ST/STM32_USB_Device_Library/Core/Src/usbd_ctlreq.c ****           break;
 322:Middlewares/ST/STM32_USB_Device_Library/Core/Src/usbd_ctlreq.c **** 
 323:Middlewares/ST/STM32_USB_Device_Library/Core/Src/usbd_ctlreq.c ****         case USB_REQ_GET_STATUS:
 324:Middlewares/ST/STM32_USB_Device_Library/Core/Src/usbd_ctlreq.c ****           switch (pdev->dev_state)
 325:Middlewares/ST/STM32_USB_Device_Library/Core/Src/usbd_ctlreq.c ****           {
 326:Middlewares/ST/STM32_USB_Device_Library/Core/Src/usbd_ctlreq.c ****             case USBD_STATE_ADDRESSED:
 327:Middlewares/ST/STM32_USB_Device_Library/Core/Src/usbd_ctlreq.c ****               if ((ep_addr != 0x00U) && (ep_addr != 0x80U))
 328:Middlewares/ST/STM32_USB_Device_Library/Core/Src/usbd_ctlreq.c ****               {
 329:Middlewares/ST/STM32_USB_Device_Library/Core/Src/usbd_ctlreq.c ****                 USBD_CtlError(pdev, req);
 330:Middlewares/ST/STM32_USB_Device_Library/Core/Src/usbd_ctlreq.c ****                 break;
 331:Middlewares/ST/STM32_USB_Device_Library/Core/Src/usbd_ctlreq.c ****               }
 332:Middlewares/ST/STM32_USB_Device_Library/Core/Src/usbd_ctlreq.c ****               pep = ((ep_addr & 0x80U) == 0x80U) ? &pdev->ep_in[ep_addr & 0x7FU] : \
 333:Middlewares/ST/STM32_USB_Device_Library/Core/Src/usbd_ctlreq.c ****                     &pdev->ep_out[ep_addr & 0x7FU];
 334:Middlewares/ST/STM32_USB_Device_Library/Core/Src/usbd_ctlreq.c **** 
 335:Middlewares/ST/STM32_USB_Device_Library/Core/Src/usbd_ctlreq.c ****               pep->status = 0x0000U;
 336:Middlewares/ST/STM32_USB_Device_Library/Core/Src/usbd_ctlreq.c **** 
 337:Middlewares/ST/STM32_USB_Device_Library/Core/Src/usbd_ctlreq.c ****               USBD_CtlSendData(pdev, (uint8_t *)(void *)&pep->status, 2U);
 338:Middlewares/ST/STM32_USB_Device_Library/Core/Src/usbd_ctlreq.c ****               break;
 339:Middlewares/ST/STM32_USB_Device_Library/Core/Src/usbd_ctlreq.c **** 
 340:Middlewares/ST/STM32_USB_Device_Library/Core/Src/usbd_ctlreq.c ****             case USBD_STATE_CONFIGURED:
 341:Middlewares/ST/STM32_USB_Device_Library/Core/Src/usbd_ctlreq.c ****               if ((ep_addr & 0x80U) == 0x80U)
 342:Middlewares/ST/STM32_USB_Device_Library/Core/Src/usbd_ctlreq.c ****               {
 343:Middlewares/ST/STM32_USB_Device_Library/Core/Src/usbd_ctlreq.c ****                 if (pdev->ep_in[ep_addr & 0xFU].is_used == 0U)
 344:Middlewares/ST/STM32_USB_Device_Library/Core/Src/usbd_ctlreq.c ****                 {
 345:Middlewares/ST/STM32_USB_Device_Library/Core/Src/usbd_ctlreq.c ****                   USBD_CtlError(pdev, req);
 346:Middlewares/ST/STM32_USB_Device_Library/Core/Src/usbd_ctlreq.c ****                   break;
 347:Middlewares/ST/STM32_USB_Device_Library/Core/Src/usbd_ctlreq.c ****                 }
 348:Middlewares/ST/STM32_USB_Device_Library/Core/Src/usbd_ctlreq.c ****               }
 349:Middlewares/ST/STM32_USB_Device_Library/Core/Src/usbd_ctlreq.c ****               else
 350:Middlewares/ST/STM32_USB_Device_Library/Core/Src/usbd_ctlreq.c ****               {
 351:Middlewares/ST/STM32_USB_Device_Library/Core/Src/usbd_ctlreq.c ****                 if (pdev->ep_out[ep_addr & 0xFU].is_used == 0U)
 352:Middlewares/ST/STM32_USB_Device_Library/Core/Src/usbd_ctlreq.c ****                 {
 353:Middlewares/ST/STM32_USB_Device_Library/Core/Src/usbd_ctlreq.c ****                   USBD_CtlError(pdev, req);
 354:Middlewares/ST/STM32_USB_Device_Library/Core/Src/usbd_ctlreq.c ****                   break;
 355:Middlewares/ST/STM32_USB_Device_Library/Core/Src/usbd_ctlreq.c ****                 }
 356:Middlewares/ST/STM32_USB_Device_Library/Core/Src/usbd_ctlreq.c ****               }
 357:Middlewares/ST/STM32_USB_Device_Library/Core/Src/usbd_ctlreq.c **** 
 358:Middlewares/ST/STM32_USB_Device_Library/Core/Src/usbd_ctlreq.c ****               pep = ((ep_addr & 0x80U) == 0x80U) ? &pdev->ep_in[ep_addr & 0x7FU] : \
 359:Middlewares/ST/STM32_USB_Device_Library/Core/Src/usbd_ctlreq.c ****                     &pdev->ep_out[ep_addr & 0x7FU];
 360:Middlewares/ST/STM32_USB_Device_Library/Core/Src/usbd_ctlreq.c **** 
 361:Middlewares/ST/STM32_USB_Device_Library/Core/Src/usbd_ctlreq.c ****               if ((ep_addr == 0x00U) || (ep_addr == 0x80U))
 362:Middlewares/ST/STM32_USB_Device_Library/Core/Src/usbd_ctlreq.c ****               {
 363:Middlewares/ST/STM32_USB_Device_Library/Core/Src/usbd_ctlreq.c ****                 pep->status = 0x0000U;
 364:Middlewares/ST/STM32_USB_Device_Library/Core/Src/usbd_ctlreq.c ****               }
 365:Middlewares/ST/STM32_USB_Device_Library/Core/Src/usbd_ctlreq.c ****               else if (USBD_LL_IsStallEP(pdev, ep_addr))
 366:Middlewares/ST/STM32_USB_Device_Library/Core/Src/usbd_ctlreq.c ****               {
 367:Middlewares/ST/STM32_USB_Device_Library/Core/Src/usbd_ctlreq.c ****                 pep->status = 0x0001U;
 368:Middlewares/ST/STM32_USB_Device_Library/Core/Src/usbd_ctlreq.c ****               }
 369:Middlewares/ST/STM32_USB_Device_Library/Core/Src/usbd_ctlreq.c ****               else
 370:Middlewares/ST/STM32_USB_Device_Library/Core/Src/usbd_ctlreq.c ****               {
 371:Middlewares/ST/STM32_USB_Device_Library/Core/Src/usbd_ctlreq.c ****                 pep->status = 0x0000U;
 372:Middlewares/ST/STM32_USB_Device_Library/Core/Src/usbd_ctlreq.c ****               }
 373:Middlewares/ST/STM32_USB_Device_Library/Core/Src/usbd_ctlreq.c **** 
 374:Middlewares/ST/STM32_USB_Device_Library/Core/Src/usbd_ctlreq.c ****               USBD_CtlSendData(pdev, (uint8_t *)(void *)&pep->status, 2U);
ARM GAS  /tmp/ccp4GKZ9.s 			page 8


 375:Middlewares/ST/STM32_USB_Device_Library/Core/Src/usbd_ctlreq.c ****               break;
 376:Middlewares/ST/STM32_USB_Device_Library/Core/Src/usbd_ctlreq.c **** 
 377:Middlewares/ST/STM32_USB_Device_Library/Core/Src/usbd_ctlreq.c ****             default:
 378:Middlewares/ST/STM32_USB_Device_Library/Core/Src/usbd_ctlreq.c ****               USBD_CtlError(pdev, req);
 379:Middlewares/ST/STM32_USB_Device_Library/Core/Src/usbd_ctlreq.c ****               break;
 380:Middlewares/ST/STM32_USB_Device_Library/Core/Src/usbd_ctlreq.c ****           }
 381:Middlewares/ST/STM32_USB_Device_Library/Core/Src/usbd_ctlreq.c ****           break;
 382:Middlewares/ST/STM32_USB_Device_Library/Core/Src/usbd_ctlreq.c **** 
 383:Middlewares/ST/STM32_USB_Device_Library/Core/Src/usbd_ctlreq.c ****         default:
 384:Middlewares/ST/STM32_USB_Device_Library/Core/Src/usbd_ctlreq.c ****           USBD_CtlError(pdev, req);
 385:Middlewares/ST/STM32_USB_Device_Library/Core/Src/usbd_ctlreq.c ****           break;
 386:Middlewares/ST/STM32_USB_Device_Library/Core/Src/usbd_ctlreq.c ****       }
 387:Middlewares/ST/STM32_USB_Device_Library/Core/Src/usbd_ctlreq.c ****       break;
 388:Middlewares/ST/STM32_USB_Device_Library/Core/Src/usbd_ctlreq.c **** 
 389:Middlewares/ST/STM32_USB_Device_Library/Core/Src/usbd_ctlreq.c ****     default:
 390:Middlewares/ST/STM32_USB_Device_Library/Core/Src/usbd_ctlreq.c ****       USBD_CtlError(pdev, req);
 391:Middlewares/ST/STM32_USB_Device_Library/Core/Src/usbd_ctlreq.c ****       break;
 392:Middlewares/ST/STM32_USB_Device_Library/Core/Src/usbd_ctlreq.c ****   }
 393:Middlewares/ST/STM32_USB_Device_Library/Core/Src/usbd_ctlreq.c **** 
 394:Middlewares/ST/STM32_USB_Device_Library/Core/Src/usbd_ctlreq.c ****   return ret;
 395:Middlewares/ST/STM32_USB_Device_Library/Core/Src/usbd_ctlreq.c **** }
 396:Middlewares/ST/STM32_USB_Device_Library/Core/Src/usbd_ctlreq.c **** 
 397:Middlewares/ST/STM32_USB_Device_Library/Core/Src/usbd_ctlreq.c **** 
 398:Middlewares/ST/STM32_USB_Device_Library/Core/Src/usbd_ctlreq.c **** /**
 399:Middlewares/ST/STM32_USB_Device_Library/Core/Src/usbd_ctlreq.c **** * @brief  USBD_GetDescriptor
 400:Middlewares/ST/STM32_USB_Device_Library/Core/Src/usbd_ctlreq.c **** *         Handle Get Descriptor requests
 401:Middlewares/ST/STM32_USB_Device_Library/Core/Src/usbd_ctlreq.c **** * @param  pdev: device instance
 402:Middlewares/ST/STM32_USB_Device_Library/Core/Src/usbd_ctlreq.c **** * @param  req: usb request
 403:Middlewares/ST/STM32_USB_Device_Library/Core/Src/usbd_ctlreq.c **** * @retval status
 404:Middlewares/ST/STM32_USB_Device_Library/Core/Src/usbd_ctlreq.c **** */
 405:Middlewares/ST/STM32_USB_Device_Library/Core/Src/usbd_ctlreq.c **** static void USBD_GetDescriptor(USBD_HandleTypeDef *pdev,
 406:Middlewares/ST/STM32_USB_Device_Library/Core/Src/usbd_ctlreq.c ****                                USBD_SetupReqTypedef *req)
 407:Middlewares/ST/STM32_USB_Device_Library/Core/Src/usbd_ctlreq.c **** {
 408:Middlewares/ST/STM32_USB_Device_Library/Core/Src/usbd_ctlreq.c ****   uint16_t len = 0U;
 409:Middlewares/ST/STM32_USB_Device_Library/Core/Src/usbd_ctlreq.c ****   uint8_t *pbuf = NULL;
 410:Middlewares/ST/STM32_USB_Device_Library/Core/Src/usbd_ctlreq.c ****   uint8_t err = 0U;
 411:Middlewares/ST/STM32_USB_Device_Library/Core/Src/usbd_ctlreq.c **** 
 412:Middlewares/ST/STM32_USB_Device_Library/Core/Src/usbd_ctlreq.c ****   switch (req->wValue >> 8)
 413:Middlewares/ST/STM32_USB_Device_Library/Core/Src/usbd_ctlreq.c ****   {
 414:Middlewares/ST/STM32_USB_Device_Library/Core/Src/usbd_ctlreq.c **** #if (USBD_LPM_ENABLED == 1U)
 415:Middlewares/ST/STM32_USB_Device_Library/Core/Src/usbd_ctlreq.c ****     case USB_DESC_TYPE_BOS:
 416:Middlewares/ST/STM32_USB_Device_Library/Core/Src/usbd_ctlreq.c ****       if (pdev->pDesc->GetBOSDescriptor != NULL)
 417:Middlewares/ST/STM32_USB_Device_Library/Core/Src/usbd_ctlreq.c ****       {
 418:Middlewares/ST/STM32_USB_Device_Library/Core/Src/usbd_ctlreq.c ****         pbuf = pdev->pDesc->GetBOSDescriptor(pdev->dev_speed, &len);
 419:Middlewares/ST/STM32_USB_Device_Library/Core/Src/usbd_ctlreq.c ****       }
 420:Middlewares/ST/STM32_USB_Device_Library/Core/Src/usbd_ctlreq.c ****       else
 421:Middlewares/ST/STM32_USB_Device_Library/Core/Src/usbd_ctlreq.c ****       {
 422:Middlewares/ST/STM32_USB_Device_Library/Core/Src/usbd_ctlreq.c ****         USBD_CtlError(pdev, req);
 423:Middlewares/ST/STM32_USB_Device_Library/Core/Src/usbd_ctlreq.c ****         err++;
 424:Middlewares/ST/STM32_USB_Device_Library/Core/Src/usbd_ctlreq.c ****       }
 425:Middlewares/ST/STM32_USB_Device_Library/Core/Src/usbd_ctlreq.c ****       break;
 426:Middlewares/ST/STM32_USB_Device_Library/Core/Src/usbd_ctlreq.c **** #endif
 427:Middlewares/ST/STM32_USB_Device_Library/Core/Src/usbd_ctlreq.c ****     case USB_DESC_TYPE_DEVICE:
 428:Middlewares/ST/STM32_USB_Device_Library/Core/Src/usbd_ctlreq.c ****       pbuf = pdev->pDesc->GetDeviceDescriptor(pdev->dev_speed, &len);
 429:Middlewares/ST/STM32_USB_Device_Library/Core/Src/usbd_ctlreq.c ****       break;
 430:Middlewares/ST/STM32_USB_Device_Library/Core/Src/usbd_ctlreq.c **** 
 431:Middlewares/ST/STM32_USB_Device_Library/Core/Src/usbd_ctlreq.c ****     case USB_DESC_TYPE_CONFIGURATION:
ARM GAS  /tmp/ccp4GKZ9.s 			page 9


 432:Middlewares/ST/STM32_USB_Device_Library/Core/Src/usbd_ctlreq.c ****       if (pdev->dev_speed == USBD_SPEED_HIGH)
 433:Middlewares/ST/STM32_USB_Device_Library/Core/Src/usbd_ctlreq.c ****       {
 434:Middlewares/ST/STM32_USB_Device_Library/Core/Src/usbd_ctlreq.c ****         pbuf = pdev->pClass->GetHSConfigDescriptor(&len);
 435:Middlewares/ST/STM32_USB_Device_Library/Core/Src/usbd_ctlreq.c ****         pbuf[1] = USB_DESC_TYPE_CONFIGURATION;
 436:Middlewares/ST/STM32_USB_Device_Library/Core/Src/usbd_ctlreq.c ****       }
 437:Middlewares/ST/STM32_USB_Device_Library/Core/Src/usbd_ctlreq.c ****       else
 438:Middlewares/ST/STM32_USB_Device_Library/Core/Src/usbd_ctlreq.c ****       {
 439:Middlewares/ST/STM32_USB_Device_Library/Core/Src/usbd_ctlreq.c ****         pbuf = pdev->pClass->GetFSConfigDescriptor(&len);
 440:Middlewares/ST/STM32_USB_Device_Library/Core/Src/usbd_ctlreq.c ****         pbuf[1] = USB_DESC_TYPE_CONFIGURATION;
 441:Middlewares/ST/STM32_USB_Device_Library/Core/Src/usbd_ctlreq.c ****       }
 442:Middlewares/ST/STM32_USB_Device_Library/Core/Src/usbd_ctlreq.c ****       break;
 443:Middlewares/ST/STM32_USB_Device_Library/Core/Src/usbd_ctlreq.c **** 
 444:Middlewares/ST/STM32_USB_Device_Library/Core/Src/usbd_ctlreq.c ****     case USB_DESC_TYPE_STRING:
 445:Middlewares/ST/STM32_USB_Device_Library/Core/Src/usbd_ctlreq.c ****       switch ((uint8_t)(req->wValue))
 446:Middlewares/ST/STM32_USB_Device_Library/Core/Src/usbd_ctlreq.c ****       {
 447:Middlewares/ST/STM32_USB_Device_Library/Core/Src/usbd_ctlreq.c ****         case USBD_IDX_LANGID_STR:
 448:Middlewares/ST/STM32_USB_Device_Library/Core/Src/usbd_ctlreq.c ****           if (pdev->pDesc->GetLangIDStrDescriptor != NULL)
 449:Middlewares/ST/STM32_USB_Device_Library/Core/Src/usbd_ctlreq.c ****           {
 450:Middlewares/ST/STM32_USB_Device_Library/Core/Src/usbd_ctlreq.c ****             pbuf = pdev->pDesc->GetLangIDStrDescriptor(pdev->dev_speed, &len);
 451:Middlewares/ST/STM32_USB_Device_Library/Core/Src/usbd_ctlreq.c ****           }
 452:Middlewares/ST/STM32_USB_Device_Library/Core/Src/usbd_ctlreq.c ****           else
 453:Middlewares/ST/STM32_USB_Device_Library/Core/Src/usbd_ctlreq.c ****           {
 454:Middlewares/ST/STM32_USB_Device_Library/Core/Src/usbd_ctlreq.c ****             USBD_CtlError(pdev, req);
 455:Middlewares/ST/STM32_USB_Device_Library/Core/Src/usbd_ctlreq.c ****             err++;
 456:Middlewares/ST/STM32_USB_Device_Library/Core/Src/usbd_ctlreq.c ****           }
 457:Middlewares/ST/STM32_USB_Device_Library/Core/Src/usbd_ctlreq.c ****           break;
 458:Middlewares/ST/STM32_USB_Device_Library/Core/Src/usbd_ctlreq.c **** 
 459:Middlewares/ST/STM32_USB_Device_Library/Core/Src/usbd_ctlreq.c ****         case USBD_IDX_MFC_STR:
 460:Middlewares/ST/STM32_USB_Device_Library/Core/Src/usbd_ctlreq.c ****           if (pdev->pDesc->GetManufacturerStrDescriptor != NULL)
 461:Middlewares/ST/STM32_USB_Device_Library/Core/Src/usbd_ctlreq.c ****           {
 462:Middlewares/ST/STM32_USB_Device_Library/Core/Src/usbd_ctlreq.c ****             pbuf = pdev->pDesc->GetManufacturerStrDescriptor(pdev->dev_speed, &len);
 463:Middlewares/ST/STM32_USB_Device_Library/Core/Src/usbd_ctlreq.c ****           }
 464:Middlewares/ST/STM32_USB_Device_Library/Core/Src/usbd_ctlreq.c ****           else
 465:Middlewares/ST/STM32_USB_Device_Library/Core/Src/usbd_ctlreq.c ****           {
 466:Middlewares/ST/STM32_USB_Device_Library/Core/Src/usbd_ctlreq.c ****             USBD_CtlError(pdev, req);
 467:Middlewares/ST/STM32_USB_Device_Library/Core/Src/usbd_ctlreq.c ****             err++;
 468:Middlewares/ST/STM32_USB_Device_Library/Core/Src/usbd_ctlreq.c ****           }
 469:Middlewares/ST/STM32_USB_Device_Library/Core/Src/usbd_ctlreq.c ****           break;
 470:Middlewares/ST/STM32_USB_Device_Library/Core/Src/usbd_ctlreq.c **** 
 471:Middlewares/ST/STM32_USB_Device_Library/Core/Src/usbd_ctlreq.c ****         case USBD_IDX_PRODUCT_STR:
 472:Middlewares/ST/STM32_USB_Device_Library/Core/Src/usbd_ctlreq.c ****           if (pdev->pDesc->GetProductStrDescriptor != NULL)
 473:Middlewares/ST/STM32_USB_Device_Library/Core/Src/usbd_ctlreq.c ****           {
 474:Middlewares/ST/STM32_USB_Device_Library/Core/Src/usbd_ctlreq.c ****             pbuf = pdev->pDesc->GetProductStrDescriptor(pdev->dev_speed, &len);
 475:Middlewares/ST/STM32_USB_Device_Library/Core/Src/usbd_ctlreq.c ****           }
 476:Middlewares/ST/STM32_USB_Device_Library/Core/Src/usbd_ctlreq.c ****           else
 477:Middlewares/ST/STM32_USB_Device_Library/Core/Src/usbd_ctlreq.c ****           {
 478:Middlewares/ST/STM32_USB_Device_Library/Core/Src/usbd_ctlreq.c ****             USBD_CtlError(pdev, req);
 479:Middlewares/ST/STM32_USB_Device_Library/Core/Src/usbd_ctlreq.c ****             err++;
 480:Middlewares/ST/STM32_USB_Device_Library/Core/Src/usbd_ctlreq.c ****           }
 481:Middlewares/ST/STM32_USB_Device_Library/Core/Src/usbd_ctlreq.c ****           break;
 482:Middlewares/ST/STM32_USB_Device_Library/Core/Src/usbd_ctlreq.c **** 
 483:Middlewares/ST/STM32_USB_Device_Library/Core/Src/usbd_ctlreq.c ****         case USBD_IDX_SERIAL_STR:
 484:Middlewares/ST/STM32_USB_Device_Library/Core/Src/usbd_ctlreq.c ****           if (pdev->pDesc->GetSerialStrDescriptor != NULL)
 485:Middlewares/ST/STM32_USB_Device_Library/Core/Src/usbd_ctlreq.c ****           {
 486:Middlewares/ST/STM32_USB_Device_Library/Core/Src/usbd_ctlreq.c ****             pbuf = pdev->pDesc->GetSerialStrDescriptor(pdev->dev_speed, &len);
 487:Middlewares/ST/STM32_USB_Device_Library/Core/Src/usbd_ctlreq.c ****           }
 488:Middlewares/ST/STM32_USB_Device_Library/Core/Src/usbd_ctlreq.c ****           else
ARM GAS  /tmp/ccp4GKZ9.s 			page 10


 489:Middlewares/ST/STM32_USB_Device_Library/Core/Src/usbd_ctlreq.c ****           {
 490:Middlewares/ST/STM32_USB_Device_Library/Core/Src/usbd_ctlreq.c ****             USBD_CtlError(pdev, req);
 491:Middlewares/ST/STM32_USB_Device_Library/Core/Src/usbd_ctlreq.c ****             err++;
 492:Middlewares/ST/STM32_USB_Device_Library/Core/Src/usbd_ctlreq.c ****           }
 493:Middlewares/ST/STM32_USB_Device_Library/Core/Src/usbd_ctlreq.c ****           break;
 494:Middlewares/ST/STM32_USB_Device_Library/Core/Src/usbd_ctlreq.c **** 
 495:Middlewares/ST/STM32_USB_Device_Library/Core/Src/usbd_ctlreq.c ****         case USBD_IDX_CONFIG_STR:
 496:Middlewares/ST/STM32_USB_Device_Library/Core/Src/usbd_ctlreq.c ****           if (pdev->pDesc->GetConfigurationStrDescriptor != NULL)
 497:Middlewares/ST/STM32_USB_Device_Library/Core/Src/usbd_ctlreq.c ****           {
 498:Middlewares/ST/STM32_USB_Device_Library/Core/Src/usbd_ctlreq.c ****             pbuf = pdev->pDesc->GetConfigurationStrDescriptor(pdev->dev_speed, &len);
 499:Middlewares/ST/STM32_USB_Device_Library/Core/Src/usbd_ctlreq.c ****           }
 500:Middlewares/ST/STM32_USB_Device_Library/Core/Src/usbd_ctlreq.c ****           else
 501:Middlewares/ST/STM32_USB_Device_Library/Core/Src/usbd_ctlreq.c ****           {
 502:Middlewares/ST/STM32_USB_Device_Library/Core/Src/usbd_ctlreq.c ****             USBD_CtlError(pdev, req);
 503:Middlewares/ST/STM32_USB_Device_Library/Core/Src/usbd_ctlreq.c ****             err++;
 504:Middlewares/ST/STM32_USB_Device_Library/Core/Src/usbd_ctlreq.c ****           }
 505:Middlewares/ST/STM32_USB_Device_Library/Core/Src/usbd_ctlreq.c ****           break;
 506:Middlewares/ST/STM32_USB_Device_Library/Core/Src/usbd_ctlreq.c **** 
 507:Middlewares/ST/STM32_USB_Device_Library/Core/Src/usbd_ctlreq.c ****         case USBD_IDX_INTERFACE_STR:
 508:Middlewares/ST/STM32_USB_Device_Library/Core/Src/usbd_ctlreq.c ****           if (pdev->pDesc->GetInterfaceStrDescriptor != NULL)
 509:Middlewares/ST/STM32_USB_Device_Library/Core/Src/usbd_ctlreq.c ****           {
 510:Middlewares/ST/STM32_USB_Device_Library/Core/Src/usbd_ctlreq.c ****             pbuf = pdev->pDesc->GetInterfaceStrDescriptor(pdev->dev_speed, &len);
 511:Middlewares/ST/STM32_USB_Device_Library/Core/Src/usbd_ctlreq.c ****           }
 512:Middlewares/ST/STM32_USB_Device_Library/Core/Src/usbd_ctlreq.c ****           else
 513:Middlewares/ST/STM32_USB_Device_Library/Core/Src/usbd_ctlreq.c ****           {
 514:Middlewares/ST/STM32_USB_Device_Library/Core/Src/usbd_ctlreq.c ****             USBD_CtlError(pdev, req);
 515:Middlewares/ST/STM32_USB_Device_Library/Core/Src/usbd_ctlreq.c ****             err++;
 516:Middlewares/ST/STM32_USB_Device_Library/Core/Src/usbd_ctlreq.c ****           }
 517:Middlewares/ST/STM32_USB_Device_Library/Core/Src/usbd_ctlreq.c ****           break;
 518:Middlewares/ST/STM32_USB_Device_Library/Core/Src/usbd_ctlreq.c **** 
 519:Middlewares/ST/STM32_USB_Device_Library/Core/Src/usbd_ctlreq.c ****         default:
 520:Middlewares/ST/STM32_USB_Device_Library/Core/Src/usbd_ctlreq.c **** #if (USBD_SUPPORT_USER_STRING_DESC == 1U)
 521:Middlewares/ST/STM32_USB_Device_Library/Core/Src/usbd_ctlreq.c ****           if (pdev->pClass->GetUsrStrDescriptor != NULL)
 522:Middlewares/ST/STM32_USB_Device_Library/Core/Src/usbd_ctlreq.c ****           {
 523:Middlewares/ST/STM32_USB_Device_Library/Core/Src/usbd_ctlreq.c ****             pbuf = pdev->pClass->GetUsrStrDescriptor(pdev, (req->wValue), &len);
 524:Middlewares/ST/STM32_USB_Device_Library/Core/Src/usbd_ctlreq.c ****           }
 525:Middlewares/ST/STM32_USB_Device_Library/Core/Src/usbd_ctlreq.c ****           else
 526:Middlewares/ST/STM32_USB_Device_Library/Core/Src/usbd_ctlreq.c ****           {
 527:Middlewares/ST/STM32_USB_Device_Library/Core/Src/usbd_ctlreq.c ****             USBD_CtlError(pdev, req);
 528:Middlewares/ST/STM32_USB_Device_Library/Core/Src/usbd_ctlreq.c ****             err++;
 529:Middlewares/ST/STM32_USB_Device_Library/Core/Src/usbd_ctlreq.c ****           }
 530:Middlewares/ST/STM32_USB_Device_Library/Core/Src/usbd_ctlreq.c ****           break;
 531:Middlewares/ST/STM32_USB_Device_Library/Core/Src/usbd_ctlreq.c **** #else
 532:Middlewares/ST/STM32_USB_Device_Library/Core/Src/usbd_ctlreq.c ****           USBD_CtlError(pdev, req);
 533:Middlewares/ST/STM32_USB_Device_Library/Core/Src/usbd_ctlreq.c ****           err++;
 534:Middlewares/ST/STM32_USB_Device_Library/Core/Src/usbd_ctlreq.c **** #endif
 535:Middlewares/ST/STM32_USB_Device_Library/Core/Src/usbd_ctlreq.c ****       }
 536:Middlewares/ST/STM32_USB_Device_Library/Core/Src/usbd_ctlreq.c ****       break;
 537:Middlewares/ST/STM32_USB_Device_Library/Core/Src/usbd_ctlreq.c **** 
 538:Middlewares/ST/STM32_USB_Device_Library/Core/Src/usbd_ctlreq.c ****     case USB_DESC_TYPE_DEVICE_QUALIFIER:
 539:Middlewares/ST/STM32_USB_Device_Library/Core/Src/usbd_ctlreq.c ****       if (pdev->dev_speed == USBD_SPEED_HIGH)
 540:Middlewares/ST/STM32_USB_Device_Library/Core/Src/usbd_ctlreq.c ****       {
 541:Middlewares/ST/STM32_USB_Device_Library/Core/Src/usbd_ctlreq.c ****         pbuf = pdev->pClass->GetDeviceQualifierDescriptor(&len);
 542:Middlewares/ST/STM32_USB_Device_Library/Core/Src/usbd_ctlreq.c ****       }
 543:Middlewares/ST/STM32_USB_Device_Library/Core/Src/usbd_ctlreq.c ****       else
 544:Middlewares/ST/STM32_USB_Device_Library/Core/Src/usbd_ctlreq.c ****       {
 545:Middlewares/ST/STM32_USB_Device_Library/Core/Src/usbd_ctlreq.c ****         USBD_CtlError(pdev, req);
ARM GAS  /tmp/ccp4GKZ9.s 			page 11


 546:Middlewares/ST/STM32_USB_Device_Library/Core/Src/usbd_ctlreq.c ****         err++;
 547:Middlewares/ST/STM32_USB_Device_Library/Core/Src/usbd_ctlreq.c ****       }
 548:Middlewares/ST/STM32_USB_Device_Library/Core/Src/usbd_ctlreq.c ****       break;
 549:Middlewares/ST/STM32_USB_Device_Library/Core/Src/usbd_ctlreq.c **** 
 550:Middlewares/ST/STM32_USB_Device_Library/Core/Src/usbd_ctlreq.c ****     case USB_DESC_TYPE_OTHER_SPEED_CONFIGURATION:
 551:Middlewares/ST/STM32_USB_Device_Library/Core/Src/usbd_ctlreq.c ****       if (pdev->dev_speed == USBD_SPEED_HIGH)
 552:Middlewares/ST/STM32_USB_Device_Library/Core/Src/usbd_ctlreq.c ****       {
 553:Middlewares/ST/STM32_USB_Device_Library/Core/Src/usbd_ctlreq.c ****         pbuf = pdev->pClass->GetOtherSpeedConfigDescriptor(&len);
 554:Middlewares/ST/STM32_USB_Device_Library/Core/Src/usbd_ctlreq.c ****         pbuf[1] = USB_DESC_TYPE_OTHER_SPEED_CONFIGURATION;
 555:Middlewares/ST/STM32_USB_Device_Library/Core/Src/usbd_ctlreq.c ****       }
 556:Middlewares/ST/STM32_USB_Device_Library/Core/Src/usbd_ctlreq.c ****       else
 557:Middlewares/ST/STM32_USB_Device_Library/Core/Src/usbd_ctlreq.c ****       {
 558:Middlewares/ST/STM32_USB_Device_Library/Core/Src/usbd_ctlreq.c ****         USBD_CtlError(pdev, req);
 559:Middlewares/ST/STM32_USB_Device_Library/Core/Src/usbd_ctlreq.c ****         err++;
 560:Middlewares/ST/STM32_USB_Device_Library/Core/Src/usbd_ctlreq.c ****       }
 561:Middlewares/ST/STM32_USB_Device_Library/Core/Src/usbd_ctlreq.c ****       break;
 562:Middlewares/ST/STM32_USB_Device_Library/Core/Src/usbd_ctlreq.c **** 
 563:Middlewares/ST/STM32_USB_Device_Library/Core/Src/usbd_ctlreq.c ****     default:
 564:Middlewares/ST/STM32_USB_Device_Library/Core/Src/usbd_ctlreq.c ****       USBD_CtlError(pdev, req);
 565:Middlewares/ST/STM32_USB_Device_Library/Core/Src/usbd_ctlreq.c ****       err++;
 566:Middlewares/ST/STM32_USB_Device_Library/Core/Src/usbd_ctlreq.c ****       break;
 567:Middlewares/ST/STM32_USB_Device_Library/Core/Src/usbd_ctlreq.c ****   }
 568:Middlewares/ST/STM32_USB_Device_Library/Core/Src/usbd_ctlreq.c **** 
 569:Middlewares/ST/STM32_USB_Device_Library/Core/Src/usbd_ctlreq.c ****   if (err != 0U)
 570:Middlewares/ST/STM32_USB_Device_Library/Core/Src/usbd_ctlreq.c ****   {
 571:Middlewares/ST/STM32_USB_Device_Library/Core/Src/usbd_ctlreq.c ****     return;
 572:Middlewares/ST/STM32_USB_Device_Library/Core/Src/usbd_ctlreq.c ****   }
 573:Middlewares/ST/STM32_USB_Device_Library/Core/Src/usbd_ctlreq.c ****   else
 574:Middlewares/ST/STM32_USB_Device_Library/Core/Src/usbd_ctlreq.c ****   {
 575:Middlewares/ST/STM32_USB_Device_Library/Core/Src/usbd_ctlreq.c ****     if ((len != 0U) && (req->wLength != 0U))
 576:Middlewares/ST/STM32_USB_Device_Library/Core/Src/usbd_ctlreq.c ****     {
 577:Middlewares/ST/STM32_USB_Device_Library/Core/Src/usbd_ctlreq.c ****       len = MIN(len, req->wLength);
 578:Middlewares/ST/STM32_USB_Device_Library/Core/Src/usbd_ctlreq.c ****       (void)USBD_CtlSendData(pdev, pbuf, len);
 579:Middlewares/ST/STM32_USB_Device_Library/Core/Src/usbd_ctlreq.c ****     }
 580:Middlewares/ST/STM32_USB_Device_Library/Core/Src/usbd_ctlreq.c **** 
 581:Middlewares/ST/STM32_USB_Device_Library/Core/Src/usbd_ctlreq.c ****     if (req->wLength == 0U)
 582:Middlewares/ST/STM32_USB_Device_Library/Core/Src/usbd_ctlreq.c ****     {
 583:Middlewares/ST/STM32_USB_Device_Library/Core/Src/usbd_ctlreq.c ****       (void)USBD_CtlSendStatus(pdev);
 584:Middlewares/ST/STM32_USB_Device_Library/Core/Src/usbd_ctlreq.c ****     }
 585:Middlewares/ST/STM32_USB_Device_Library/Core/Src/usbd_ctlreq.c ****   }
 586:Middlewares/ST/STM32_USB_Device_Library/Core/Src/usbd_ctlreq.c **** }
 587:Middlewares/ST/STM32_USB_Device_Library/Core/Src/usbd_ctlreq.c **** 
 588:Middlewares/ST/STM32_USB_Device_Library/Core/Src/usbd_ctlreq.c **** /**
 589:Middlewares/ST/STM32_USB_Device_Library/Core/Src/usbd_ctlreq.c **** * @brief  USBD_SetAddress
 590:Middlewares/ST/STM32_USB_Device_Library/Core/Src/usbd_ctlreq.c **** *         Set device address
 591:Middlewares/ST/STM32_USB_Device_Library/Core/Src/usbd_ctlreq.c **** * @param  pdev: device instance
 592:Middlewares/ST/STM32_USB_Device_Library/Core/Src/usbd_ctlreq.c **** * @param  req: usb request
 593:Middlewares/ST/STM32_USB_Device_Library/Core/Src/usbd_ctlreq.c **** * @retval status
 594:Middlewares/ST/STM32_USB_Device_Library/Core/Src/usbd_ctlreq.c **** */
 595:Middlewares/ST/STM32_USB_Device_Library/Core/Src/usbd_ctlreq.c **** static void USBD_SetAddress(USBD_HandleTypeDef *pdev,
 596:Middlewares/ST/STM32_USB_Device_Library/Core/Src/usbd_ctlreq.c ****                             USBD_SetupReqTypedef *req)
 597:Middlewares/ST/STM32_USB_Device_Library/Core/Src/usbd_ctlreq.c **** {
 598:Middlewares/ST/STM32_USB_Device_Library/Core/Src/usbd_ctlreq.c ****   uint8_t  dev_addr;
 599:Middlewares/ST/STM32_USB_Device_Library/Core/Src/usbd_ctlreq.c **** 
 600:Middlewares/ST/STM32_USB_Device_Library/Core/Src/usbd_ctlreq.c ****   if ((req->wIndex == 0U) && (req->wLength == 0U) && (req->wValue < 128U))
 601:Middlewares/ST/STM32_USB_Device_Library/Core/Src/usbd_ctlreq.c ****   {
 602:Middlewares/ST/STM32_USB_Device_Library/Core/Src/usbd_ctlreq.c ****     dev_addr = (uint8_t)(req->wValue) & 0x7FU;
ARM GAS  /tmp/ccp4GKZ9.s 			page 12


 603:Middlewares/ST/STM32_USB_Device_Library/Core/Src/usbd_ctlreq.c **** 
 604:Middlewares/ST/STM32_USB_Device_Library/Core/Src/usbd_ctlreq.c ****     if (pdev->dev_state == USBD_STATE_CONFIGURED)
 605:Middlewares/ST/STM32_USB_Device_Library/Core/Src/usbd_ctlreq.c ****     {
 606:Middlewares/ST/STM32_USB_Device_Library/Core/Src/usbd_ctlreq.c ****       USBD_CtlError(pdev, req);
 607:Middlewares/ST/STM32_USB_Device_Library/Core/Src/usbd_ctlreq.c ****     }
 608:Middlewares/ST/STM32_USB_Device_Library/Core/Src/usbd_ctlreq.c ****     else
 609:Middlewares/ST/STM32_USB_Device_Library/Core/Src/usbd_ctlreq.c ****     {
 610:Middlewares/ST/STM32_USB_Device_Library/Core/Src/usbd_ctlreq.c ****       pdev->dev_address = dev_addr;
 611:Middlewares/ST/STM32_USB_Device_Library/Core/Src/usbd_ctlreq.c ****       USBD_LL_SetUSBAddress(pdev, dev_addr);
 612:Middlewares/ST/STM32_USB_Device_Library/Core/Src/usbd_ctlreq.c ****       USBD_CtlSendStatus(pdev);
 613:Middlewares/ST/STM32_USB_Device_Library/Core/Src/usbd_ctlreq.c **** 
 614:Middlewares/ST/STM32_USB_Device_Library/Core/Src/usbd_ctlreq.c ****       if (dev_addr != 0U)
 615:Middlewares/ST/STM32_USB_Device_Library/Core/Src/usbd_ctlreq.c ****       {
 616:Middlewares/ST/STM32_USB_Device_Library/Core/Src/usbd_ctlreq.c ****         pdev->dev_state = USBD_STATE_ADDRESSED;
 617:Middlewares/ST/STM32_USB_Device_Library/Core/Src/usbd_ctlreq.c ****       }
 618:Middlewares/ST/STM32_USB_Device_Library/Core/Src/usbd_ctlreq.c ****       else
 619:Middlewares/ST/STM32_USB_Device_Library/Core/Src/usbd_ctlreq.c ****       {
 620:Middlewares/ST/STM32_USB_Device_Library/Core/Src/usbd_ctlreq.c ****         pdev->dev_state = USBD_STATE_DEFAULT;
 621:Middlewares/ST/STM32_USB_Device_Library/Core/Src/usbd_ctlreq.c ****       }
 622:Middlewares/ST/STM32_USB_Device_Library/Core/Src/usbd_ctlreq.c ****     }
 623:Middlewares/ST/STM32_USB_Device_Library/Core/Src/usbd_ctlreq.c ****   }
 624:Middlewares/ST/STM32_USB_Device_Library/Core/Src/usbd_ctlreq.c ****   else
 625:Middlewares/ST/STM32_USB_Device_Library/Core/Src/usbd_ctlreq.c ****   {
 626:Middlewares/ST/STM32_USB_Device_Library/Core/Src/usbd_ctlreq.c ****     USBD_CtlError(pdev, req);
 627:Middlewares/ST/STM32_USB_Device_Library/Core/Src/usbd_ctlreq.c ****   }
 628:Middlewares/ST/STM32_USB_Device_Library/Core/Src/usbd_ctlreq.c **** }
 629:Middlewares/ST/STM32_USB_Device_Library/Core/Src/usbd_ctlreq.c **** 
 630:Middlewares/ST/STM32_USB_Device_Library/Core/Src/usbd_ctlreq.c **** /**
 631:Middlewares/ST/STM32_USB_Device_Library/Core/Src/usbd_ctlreq.c **** * @brief  USBD_SetConfig
 632:Middlewares/ST/STM32_USB_Device_Library/Core/Src/usbd_ctlreq.c **** *         Handle Set device configuration request
 633:Middlewares/ST/STM32_USB_Device_Library/Core/Src/usbd_ctlreq.c **** * @param  pdev: device instance
 634:Middlewares/ST/STM32_USB_Device_Library/Core/Src/usbd_ctlreq.c **** * @param  req: usb request
 635:Middlewares/ST/STM32_USB_Device_Library/Core/Src/usbd_ctlreq.c **** * @retval status
 636:Middlewares/ST/STM32_USB_Device_Library/Core/Src/usbd_ctlreq.c **** */
 637:Middlewares/ST/STM32_USB_Device_Library/Core/Src/usbd_ctlreq.c **** static void USBD_SetConfig(USBD_HandleTypeDef *pdev, USBD_SetupReqTypedef *req)
 638:Middlewares/ST/STM32_USB_Device_Library/Core/Src/usbd_ctlreq.c **** {
 639:Middlewares/ST/STM32_USB_Device_Library/Core/Src/usbd_ctlreq.c ****   static uint8_t cfgidx;
 640:Middlewares/ST/STM32_USB_Device_Library/Core/Src/usbd_ctlreq.c **** 
 641:Middlewares/ST/STM32_USB_Device_Library/Core/Src/usbd_ctlreq.c ****   cfgidx = (uint8_t)(req->wValue);
 642:Middlewares/ST/STM32_USB_Device_Library/Core/Src/usbd_ctlreq.c **** 
 643:Middlewares/ST/STM32_USB_Device_Library/Core/Src/usbd_ctlreq.c ****   if (cfgidx > USBD_MAX_NUM_CONFIGURATION)
 644:Middlewares/ST/STM32_USB_Device_Library/Core/Src/usbd_ctlreq.c ****   {
 645:Middlewares/ST/STM32_USB_Device_Library/Core/Src/usbd_ctlreq.c ****     USBD_CtlError(pdev, req);
 646:Middlewares/ST/STM32_USB_Device_Library/Core/Src/usbd_ctlreq.c ****   }
 647:Middlewares/ST/STM32_USB_Device_Library/Core/Src/usbd_ctlreq.c ****   else
 648:Middlewares/ST/STM32_USB_Device_Library/Core/Src/usbd_ctlreq.c ****   {
 649:Middlewares/ST/STM32_USB_Device_Library/Core/Src/usbd_ctlreq.c ****     switch (pdev->dev_state)
 650:Middlewares/ST/STM32_USB_Device_Library/Core/Src/usbd_ctlreq.c ****     {
 651:Middlewares/ST/STM32_USB_Device_Library/Core/Src/usbd_ctlreq.c ****       case USBD_STATE_ADDRESSED:
 652:Middlewares/ST/STM32_USB_Device_Library/Core/Src/usbd_ctlreq.c ****         if (cfgidx)
 653:Middlewares/ST/STM32_USB_Device_Library/Core/Src/usbd_ctlreq.c ****         {
 654:Middlewares/ST/STM32_USB_Device_Library/Core/Src/usbd_ctlreq.c ****           pdev->dev_config = cfgidx;
 655:Middlewares/ST/STM32_USB_Device_Library/Core/Src/usbd_ctlreq.c ****           pdev->dev_state = USBD_STATE_CONFIGURED;
 656:Middlewares/ST/STM32_USB_Device_Library/Core/Src/usbd_ctlreq.c ****           if (USBD_SetClassConfig(pdev, cfgidx) == USBD_FAIL)
 657:Middlewares/ST/STM32_USB_Device_Library/Core/Src/usbd_ctlreq.c ****           {
 658:Middlewares/ST/STM32_USB_Device_Library/Core/Src/usbd_ctlreq.c ****             USBD_CtlError(pdev, req);
 659:Middlewares/ST/STM32_USB_Device_Library/Core/Src/usbd_ctlreq.c ****             return;
ARM GAS  /tmp/ccp4GKZ9.s 			page 13


 660:Middlewares/ST/STM32_USB_Device_Library/Core/Src/usbd_ctlreq.c ****           }
 661:Middlewares/ST/STM32_USB_Device_Library/Core/Src/usbd_ctlreq.c ****           USBD_CtlSendStatus(pdev);
 662:Middlewares/ST/STM32_USB_Device_Library/Core/Src/usbd_ctlreq.c ****         }
 663:Middlewares/ST/STM32_USB_Device_Library/Core/Src/usbd_ctlreq.c ****         else
 664:Middlewares/ST/STM32_USB_Device_Library/Core/Src/usbd_ctlreq.c ****         {
 665:Middlewares/ST/STM32_USB_Device_Library/Core/Src/usbd_ctlreq.c ****           USBD_CtlSendStatus(pdev);
 666:Middlewares/ST/STM32_USB_Device_Library/Core/Src/usbd_ctlreq.c ****         }
 667:Middlewares/ST/STM32_USB_Device_Library/Core/Src/usbd_ctlreq.c ****         break;
 668:Middlewares/ST/STM32_USB_Device_Library/Core/Src/usbd_ctlreq.c **** 
 669:Middlewares/ST/STM32_USB_Device_Library/Core/Src/usbd_ctlreq.c ****       case USBD_STATE_CONFIGURED:
 670:Middlewares/ST/STM32_USB_Device_Library/Core/Src/usbd_ctlreq.c ****         if (cfgidx == 0U)
 671:Middlewares/ST/STM32_USB_Device_Library/Core/Src/usbd_ctlreq.c ****         {
 672:Middlewares/ST/STM32_USB_Device_Library/Core/Src/usbd_ctlreq.c ****           pdev->dev_state = USBD_STATE_ADDRESSED;
 673:Middlewares/ST/STM32_USB_Device_Library/Core/Src/usbd_ctlreq.c ****           pdev->dev_config = cfgidx;
 674:Middlewares/ST/STM32_USB_Device_Library/Core/Src/usbd_ctlreq.c ****           USBD_ClrClassConfig(pdev, cfgidx);
 675:Middlewares/ST/STM32_USB_Device_Library/Core/Src/usbd_ctlreq.c ****           USBD_CtlSendStatus(pdev);
 676:Middlewares/ST/STM32_USB_Device_Library/Core/Src/usbd_ctlreq.c ****         }
 677:Middlewares/ST/STM32_USB_Device_Library/Core/Src/usbd_ctlreq.c ****         else if (cfgidx != pdev->dev_config)
 678:Middlewares/ST/STM32_USB_Device_Library/Core/Src/usbd_ctlreq.c ****         {
 679:Middlewares/ST/STM32_USB_Device_Library/Core/Src/usbd_ctlreq.c ****           /* Clear old configuration */
 680:Middlewares/ST/STM32_USB_Device_Library/Core/Src/usbd_ctlreq.c ****           USBD_ClrClassConfig(pdev, (uint8_t)pdev->dev_config);
 681:Middlewares/ST/STM32_USB_Device_Library/Core/Src/usbd_ctlreq.c **** 
 682:Middlewares/ST/STM32_USB_Device_Library/Core/Src/usbd_ctlreq.c ****           /* set new configuration */
 683:Middlewares/ST/STM32_USB_Device_Library/Core/Src/usbd_ctlreq.c ****           pdev->dev_config = cfgidx;
 684:Middlewares/ST/STM32_USB_Device_Library/Core/Src/usbd_ctlreq.c ****           if (USBD_SetClassConfig(pdev, cfgidx) == USBD_FAIL)
 685:Middlewares/ST/STM32_USB_Device_Library/Core/Src/usbd_ctlreq.c ****           {
 686:Middlewares/ST/STM32_USB_Device_Library/Core/Src/usbd_ctlreq.c ****             USBD_CtlError(pdev, req);
 687:Middlewares/ST/STM32_USB_Device_Library/Core/Src/usbd_ctlreq.c ****             return;
 688:Middlewares/ST/STM32_USB_Device_Library/Core/Src/usbd_ctlreq.c ****           }
 689:Middlewares/ST/STM32_USB_Device_Library/Core/Src/usbd_ctlreq.c ****           USBD_CtlSendStatus(pdev);
 690:Middlewares/ST/STM32_USB_Device_Library/Core/Src/usbd_ctlreq.c ****         }
 691:Middlewares/ST/STM32_USB_Device_Library/Core/Src/usbd_ctlreq.c ****         else
 692:Middlewares/ST/STM32_USB_Device_Library/Core/Src/usbd_ctlreq.c ****         {
 693:Middlewares/ST/STM32_USB_Device_Library/Core/Src/usbd_ctlreq.c ****           USBD_CtlSendStatus(pdev);
 694:Middlewares/ST/STM32_USB_Device_Library/Core/Src/usbd_ctlreq.c ****         }
 695:Middlewares/ST/STM32_USB_Device_Library/Core/Src/usbd_ctlreq.c ****         break;
 696:Middlewares/ST/STM32_USB_Device_Library/Core/Src/usbd_ctlreq.c **** 
 697:Middlewares/ST/STM32_USB_Device_Library/Core/Src/usbd_ctlreq.c ****       default:
 698:Middlewares/ST/STM32_USB_Device_Library/Core/Src/usbd_ctlreq.c ****         USBD_CtlError(pdev, req);
 699:Middlewares/ST/STM32_USB_Device_Library/Core/Src/usbd_ctlreq.c ****         USBD_ClrClassConfig(pdev, cfgidx);
 700:Middlewares/ST/STM32_USB_Device_Library/Core/Src/usbd_ctlreq.c ****         break;
 701:Middlewares/ST/STM32_USB_Device_Library/Core/Src/usbd_ctlreq.c ****     }
 702:Middlewares/ST/STM32_USB_Device_Library/Core/Src/usbd_ctlreq.c ****   }
 703:Middlewares/ST/STM32_USB_Device_Library/Core/Src/usbd_ctlreq.c **** }
 704:Middlewares/ST/STM32_USB_Device_Library/Core/Src/usbd_ctlreq.c **** 
 705:Middlewares/ST/STM32_USB_Device_Library/Core/Src/usbd_ctlreq.c **** /**
 706:Middlewares/ST/STM32_USB_Device_Library/Core/Src/usbd_ctlreq.c **** * @brief  USBD_GetConfig
 707:Middlewares/ST/STM32_USB_Device_Library/Core/Src/usbd_ctlreq.c **** *         Handle Get device configuration request
 708:Middlewares/ST/STM32_USB_Device_Library/Core/Src/usbd_ctlreq.c **** * @param  pdev: device instance
 709:Middlewares/ST/STM32_USB_Device_Library/Core/Src/usbd_ctlreq.c **** * @param  req: usb request
 710:Middlewares/ST/STM32_USB_Device_Library/Core/Src/usbd_ctlreq.c **** * @retval status
 711:Middlewares/ST/STM32_USB_Device_Library/Core/Src/usbd_ctlreq.c **** */
 712:Middlewares/ST/STM32_USB_Device_Library/Core/Src/usbd_ctlreq.c **** static void USBD_GetConfig(USBD_HandleTypeDef *pdev, USBD_SetupReqTypedef *req)
 713:Middlewares/ST/STM32_USB_Device_Library/Core/Src/usbd_ctlreq.c **** {
 714:Middlewares/ST/STM32_USB_Device_Library/Core/Src/usbd_ctlreq.c ****   if (req->wLength != 1U)
 715:Middlewares/ST/STM32_USB_Device_Library/Core/Src/usbd_ctlreq.c ****   {
 716:Middlewares/ST/STM32_USB_Device_Library/Core/Src/usbd_ctlreq.c ****     USBD_CtlError(pdev, req);
ARM GAS  /tmp/ccp4GKZ9.s 			page 14


 717:Middlewares/ST/STM32_USB_Device_Library/Core/Src/usbd_ctlreq.c ****   }
 718:Middlewares/ST/STM32_USB_Device_Library/Core/Src/usbd_ctlreq.c ****   else
 719:Middlewares/ST/STM32_USB_Device_Library/Core/Src/usbd_ctlreq.c ****   {
 720:Middlewares/ST/STM32_USB_Device_Library/Core/Src/usbd_ctlreq.c ****     switch (pdev->dev_state)
 721:Middlewares/ST/STM32_USB_Device_Library/Core/Src/usbd_ctlreq.c ****     {
 722:Middlewares/ST/STM32_USB_Device_Library/Core/Src/usbd_ctlreq.c ****       case USBD_STATE_DEFAULT:
 723:Middlewares/ST/STM32_USB_Device_Library/Core/Src/usbd_ctlreq.c ****       case USBD_STATE_ADDRESSED:
 724:Middlewares/ST/STM32_USB_Device_Library/Core/Src/usbd_ctlreq.c ****         pdev->dev_default_config = 0U;
 725:Middlewares/ST/STM32_USB_Device_Library/Core/Src/usbd_ctlreq.c ****         USBD_CtlSendData(pdev, (uint8_t *)(void *)&pdev->dev_default_config, 1U);
 726:Middlewares/ST/STM32_USB_Device_Library/Core/Src/usbd_ctlreq.c ****         break;
 727:Middlewares/ST/STM32_USB_Device_Library/Core/Src/usbd_ctlreq.c **** 
 728:Middlewares/ST/STM32_USB_Device_Library/Core/Src/usbd_ctlreq.c ****       case USBD_STATE_CONFIGURED:
 729:Middlewares/ST/STM32_USB_Device_Library/Core/Src/usbd_ctlreq.c ****         USBD_CtlSendData(pdev, (uint8_t *)(void *)&pdev->dev_config, 1U);
 730:Middlewares/ST/STM32_USB_Device_Library/Core/Src/usbd_ctlreq.c ****         break;
 731:Middlewares/ST/STM32_USB_Device_Library/Core/Src/usbd_ctlreq.c **** 
 732:Middlewares/ST/STM32_USB_Device_Library/Core/Src/usbd_ctlreq.c ****       default:
 733:Middlewares/ST/STM32_USB_Device_Library/Core/Src/usbd_ctlreq.c ****         USBD_CtlError(pdev, req);
 734:Middlewares/ST/STM32_USB_Device_Library/Core/Src/usbd_ctlreq.c ****         break;
 735:Middlewares/ST/STM32_USB_Device_Library/Core/Src/usbd_ctlreq.c ****     }
 736:Middlewares/ST/STM32_USB_Device_Library/Core/Src/usbd_ctlreq.c ****   }
 737:Middlewares/ST/STM32_USB_Device_Library/Core/Src/usbd_ctlreq.c **** }
 738:Middlewares/ST/STM32_USB_Device_Library/Core/Src/usbd_ctlreq.c **** 
 739:Middlewares/ST/STM32_USB_Device_Library/Core/Src/usbd_ctlreq.c **** /**
 740:Middlewares/ST/STM32_USB_Device_Library/Core/Src/usbd_ctlreq.c **** * @brief  USBD_GetStatus
 741:Middlewares/ST/STM32_USB_Device_Library/Core/Src/usbd_ctlreq.c **** *         Handle Get Status request
 742:Middlewares/ST/STM32_USB_Device_Library/Core/Src/usbd_ctlreq.c **** * @param  pdev: device instance
 743:Middlewares/ST/STM32_USB_Device_Library/Core/Src/usbd_ctlreq.c **** * @param  req: usb request
 744:Middlewares/ST/STM32_USB_Device_Library/Core/Src/usbd_ctlreq.c **** * @retval status
 745:Middlewares/ST/STM32_USB_Device_Library/Core/Src/usbd_ctlreq.c **** */
 746:Middlewares/ST/STM32_USB_Device_Library/Core/Src/usbd_ctlreq.c **** static void USBD_GetStatus(USBD_HandleTypeDef *pdev, USBD_SetupReqTypedef *req)
 747:Middlewares/ST/STM32_USB_Device_Library/Core/Src/usbd_ctlreq.c **** {
 748:Middlewares/ST/STM32_USB_Device_Library/Core/Src/usbd_ctlreq.c ****   switch (pdev->dev_state)
 749:Middlewares/ST/STM32_USB_Device_Library/Core/Src/usbd_ctlreq.c ****   {
 750:Middlewares/ST/STM32_USB_Device_Library/Core/Src/usbd_ctlreq.c ****     case USBD_STATE_DEFAULT:
 751:Middlewares/ST/STM32_USB_Device_Library/Core/Src/usbd_ctlreq.c ****     case USBD_STATE_ADDRESSED:
 752:Middlewares/ST/STM32_USB_Device_Library/Core/Src/usbd_ctlreq.c ****     case USBD_STATE_CONFIGURED:
 753:Middlewares/ST/STM32_USB_Device_Library/Core/Src/usbd_ctlreq.c ****       if (req->wLength != 0x2U)
 754:Middlewares/ST/STM32_USB_Device_Library/Core/Src/usbd_ctlreq.c ****       {
 755:Middlewares/ST/STM32_USB_Device_Library/Core/Src/usbd_ctlreq.c ****         USBD_CtlError(pdev, req);
 756:Middlewares/ST/STM32_USB_Device_Library/Core/Src/usbd_ctlreq.c ****         break;
 757:Middlewares/ST/STM32_USB_Device_Library/Core/Src/usbd_ctlreq.c ****       }
 758:Middlewares/ST/STM32_USB_Device_Library/Core/Src/usbd_ctlreq.c **** 
 759:Middlewares/ST/STM32_USB_Device_Library/Core/Src/usbd_ctlreq.c **** #if (USBD_SELF_POWERED == 1U)
 760:Middlewares/ST/STM32_USB_Device_Library/Core/Src/usbd_ctlreq.c ****       pdev->dev_config_status = USB_CONFIG_SELF_POWERED;
 761:Middlewares/ST/STM32_USB_Device_Library/Core/Src/usbd_ctlreq.c **** #else
 762:Middlewares/ST/STM32_USB_Device_Library/Core/Src/usbd_ctlreq.c ****       pdev->dev_config_status = 0U;
 763:Middlewares/ST/STM32_USB_Device_Library/Core/Src/usbd_ctlreq.c **** #endif
 764:Middlewares/ST/STM32_USB_Device_Library/Core/Src/usbd_ctlreq.c **** 
 765:Middlewares/ST/STM32_USB_Device_Library/Core/Src/usbd_ctlreq.c ****       if (pdev->dev_remote_wakeup)
 766:Middlewares/ST/STM32_USB_Device_Library/Core/Src/usbd_ctlreq.c ****       {
 767:Middlewares/ST/STM32_USB_Device_Library/Core/Src/usbd_ctlreq.c ****         pdev->dev_config_status |= USB_CONFIG_REMOTE_WAKEUP;
 768:Middlewares/ST/STM32_USB_Device_Library/Core/Src/usbd_ctlreq.c ****       }
 769:Middlewares/ST/STM32_USB_Device_Library/Core/Src/usbd_ctlreq.c **** 
 770:Middlewares/ST/STM32_USB_Device_Library/Core/Src/usbd_ctlreq.c ****       USBD_CtlSendData(pdev, (uint8_t *)(void *)&pdev->dev_config_status, 2U);
 771:Middlewares/ST/STM32_USB_Device_Library/Core/Src/usbd_ctlreq.c ****       break;
 772:Middlewares/ST/STM32_USB_Device_Library/Core/Src/usbd_ctlreq.c **** 
 773:Middlewares/ST/STM32_USB_Device_Library/Core/Src/usbd_ctlreq.c ****     default:
ARM GAS  /tmp/ccp4GKZ9.s 			page 15


 774:Middlewares/ST/STM32_USB_Device_Library/Core/Src/usbd_ctlreq.c ****       USBD_CtlError(pdev, req);
 775:Middlewares/ST/STM32_USB_Device_Library/Core/Src/usbd_ctlreq.c ****       break;
 776:Middlewares/ST/STM32_USB_Device_Library/Core/Src/usbd_ctlreq.c ****   }
 777:Middlewares/ST/STM32_USB_Device_Library/Core/Src/usbd_ctlreq.c **** }
 778:Middlewares/ST/STM32_USB_Device_Library/Core/Src/usbd_ctlreq.c **** 
 779:Middlewares/ST/STM32_USB_Device_Library/Core/Src/usbd_ctlreq.c **** 
 780:Middlewares/ST/STM32_USB_Device_Library/Core/Src/usbd_ctlreq.c **** /**
 781:Middlewares/ST/STM32_USB_Device_Library/Core/Src/usbd_ctlreq.c **** * @brief  USBD_SetFeature
 782:Middlewares/ST/STM32_USB_Device_Library/Core/Src/usbd_ctlreq.c **** *         Handle Set device feature request
 783:Middlewares/ST/STM32_USB_Device_Library/Core/Src/usbd_ctlreq.c **** * @param  pdev: device instance
 784:Middlewares/ST/STM32_USB_Device_Library/Core/Src/usbd_ctlreq.c **** * @param  req: usb request
 785:Middlewares/ST/STM32_USB_Device_Library/Core/Src/usbd_ctlreq.c **** * @retval status
 786:Middlewares/ST/STM32_USB_Device_Library/Core/Src/usbd_ctlreq.c **** */
 787:Middlewares/ST/STM32_USB_Device_Library/Core/Src/usbd_ctlreq.c **** static void USBD_SetFeature(USBD_HandleTypeDef *pdev,
 788:Middlewares/ST/STM32_USB_Device_Library/Core/Src/usbd_ctlreq.c ****                             USBD_SetupReqTypedef *req)
 789:Middlewares/ST/STM32_USB_Device_Library/Core/Src/usbd_ctlreq.c **** {
 790:Middlewares/ST/STM32_USB_Device_Library/Core/Src/usbd_ctlreq.c ****   if (req->wValue == USB_FEATURE_REMOTE_WAKEUP)
 791:Middlewares/ST/STM32_USB_Device_Library/Core/Src/usbd_ctlreq.c ****   {
 792:Middlewares/ST/STM32_USB_Device_Library/Core/Src/usbd_ctlreq.c ****     pdev->dev_remote_wakeup = 1U;
 793:Middlewares/ST/STM32_USB_Device_Library/Core/Src/usbd_ctlreq.c ****     USBD_CtlSendStatus(pdev);
 794:Middlewares/ST/STM32_USB_Device_Library/Core/Src/usbd_ctlreq.c ****   }
 795:Middlewares/ST/STM32_USB_Device_Library/Core/Src/usbd_ctlreq.c **** }
 796:Middlewares/ST/STM32_USB_Device_Library/Core/Src/usbd_ctlreq.c **** 
 797:Middlewares/ST/STM32_USB_Device_Library/Core/Src/usbd_ctlreq.c **** 
 798:Middlewares/ST/STM32_USB_Device_Library/Core/Src/usbd_ctlreq.c **** /**
 799:Middlewares/ST/STM32_USB_Device_Library/Core/Src/usbd_ctlreq.c **** * @brief  USBD_ClrFeature
 800:Middlewares/ST/STM32_USB_Device_Library/Core/Src/usbd_ctlreq.c **** *         Handle clear device feature request
 801:Middlewares/ST/STM32_USB_Device_Library/Core/Src/usbd_ctlreq.c **** * @param  pdev: device instance
 802:Middlewares/ST/STM32_USB_Device_Library/Core/Src/usbd_ctlreq.c **** * @param  req: usb request
 803:Middlewares/ST/STM32_USB_Device_Library/Core/Src/usbd_ctlreq.c **** * @retval status
 804:Middlewares/ST/STM32_USB_Device_Library/Core/Src/usbd_ctlreq.c **** */
 805:Middlewares/ST/STM32_USB_Device_Library/Core/Src/usbd_ctlreq.c **** static void USBD_ClrFeature(USBD_HandleTypeDef *pdev,
 806:Middlewares/ST/STM32_USB_Device_Library/Core/Src/usbd_ctlreq.c ****                             USBD_SetupReqTypedef *req)
 807:Middlewares/ST/STM32_USB_Device_Library/Core/Src/usbd_ctlreq.c **** {
 808:Middlewares/ST/STM32_USB_Device_Library/Core/Src/usbd_ctlreq.c ****   switch (pdev->dev_state)
 809:Middlewares/ST/STM32_USB_Device_Library/Core/Src/usbd_ctlreq.c ****   {
 810:Middlewares/ST/STM32_USB_Device_Library/Core/Src/usbd_ctlreq.c ****     case USBD_STATE_DEFAULT:
 811:Middlewares/ST/STM32_USB_Device_Library/Core/Src/usbd_ctlreq.c ****     case USBD_STATE_ADDRESSED:
 812:Middlewares/ST/STM32_USB_Device_Library/Core/Src/usbd_ctlreq.c ****     case USBD_STATE_CONFIGURED:
 813:Middlewares/ST/STM32_USB_Device_Library/Core/Src/usbd_ctlreq.c ****       if (req->wValue == USB_FEATURE_REMOTE_WAKEUP)
 814:Middlewares/ST/STM32_USB_Device_Library/Core/Src/usbd_ctlreq.c ****       {
 815:Middlewares/ST/STM32_USB_Device_Library/Core/Src/usbd_ctlreq.c ****         pdev->dev_remote_wakeup = 0U;
 816:Middlewares/ST/STM32_USB_Device_Library/Core/Src/usbd_ctlreq.c ****         USBD_CtlSendStatus(pdev);
 817:Middlewares/ST/STM32_USB_Device_Library/Core/Src/usbd_ctlreq.c ****       }
 818:Middlewares/ST/STM32_USB_Device_Library/Core/Src/usbd_ctlreq.c ****       break;
 819:Middlewares/ST/STM32_USB_Device_Library/Core/Src/usbd_ctlreq.c **** 
 820:Middlewares/ST/STM32_USB_Device_Library/Core/Src/usbd_ctlreq.c ****     default:
 821:Middlewares/ST/STM32_USB_Device_Library/Core/Src/usbd_ctlreq.c ****       USBD_CtlError(pdev, req);
 822:Middlewares/ST/STM32_USB_Device_Library/Core/Src/usbd_ctlreq.c ****       break;
 823:Middlewares/ST/STM32_USB_Device_Library/Core/Src/usbd_ctlreq.c ****   }
 824:Middlewares/ST/STM32_USB_Device_Library/Core/Src/usbd_ctlreq.c **** }
 825:Middlewares/ST/STM32_USB_Device_Library/Core/Src/usbd_ctlreq.c **** 
 826:Middlewares/ST/STM32_USB_Device_Library/Core/Src/usbd_ctlreq.c **** /**
 827:Middlewares/ST/STM32_USB_Device_Library/Core/Src/usbd_ctlreq.c **** * @brief  USBD_ParseSetupRequest
 828:Middlewares/ST/STM32_USB_Device_Library/Core/Src/usbd_ctlreq.c **** *         Copy buffer into setup structure
 829:Middlewares/ST/STM32_USB_Device_Library/Core/Src/usbd_ctlreq.c **** * @param  pdev: device instance
 830:Middlewares/ST/STM32_USB_Device_Library/Core/Src/usbd_ctlreq.c **** * @param  req: usb request
ARM GAS  /tmp/ccp4GKZ9.s 			page 16


 831:Middlewares/ST/STM32_USB_Device_Library/Core/Src/usbd_ctlreq.c **** * @retval None
 832:Middlewares/ST/STM32_USB_Device_Library/Core/Src/usbd_ctlreq.c **** */
 833:Middlewares/ST/STM32_USB_Device_Library/Core/Src/usbd_ctlreq.c **** 
 834:Middlewares/ST/STM32_USB_Device_Library/Core/Src/usbd_ctlreq.c **** void USBD_ParseSetupRequest(USBD_SetupReqTypedef *req, uint8_t *pdata)
 835:Middlewares/ST/STM32_USB_Device_Library/Core/Src/usbd_ctlreq.c **** {
 836:Middlewares/ST/STM32_USB_Device_Library/Core/Src/usbd_ctlreq.c ****   req->bmRequest = *(uint8_t *)(pdata);
 837:Middlewares/ST/STM32_USB_Device_Library/Core/Src/usbd_ctlreq.c ****   req->bRequest = *(uint8_t *)(pdata + 1U);
 838:Middlewares/ST/STM32_USB_Device_Library/Core/Src/usbd_ctlreq.c ****   req->wValue = SWAPBYTE(pdata + 2U);
 839:Middlewares/ST/STM32_USB_Device_Library/Core/Src/usbd_ctlreq.c ****   req->wIndex = SWAPBYTE(pdata + 4U);
 840:Middlewares/ST/STM32_USB_Device_Library/Core/Src/usbd_ctlreq.c ****   req->wLength = SWAPBYTE(pdata + 6U);
 841:Middlewares/ST/STM32_USB_Device_Library/Core/Src/usbd_ctlreq.c **** 
 842:Middlewares/ST/STM32_USB_Device_Library/Core/Src/usbd_ctlreq.c **** }
 843:Middlewares/ST/STM32_USB_Device_Library/Core/Src/usbd_ctlreq.c **** 
 844:Middlewares/ST/STM32_USB_Device_Library/Core/Src/usbd_ctlreq.c **** /**
 845:Middlewares/ST/STM32_USB_Device_Library/Core/Src/usbd_ctlreq.c **** * @brief  USBD_CtlError
 846:Middlewares/ST/STM32_USB_Device_Library/Core/Src/usbd_ctlreq.c **** *         Handle USB low level Error
 847:Middlewares/ST/STM32_USB_Device_Library/Core/Src/usbd_ctlreq.c **** * @param  pdev: device instance
 848:Middlewares/ST/STM32_USB_Device_Library/Core/Src/usbd_ctlreq.c **** * @param  req: usb request
 849:Middlewares/ST/STM32_USB_Device_Library/Core/Src/usbd_ctlreq.c **** * @retval None
 850:Middlewares/ST/STM32_USB_Device_Library/Core/Src/usbd_ctlreq.c **** */
 851:Middlewares/ST/STM32_USB_Device_Library/Core/Src/usbd_ctlreq.c **** 
 852:Middlewares/ST/STM32_USB_Device_Library/Core/Src/usbd_ctlreq.c **** void USBD_CtlError(USBD_HandleTypeDef *pdev,
 853:Middlewares/ST/STM32_USB_Device_Library/Core/Src/usbd_ctlreq.c ****                    USBD_SetupReqTypedef *req)
 854:Middlewares/ST/STM32_USB_Device_Library/Core/Src/usbd_ctlreq.c **** {
 855:Middlewares/ST/STM32_USB_Device_Library/Core/Src/usbd_ctlreq.c ****   USBD_LL_StallEP(pdev, 0x80U);
 856:Middlewares/ST/STM32_USB_Device_Library/Core/Src/usbd_ctlreq.c ****   USBD_LL_StallEP(pdev, 0U);
 857:Middlewares/ST/STM32_USB_Device_Library/Core/Src/usbd_ctlreq.c **** }
 858:Middlewares/ST/STM32_USB_Device_Library/Core/Src/usbd_ctlreq.c **** 
 859:Middlewares/ST/STM32_USB_Device_Library/Core/Src/usbd_ctlreq.c **** 
 860:Middlewares/ST/STM32_USB_Device_Library/Core/Src/usbd_ctlreq.c **** /**
 861:Middlewares/ST/STM32_USB_Device_Library/Core/Src/usbd_ctlreq.c ****   * @brief  USBD_GetString
 862:Middlewares/ST/STM32_USB_Device_Library/Core/Src/usbd_ctlreq.c ****   *         Convert Ascii string into unicode one
 863:Middlewares/ST/STM32_USB_Device_Library/Core/Src/usbd_ctlreq.c ****   * @param  desc : descriptor buffer
 864:Middlewares/ST/STM32_USB_Device_Library/Core/Src/usbd_ctlreq.c ****   * @param  unicode : Formatted string buffer (unicode)
 865:Middlewares/ST/STM32_USB_Device_Library/Core/Src/usbd_ctlreq.c ****   * @param  len : descriptor length
 866:Middlewares/ST/STM32_USB_Device_Library/Core/Src/usbd_ctlreq.c ****   * @retval None
 867:Middlewares/ST/STM32_USB_Device_Library/Core/Src/usbd_ctlreq.c ****   */
 868:Middlewares/ST/STM32_USB_Device_Library/Core/Src/usbd_ctlreq.c **** void USBD_GetString(uint8_t *desc, uint8_t *unicode, uint16_t *len)
 869:Middlewares/ST/STM32_USB_Device_Library/Core/Src/usbd_ctlreq.c **** {
 870:Middlewares/ST/STM32_USB_Device_Library/Core/Src/usbd_ctlreq.c ****   uint8_t idx = 0U;
 871:Middlewares/ST/STM32_USB_Device_Library/Core/Src/usbd_ctlreq.c **** 
 872:Middlewares/ST/STM32_USB_Device_Library/Core/Src/usbd_ctlreq.c ****   if (desc != NULL)
 873:Middlewares/ST/STM32_USB_Device_Library/Core/Src/usbd_ctlreq.c ****   {
 874:Middlewares/ST/STM32_USB_Device_Library/Core/Src/usbd_ctlreq.c ****     *len = (uint16_t)USBD_GetLen(desc) * 2U + 2U;
 875:Middlewares/ST/STM32_USB_Device_Library/Core/Src/usbd_ctlreq.c ****     unicode[idx++] = *(uint8_t *)(void *)len;
 876:Middlewares/ST/STM32_USB_Device_Library/Core/Src/usbd_ctlreq.c ****     unicode[idx++] = USB_DESC_TYPE_STRING;
 877:Middlewares/ST/STM32_USB_Device_Library/Core/Src/usbd_ctlreq.c **** 
 878:Middlewares/ST/STM32_USB_Device_Library/Core/Src/usbd_ctlreq.c ****     while (*desc != '\0')
 879:Middlewares/ST/STM32_USB_Device_Library/Core/Src/usbd_ctlreq.c ****     {
 880:Middlewares/ST/STM32_USB_Device_Library/Core/Src/usbd_ctlreq.c ****       unicode[idx++] = *desc++;
 881:Middlewares/ST/STM32_USB_Device_Library/Core/Src/usbd_ctlreq.c ****       unicode[idx++] =  0U;
 882:Middlewares/ST/STM32_USB_Device_Library/Core/Src/usbd_ctlreq.c ****     }
 883:Middlewares/ST/STM32_USB_Device_Library/Core/Src/usbd_ctlreq.c ****   }
 884:Middlewares/ST/STM32_USB_Device_Library/Core/Src/usbd_ctlreq.c **** }
 885:Middlewares/ST/STM32_USB_Device_Library/Core/Src/usbd_ctlreq.c **** 
 886:Middlewares/ST/STM32_USB_Device_Library/Core/Src/usbd_ctlreq.c **** /**
 887:Middlewares/ST/STM32_USB_Device_Library/Core/Src/usbd_ctlreq.c ****   * @brief  USBD_GetLen
ARM GAS  /tmp/ccp4GKZ9.s 			page 17


 888:Middlewares/ST/STM32_USB_Device_Library/Core/Src/usbd_ctlreq.c ****   *         return the string length
 889:Middlewares/ST/STM32_USB_Device_Library/Core/Src/usbd_ctlreq.c ****    * @param  buf : pointer to the ascii string buffer
 890:Middlewares/ST/STM32_USB_Device_Library/Core/Src/usbd_ctlreq.c ****   * @retval string length
 891:Middlewares/ST/STM32_USB_Device_Library/Core/Src/usbd_ctlreq.c ****   */
 892:Middlewares/ST/STM32_USB_Device_Library/Core/Src/usbd_ctlreq.c **** static uint8_t USBD_GetLen(uint8_t *buf)
 893:Middlewares/ST/STM32_USB_Device_Library/Core/Src/usbd_ctlreq.c **** {
  27              		.loc 1 893 1 view -0
  28              		.cfi_startproc
  29              		@ args = 0, pretend = 0, frame = 0
  30              		@ frame_needed = 0, uses_anonymous_args = 0
  31              		@ link register save eliminated.
  32              		.loc 1 893 1 is_stmt 0 view .LVU1
  33 0000 0300     		movs	r3, r0
 894:Middlewares/ST/STM32_USB_Device_Library/Core/Src/usbd_ctlreq.c ****   uint8_t  len = 0U;
  34              		.loc 1 894 3 is_stmt 1 view .LVU2
  35              	.LVL1:
 895:Middlewares/ST/STM32_USB_Device_Library/Core/Src/usbd_ctlreq.c **** 
 896:Middlewares/ST/STM32_USB_Device_Library/Core/Src/usbd_ctlreq.c ****   while (*buf != '\0')
  36              		.loc 1 896 3 view .LVU3
 894:Middlewares/ST/STM32_USB_Device_Library/Core/Src/usbd_ctlreq.c ****   uint8_t  len = 0U;
  37              		.loc 1 894 12 is_stmt 0 view .LVU4
  38 0002 0020     		movs	r0, #0
  39              	.LVL2:
  40              		.loc 1 896 9 view .LVU5
  41 0004 02E0     		b	.L2
  42              	.LVL3:
  43              	.L3:
 897:Middlewares/ST/STM32_USB_Device_Library/Core/Src/usbd_ctlreq.c ****   {
 898:Middlewares/ST/STM32_USB_Device_Library/Core/Src/usbd_ctlreq.c ****     len++;
  44              		.loc 1 898 5 is_stmt 1 view .LVU6
  45              		.loc 1 898 8 is_stmt 0 view .LVU7
  46 0006 0130     		adds	r0, r0, #1
  47              	.LVL4:
  48              		.loc 1 898 8 view .LVU8
  49 0008 C0B2     		uxtb	r0, r0
  50              	.LVL5:
 899:Middlewares/ST/STM32_USB_Device_Library/Core/Src/usbd_ctlreq.c ****     buf++;
  51              		.loc 1 899 5 is_stmt 1 view .LVU9
  52              		.loc 1 899 8 is_stmt 0 view .LVU10
  53 000a 0133     		adds	r3, r3, #1
  54              	.LVL6:
  55              	.L2:
 896:Middlewares/ST/STM32_USB_Device_Library/Core/Src/usbd_ctlreq.c ****   {
  56              		.loc 1 896 15 is_stmt 1 view .LVU11
 896:Middlewares/ST/STM32_USB_Device_Library/Core/Src/usbd_ctlreq.c ****   {
  57              		.loc 1 896 10 is_stmt 0 view .LVU12
  58 000c 1A78     		ldrb	r2, [r3]
 896:Middlewares/ST/STM32_USB_Device_Library/Core/Src/usbd_ctlreq.c ****   {
  59              		.loc 1 896 15 view .LVU13
  60 000e 002A     		cmp	r2, #0
  61 0010 F9D1     		bne	.L3
 900:Middlewares/ST/STM32_USB_Device_Library/Core/Src/usbd_ctlreq.c ****   }
 901:Middlewares/ST/STM32_USB_Device_Library/Core/Src/usbd_ctlreq.c **** 
 902:Middlewares/ST/STM32_USB_Device_Library/Core/Src/usbd_ctlreq.c ****   return len;
  62              		.loc 1 902 3 is_stmt 1 view .LVU14
 903:Middlewares/ST/STM32_USB_Device_Library/Core/Src/usbd_ctlreq.c **** }
  63              		.loc 1 903 1 is_stmt 0 view .LVU15
ARM GAS  /tmp/ccp4GKZ9.s 			page 18


  64              		@ sp needed
  65 0012 7047     		bx	lr
  66              		.cfi_endproc
  67              	.LFE56:
  69              		.section	.text.USBD_SetFeature,"ax",%progbits
  70              		.align	1
  71              		.syntax unified
  72              		.code	16
  73              		.thumb_func
  75              	USBD_SetFeature:
  76              	.LVL7:
  77              	.LFB51:
 789:Middlewares/ST/STM32_USB_Device_Library/Core/Src/usbd_ctlreq.c ****   if (req->wValue == USB_FEATURE_REMOTE_WAKEUP)
  78              		.loc 1 789 1 is_stmt 1 view -0
  79              		.cfi_startproc
  80              		@ args = 0, pretend = 0, frame = 0
  81              		@ frame_needed = 0, uses_anonymous_args = 0
 789:Middlewares/ST/STM32_USB_Device_Library/Core/Src/usbd_ctlreq.c ****   if (req->wValue == USB_FEATURE_REMOTE_WAKEUP)
  82              		.loc 1 789 1 is_stmt 0 view .LVU17
  83 0000 10B5     		push	{r4, lr}
  84              	.LCFI0:
  85              		.cfi_def_cfa_offset 8
  86              		.cfi_offset 4, -8
  87              		.cfi_offset 14, -4
 790:Middlewares/ST/STM32_USB_Device_Library/Core/Src/usbd_ctlreq.c ****   {
  88              		.loc 1 790 3 is_stmt 1 view .LVU18
 790:Middlewares/ST/STM32_USB_Device_Library/Core/Src/usbd_ctlreq.c ****   {
  89              		.loc 1 790 10 is_stmt 0 view .LVU19
  90 0002 4B88     		ldrh	r3, [r1, #2]
 790:Middlewares/ST/STM32_USB_Device_Library/Core/Src/usbd_ctlreq.c ****   {
  91              		.loc 1 790 6 view .LVU20
  92 0004 012B     		cmp	r3, #1
  93 0006 00D0     		beq	.L6
  94              	.LVL8:
  95              	.L4:
 795:Middlewares/ST/STM32_USB_Device_Library/Core/Src/usbd_ctlreq.c **** 
  96              		.loc 1 795 1 view .LVU21
  97              		@ sp needed
  98 0008 10BD     		pop	{r4, pc}
  99              	.LVL9:
 100              	.L6:
 792:Middlewares/ST/STM32_USB_Device_Library/Core/Src/usbd_ctlreq.c ****     USBD_CtlSendStatus(pdev);
 101              		.loc 1 792 5 is_stmt 1 view .LVU22
 792:Middlewares/ST/STM32_USB_Device_Library/Core/Src/usbd_ctlreq.c ****     USBD_CtlSendStatus(pdev);
 102              		.loc 1 792 29 is_stmt 0 view .LVU23
 103 000a A923     		movs	r3, #169
 104 000c 9B00     		lsls	r3, r3, #2
 105 000e 0122     		movs	r2, #1
 106 0010 C250     		str	r2, [r0, r3]
 793:Middlewares/ST/STM32_USB_Device_Library/Core/Src/usbd_ctlreq.c ****   }
 107              		.loc 1 793 5 is_stmt 1 view .LVU24
 108 0012 FFF7FEFF 		bl	USBD_CtlSendStatus
 109              	.LVL10:
 795:Middlewares/ST/STM32_USB_Device_Library/Core/Src/usbd_ctlreq.c **** 
 110              		.loc 1 795 1 is_stmt 0 view .LVU25
 111 0016 F7E7     		b	.L4
 112              		.cfi_endproc
ARM GAS  /tmp/ccp4GKZ9.s 			page 19


 113              	.LFE51:
 115              		.section	.text.USBD_ParseSetupRequest,"ax",%progbits
 116              		.align	1
 117              		.global	USBD_ParseSetupRequest
 118              		.syntax unified
 119              		.code	16
 120              		.thumb_func
 122              	USBD_ParseSetupRequest:
 123              	.LVL11:
 124              	.LFB53:
 835:Middlewares/ST/STM32_USB_Device_Library/Core/Src/usbd_ctlreq.c ****   req->bmRequest = *(uint8_t *)(pdata);
 125              		.loc 1 835 1 is_stmt 1 view -0
 126              		.cfi_startproc
 127              		@ args = 0, pretend = 0, frame = 0
 128              		@ frame_needed = 0, uses_anonymous_args = 0
 129              		@ link register save eliminated.
 836:Middlewares/ST/STM32_USB_Device_Library/Core/Src/usbd_ctlreq.c ****   req->bRequest = *(uint8_t *)(pdata + 1U);
 130              		.loc 1 836 3 view .LVU27
 836:Middlewares/ST/STM32_USB_Device_Library/Core/Src/usbd_ctlreq.c ****   req->bRequest = *(uint8_t *)(pdata + 1U);
 131              		.loc 1 836 20 is_stmt 0 view .LVU28
 132 0000 0B78     		ldrb	r3, [r1]
 836:Middlewares/ST/STM32_USB_Device_Library/Core/Src/usbd_ctlreq.c ****   req->bRequest = *(uint8_t *)(pdata + 1U);
 133              		.loc 1 836 18 view .LVU29
 134 0002 0370     		strb	r3, [r0]
 837:Middlewares/ST/STM32_USB_Device_Library/Core/Src/usbd_ctlreq.c ****   req->wValue = SWAPBYTE(pdata + 2U);
 135              		.loc 1 837 3 is_stmt 1 view .LVU30
 837:Middlewares/ST/STM32_USB_Device_Library/Core/Src/usbd_ctlreq.c ****   req->wValue = SWAPBYTE(pdata + 2U);
 136              		.loc 1 837 17 is_stmt 0 view .LVU31
 137 0004 4B78     		ldrb	r3, [r1, #1]
 138 0006 4370     		strb	r3, [r0, #1]
 838:Middlewares/ST/STM32_USB_Device_Library/Core/Src/usbd_ctlreq.c ****   req->wIndex = SWAPBYTE(pdata + 4U);
 139              		.loc 1 838 3 is_stmt 1 view .LVU32
 838:Middlewares/ST/STM32_USB_Device_Library/Core/Src/usbd_ctlreq.c ****   req->wIndex = SWAPBYTE(pdata + 4U);
 140              		.loc 1 838 17 is_stmt 0 view .LVU33
 141 0008 8B78     		ldrb	r3, [r1, #2]
 142 000a CA78     		ldrb	r2, [r1, #3]
 143 000c 1202     		lsls	r2, r2, #8
 144 000e 9B18     		adds	r3, r3, r2
 838:Middlewares/ST/STM32_USB_Device_Library/Core/Src/usbd_ctlreq.c ****   req->wIndex = SWAPBYTE(pdata + 4U);
 145              		.loc 1 838 15 view .LVU34
 146 0010 4380     		strh	r3, [r0, #2]
 839:Middlewares/ST/STM32_USB_Device_Library/Core/Src/usbd_ctlreq.c ****   req->wLength = SWAPBYTE(pdata + 6U);
 147              		.loc 1 839 3 is_stmt 1 view .LVU35
 839:Middlewares/ST/STM32_USB_Device_Library/Core/Src/usbd_ctlreq.c ****   req->wLength = SWAPBYTE(pdata + 6U);
 148              		.loc 1 839 17 is_stmt 0 view .LVU36
 149 0012 0B79     		ldrb	r3, [r1, #4]
 150 0014 4A79     		ldrb	r2, [r1, #5]
 151 0016 1202     		lsls	r2, r2, #8
 152 0018 9B18     		adds	r3, r3, r2
 839:Middlewares/ST/STM32_USB_Device_Library/Core/Src/usbd_ctlreq.c ****   req->wLength = SWAPBYTE(pdata + 6U);
 153              		.loc 1 839 15 view .LVU37
 154 001a 8380     		strh	r3, [r0, #4]
 840:Middlewares/ST/STM32_USB_Device_Library/Core/Src/usbd_ctlreq.c **** 
 155              		.loc 1 840 3 is_stmt 1 view .LVU38
 840:Middlewares/ST/STM32_USB_Device_Library/Core/Src/usbd_ctlreq.c **** 
 156              		.loc 1 840 18 is_stmt 0 view .LVU39
 157 001c 8B79     		ldrb	r3, [r1, #6]
ARM GAS  /tmp/ccp4GKZ9.s 			page 20


 158 001e CA79     		ldrb	r2, [r1, #7]
 159 0020 1202     		lsls	r2, r2, #8
 160 0022 9B18     		adds	r3, r3, r2
 840:Middlewares/ST/STM32_USB_Device_Library/Core/Src/usbd_ctlreq.c **** 
 161              		.loc 1 840 16 view .LVU40
 162 0024 C380     		strh	r3, [r0, #6]
 842:Middlewares/ST/STM32_USB_Device_Library/Core/Src/usbd_ctlreq.c **** 
 163              		.loc 1 842 1 view .LVU41
 164              		@ sp needed
 165 0026 7047     		bx	lr
 166              		.cfi_endproc
 167              	.LFE53:
 169              		.section	.text.USBD_CtlError,"ax",%progbits
 170              		.align	1
 171              		.global	USBD_CtlError
 172              		.syntax unified
 173              		.code	16
 174              		.thumb_func
 176              	USBD_CtlError:
 177              	.LVL12:
 178              	.LFB54:
 854:Middlewares/ST/STM32_USB_Device_Library/Core/Src/usbd_ctlreq.c ****   USBD_LL_StallEP(pdev, 0x80U);
 179              		.loc 1 854 1 is_stmt 1 view -0
 180              		.cfi_startproc
 181              		@ args = 0, pretend = 0, frame = 0
 182              		@ frame_needed = 0, uses_anonymous_args = 0
 854:Middlewares/ST/STM32_USB_Device_Library/Core/Src/usbd_ctlreq.c ****   USBD_LL_StallEP(pdev, 0x80U);
 183              		.loc 1 854 1 is_stmt 0 view .LVU43
 184 0000 10B5     		push	{r4, lr}
 185              	.LCFI1:
 186              		.cfi_def_cfa_offset 8
 187              		.cfi_offset 4, -8
 188              		.cfi_offset 14, -4
 189 0002 0400     		movs	r4, r0
 855:Middlewares/ST/STM32_USB_Device_Library/Core/Src/usbd_ctlreq.c ****   USBD_LL_StallEP(pdev, 0U);
 190              		.loc 1 855 3 is_stmt 1 view .LVU44
 191 0004 8021     		movs	r1, #128
 192              	.LVL13:
 855:Middlewares/ST/STM32_USB_Device_Library/Core/Src/usbd_ctlreq.c ****   USBD_LL_StallEP(pdev, 0U);
 193              		.loc 1 855 3 is_stmt 0 view .LVU45
 194 0006 FFF7FEFF 		bl	USBD_LL_StallEP
 195              	.LVL14:
 856:Middlewares/ST/STM32_USB_Device_Library/Core/Src/usbd_ctlreq.c **** }
 196              		.loc 1 856 3 is_stmt 1 view .LVU46
 197 000a 0021     		movs	r1, #0
 198 000c 2000     		movs	r0, r4
 199 000e FFF7FEFF 		bl	USBD_LL_StallEP
 200              	.LVL15:
 857:Middlewares/ST/STM32_USB_Device_Library/Core/Src/usbd_ctlreq.c **** 
 201              		.loc 1 857 1 is_stmt 0 view .LVU47
 202              		@ sp needed
 203              	.LVL16:
 857:Middlewares/ST/STM32_USB_Device_Library/Core/Src/usbd_ctlreq.c **** 
 204              		.loc 1 857 1 view .LVU48
 205 0012 10BD     		pop	{r4, pc}
 206              		.cfi_endproc
 207              	.LFE54:
ARM GAS  /tmp/ccp4GKZ9.s 			page 21


 209              		.section	.text.USBD_GetDescriptor,"ax",%progbits
 210              		.align	1
 211              		.syntax unified
 212              		.code	16
 213              		.thumb_func
 215              	USBD_GetDescriptor:
 216              	.LVL17:
 217              	.LFB46:
 407:Middlewares/ST/STM32_USB_Device_Library/Core/Src/usbd_ctlreq.c ****   uint16_t len = 0U;
 218              		.loc 1 407 1 is_stmt 1 view -0
 219              		.cfi_startproc
 220              		@ args = 0, pretend = 0, frame = 8
 221              		@ frame_needed = 0, uses_anonymous_args = 0
 407:Middlewares/ST/STM32_USB_Device_Library/Core/Src/usbd_ctlreq.c ****   uint16_t len = 0U;
 222              		.loc 1 407 1 is_stmt 0 view .LVU50
 223 0000 30B5     		push	{r4, r5, lr}
 224              	.LCFI2:
 225              		.cfi_def_cfa_offset 12
 226              		.cfi_offset 4, -12
 227              		.cfi_offset 5, -8
 228              		.cfi_offset 14, -4
 229 0002 83B0     		sub	sp, sp, #12
 230              	.LCFI3:
 231              		.cfi_def_cfa_offset 24
 232 0004 0500     		movs	r5, r0
 233 0006 0C00     		movs	r4, r1
 408:Middlewares/ST/STM32_USB_Device_Library/Core/Src/usbd_ctlreq.c ****   uint8_t *pbuf = NULL;
 234              		.loc 1 408 3 is_stmt 1 view .LVU51
 408:Middlewares/ST/STM32_USB_Device_Library/Core/Src/usbd_ctlreq.c ****   uint8_t *pbuf = NULL;
 235              		.loc 1 408 12 is_stmt 0 view .LVU52
 236 0008 6B46     		mov	r3, sp
 237 000a 0022     		movs	r2, #0
 238 000c DA80     		strh	r2, [r3, #6]
 409:Middlewares/ST/STM32_USB_Device_Library/Core/Src/usbd_ctlreq.c ****   uint8_t err = 0U;
 239              		.loc 1 409 3 is_stmt 1 view .LVU53
 240              	.LVL18:
 410:Middlewares/ST/STM32_USB_Device_Library/Core/Src/usbd_ctlreq.c **** 
 241              		.loc 1 410 3 view .LVU54
 412:Middlewares/ST/STM32_USB_Device_Library/Core/Src/usbd_ctlreq.c ****   {
 242              		.loc 1 412 3 view .LVU55
 412:Middlewares/ST/STM32_USB_Device_Library/Core/Src/usbd_ctlreq.c ****   {
 243              		.loc 1 412 14 is_stmt 0 view .LVU56
 244 000e 4A88     		ldrh	r2, [r1, #2]
 412:Middlewares/ST/STM32_USB_Device_Library/Core/Src/usbd_ctlreq.c ****   {
 245              		.loc 1 412 23 view .LVU57
 246 0010 130A     		lsrs	r3, r2, #8
 412:Middlewares/ST/STM32_USB_Device_Library/Core/Src/usbd_ctlreq.c ****   {
 247              		.loc 1 412 3 view .LVU58
 248 0012 072B     		cmp	r3, #7
 249 0014 00D9     		bls	.LCB188
 250 0016 B6E0     		b	.L10	@long jump
 251              	.LCB188:
 252 0018 9B00     		lsls	r3, r3, #2
 253 001a 6549     		ldr	r1, .L42
 254              	.LVL19:
 412:Middlewares/ST/STM32_USB_Device_Library/Core/Src/usbd_ctlreq.c ****   {
 255              		.loc 1 412 3 view .LVU59
ARM GAS  /tmp/ccp4GKZ9.s 			page 22


 256 001c CB58     		ldr	r3, [r1, r3]
 257 001e 9F46     		mov	pc, r3
 258              		.section	.rodata.USBD_GetDescriptor,"a",%progbits
 259              		.align	2
 260              	.L12:
 261 0000 86010000 		.word	.L10
 262 0004 20000000 		.word	.L16
 263 0008 4E000000 		.word	.L15
 264 000c 7C000000 		.word	.L14
 265 0010 86010000 		.word	.L10
 266 0014 86010000 		.word	.L10
 267 0018 46010000 		.word	.L13
 268 001c 64010000 		.word	.L11
 269              		.section	.text.USBD_GetDescriptor
 270              	.L16:
 428:Middlewares/ST/STM32_USB_Device_Library/Core/Src/usbd_ctlreq.c ****       break;
 271              		.loc 1 428 7 is_stmt 1 view .LVU60
 428:Middlewares/ST/STM32_USB_Device_Library/Core/Src/usbd_ctlreq.c ****       break;
 272              		.loc 1 428 18 is_stmt 0 view .LVU61
 273 0020 AC23     		movs	r3, #172
 274 0022 9B00     		lsls	r3, r3, #2
 275 0024 C358     		ldr	r3, [r0, r3]
 428:Middlewares/ST/STM32_USB_Device_Library/Core/Src/usbd_ctlreq.c ****       break;
 276              		.loc 1 428 25 view .LVU62
 277 0026 1B68     		ldr	r3, [r3]
 428:Middlewares/ST/STM32_USB_Device_Library/Core/Src/usbd_ctlreq.c ****       break;
 278              		.loc 1 428 14 view .LVU63
 279 0028 007C     		ldrb	r0, [r0, #16]
 280              	.LVL20:
 428:Middlewares/ST/STM32_USB_Device_Library/Core/Src/usbd_ctlreq.c ****       break;
 281              		.loc 1 428 14 view .LVU64
 282 002a 6A46     		mov	r2, sp
 283 002c 911D     		adds	r1, r2, #6
 284 002e 9847     		blx	r3
 285              	.LVL21:
 429:Middlewares/ST/STM32_USB_Device_Library/Core/Src/usbd_ctlreq.c **** 
 286              		.loc 1 429 7 is_stmt 1 view .LVU65
 569:Middlewares/ST/STM32_USB_Device_Library/Core/Src/usbd_ctlreq.c ****   {
 287              		.loc 1 569 3 view .LVU66
 288              	.L17:
 575:Middlewares/ST/STM32_USB_Device_Library/Core/Src/usbd_ctlreq.c ****     {
 289              		.loc 1 575 5 view .LVU67
 575:Middlewares/ST/STM32_USB_Device_Library/Core/Src/usbd_ctlreq.c ****     {
 290              		.loc 1 575 14 is_stmt 0 view .LVU68
 291 0030 6B46     		mov	r3, sp
 292 0032 0633     		adds	r3, r3, #6
 293 0034 1B88     		ldrh	r3, [r3]
 575:Middlewares/ST/STM32_USB_Device_Library/Core/Src/usbd_ctlreq.c ****     {
 294              		.loc 1 575 8 view .LVU69
 295 0036 002B     		cmp	r3, #0
 296 0038 03D0     		beq	.L37
 575:Middlewares/ST/STM32_USB_Device_Library/Core/Src/usbd_ctlreq.c ****     {
 297              		.loc 1 575 28 discriminator 1 view .LVU70
 298 003a E288     		ldrh	r2, [r4, #6]
 575:Middlewares/ST/STM32_USB_Device_Library/Core/Src/usbd_ctlreq.c ****     {
 299              		.loc 1 575 21 discriminator 1 view .LVU71
 300 003c 002A     		cmp	r2, #0
ARM GAS  /tmp/ccp4GKZ9.s 			page 23


 301 003e 00D0     		beq	.LCB228
 302 0040 A6E0     		b	.L40	@long jump
 303              	.LCB228:
 304              	.LVL22:
 305              	.L37:
 581:Middlewares/ST/STM32_USB_Device_Library/Core/Src/usbd_ctlreq.c ****     {
 306              		.loc 1 581 5 is_stmt 1 view .LVU72
 581:Middlewares/ST/STM32_USB_Device_Library/Core/Src/usbd_ctlreq.c ****     {
 307              		.loc 1 581 12 is_stmt 0 view .LVU73
 308 0042 E388     		ldrh	r3, [r4, #6]
 581:Middlewares/ST/STM32_USB_Device_Library/Core/Src/usbd_ctlreq.c ****     {
 309              		.loc 1 581 8 view .LVU74
 310 0044 002B     		cmp	r3, #0
 311 0046 00D1     		bne	.LCB235
 312 0048 AEE0     		b	.L41	@long jump
 313              	.LCB235:
 314              	.LVL23:
 315              	.L9:
 586:Middlewares/ST/STM32_USB_Device_Library/Core/Src/usbd_ctlreq.c **** 
 316              		.loc 1 586 1 view .LVU75
 317 004a 03B0     		add	sp, sp, #12
 318              		@ sp needed
 319              	.LVL24:
 320              	.LVL25:
 586:Middlewares/ST/STM32_USB_Device_Library/Core/Src/usbd_ctlreq.c **** 
 321              		.loc 1 586 1 view .LVU76
 322 004c 30BD     		pop	{r4, r5, pc}
 323              	.LVL26:
 324              	.L15:
 432:Middlewares/ST/STM32_USB_Device_Library/Core/Src/usbd_ctlreq.c ****       {
 325              		.loc 1 432 7 is_stmt 1 view .LVU77
 432:Middlewares/ST/STM32_USB_Device_Library/Core/Src/usbd_ctlreq.c ****       {
 326              		.loc 1 432 15 is_stmt 0 view .LVU78
 327 004e 037C     		ldrb	r3, [r0, #16]
 432:Middlewares/ST/STM32_USB_Device_Library/Core/Src/usbd_ctlreq.c ****       {
 328              		.loc 1 432 10 view .LVU79
 329 0050 002B     		cmp	r3, #0
 330 0052 09D1     		bne	.L18
 434:Middlewares/ST/STM32_USB_Device_Library/Core/Src/usbd_ctlreq.c ****         pbuf[1] = USB_DESC_TYPE_CONFIGURATION;
 331              		.loc 1 434 9 is_stmt 1 view .LVU80
 434:Middlewares/ST/STM32_USB_Device_Library/Core/Src/usbd_ctlreq.c ****         pbuf[1] = USB_DESC_TYPE_CONFIGURATION;
 332              		.loc 1 434 20 is_stmt 0 view .LVU81
 333 0054 AD23     		movs	r3, #173
 334 0056 9B00     		lsls	r3, r3, #2
 335 0058 C358     		ldr	r3, [r0, r3]
 434:Middlewares/ST/STM32_USB_Device_Library/Core/Src/usbd_ctlreq.c ****         pbuf[1] = USB_DESC_TYPE_CONFIGURATION;
 336              		.loc 1 434 28 view .LVU82
 337 005a 9B6A     		ldr	r3, [r3, #40]
 434:Middlewares/ST/STM32_USB_Device_Library/Core/Src/usbd_ctlreq.c ****         pbuf[1] = USB_DESC_TYPE_CONFIGURATION;
 338              		.loc 1 434 16 view .LVU83
 339 005c 6A46     		mov	r2, sp
 340 005e 901D     		adds	r0, r2, #6
 341              	.LVL27:
 434:Middlewares/ST/STM32_USB_Device_Library/Core/Src/usbd_ctlreq.c ****         pbuf[1] = USB_DESC_TYPE_CONFIGURATION;
 342              		.loc 1 434 16 view .LVU84
 343 0060 9847     		blx	r3
 344              	.LVL28:
ARM GAS  /tmp/ccp4GKZ9.s 			page 24


 435:Middlewares/ST/STM32_USB_Device_Library/Core/Src/usbd_ctlreq.c ****       }
 345              		.loc 1 435 9 is_stmt 1 view .LVU85
 435:Middlewares/ST/STM32_USB_Device_Library/Core/Src/usbd_ctlreq.c ****       }
 346              		.loc 1 435 17 is_stmt 0 view .LVU86
 347 0062 0223     		movs	r3, #2
 348 0064 4370     		strb	r3, [r0, #1]
 569:Middlewares/ST/STM32_USB_Device_Library/Core/Src/usbd_ctlreq.c ****   {
 349              		.loc 1 569 3 is_stmt 1 view .LVU87
 350 0066 E3E7     		b	.L17
 351              	.LVL29:
 352              	.L18:
 439:Middlewares/ST/STM32_USB_Device_Library/Core/Src/usbd_ctlreq.c ****         pbuf[1] = USB_DESC_TYPE_CONFIGURATION;
 353              		.loc 1 439 9 view .LVU88
 439:Middlewares/ST/STM32_USB_Device_Library/Core/Src/usbd_ctlreq.c ****         pbuf[1] = USB_DESC_TYPE_CONFIGURATION;
 354              		.loc 1 439 20 is_stmt 0 view .LVU89
 355 0068 AD23     		movs	r3, #173
 356 006a 9B00     		lsls	r3, r3, #2
 357 006c C358     		ldr	r3, [r0, r3]
 439:Middlewares/ST/STM32_USB_Device_Library/Core/Src/usbd_ctlreq.c ****         pbuf[1] = USB_DESC_TYPE_CONFIGURATION;
 358              		.loc 1 439 28 view .LVU90
 359 006e DB6A     		ldr	r3, [r3, #44]
 439:Middlewares/ST/STM32_USB_Device_Library/Core/Src/usbd_ctlreq.c ****         pbuf[1] = USB_DESC_TYPE_CONFIGURATION;
 360              		.loc 1 439 16 view .LVU91
 361 0070 6A46     		mov	r2, sp
 362 0072 901D     		adds	r0, r2, #6
 363              	.LVL30:
 439:Middlewares/ST/STM32_USB_Device_Library/Core/Src/usbd_ctlreq.c ****         pbuf[1] = USB_DESC_TYPE_CONFIGURATION;
 364              		.loc 1 439 16 view .LVU92
 365 0074 9847     		blx	r3
 366              	.LVL31:
 440:Middlewares/ST/STM32_USB_Device_Library/Core/Src/usbd_ctlreq.c ****       }
 367              		.loc 1 440 9 is_stmt 1 view .LVU93
 440:Middlewares/ST/STM32_USB_Device_Library/Core/Src/usbd_ctlreq.c ****       }
 368              		.loc 1 440 17 is_stmt 0 view .LVU94
 369 0076 0223     		movs	r3, #2
 370 0078 4370     		strb	r3, [r0, #1]
 569:Middlewares/ST/STM32_USB_Device_Library/Core/Src/usbd_ctlreq.c ****   {
 371              		.loc 1 569 3 is_stmt 1 view .LVU95
 372 007a D9E7     		b	.L17
 373              	.LVL32:
 374              	.L14:
 445:Middlewares/ST/STM32_USB_Device_Library/Core/Src/usbd_ctlreq.c ****       {
 375              		.loc 1 445 7 view .LVU96
 445:Middlewares/ST/STM32_USB_Device_Library/Core/Src/usbd_ctlreq.c ****       {
 376              		.loc 1 445 15 is_stmt 0 view .LVU97
 377 007c D2B2     		uxtb	r2, r2
 445:Middlewares/ST/STM32_USB_Device_Library/Core/Src/usbd_ctlreq.c ****       {
 378              		.loc 1 445 7 view .LVU98
 379 007e 052A     		cmp	r2, #5
 380 0080 5DD8     		bhi	.L19
 381 0082 9200     		lsls	r2, r2, #2
 382 0084 4B4B     		ldr	r3, .L42+4
 383 0086 9B58     		ldr	r3, [r3, r2]
 384 0088 9F46     		mov	pc, r3
 385              		.section	.rodata.USBD_GetDescriptor
 386              		.align	2
 387              	.L21:
ARM GAS  /tmp/ccp4GKZ9.s 			page 25


 388 0020 8A000000 		.word	.L26
 389 0024 A8000000 		.word	.L25
 390 0028 C6000000 		.word	.L24
 391 002c E4000000 		.word	.L23
 392 0030 02010000 		.word	.L22
 393 0034 20010000 		.word	.L20
 394              		.section	.text.USBD_GetDescriptor
 395              	.L26:
 448:Middlewares/ST/STM32_USB_Device_Library/Core/Src/usbd_ctlreq.c ****           {
 396              		.loc 1 448 11 is_stmt 1 view .LVU99
 448:Middlewares/ST/STM32_USB_Device_Library/Core/Src/usbd_ctlreq.c ****           {
 397              		.loc 1 448 19 is_stmt 0 view .LVU100
 398 008a AC23     		movs	r3, #172
 399 008c 9B00     		lsls	r3, r3, #2
 400 008e C358     		ldr	r3, [r0, r3]
 448:Middlewares/ST/STM32_USB_Device_Library/Core/Src/usbd_ctlreq.c ****           {
 401              		.loc 1 448 26 view .LVU101
 402 0090 5B68     		ldr	r3, [r3, #4]
 448:Middlewares/ST/STM32_USB_Device_Library/Core/Src/usbd_ctlreq.c ****           {
 403              		.loc 1 448 14 view .LVU102
 404 0092 002B     		cmp	r3, #0
 405 0094 04D0     		beq	.L27
 450:Middlewares/ST/STM32_USB_Device_Library/Core/Src/usbd_ctlreq.c ****           }
 406              		.loc 1 450 13 is_stmt 1 view .LVU103
 450:Middlewares/ST/STM32_USB_Device_Library/Core/Src/usbd_ctlreq.c ****           }
 407              		.loc 1 450 20 is_stmt 0 view .LVU104
 408 0096 007C     		ldrb	r0, [r0, #16]
 409              	.LVL33:
 450:Middlewares/ST/STM32_USB_Device_Library/Core/Src/usbd_ctlreq.c ****           }
 410              		.loc 1 450 20 view .LVU105
 411 0098 6A46     		mov	r2, sp
 412 009a 911D     		adds	r1, r2, #6
 413 009c 9847     		blx	r3
 414              	.LVL34:
 569:Middlewares/ST/STM32_USB_Device_Library/Core/Src/usbd_ctlreq.c ****   {
 415              		.loc 1 569 3 is_stmt 1 view .LVU106
 416 009e C7E7     		b	.L17
 417              	.LVL35:
 418              	.L27:
 454:Middlewares/ST/STM32_USB_Device_Library/Core/Src/usbd_ctlreq.c ****             err++;
 419              		.loc 1 454 13 view .LVU107
 420 00a0 2100     		movs	r1, r4
 421 00a2 FFF7FEFF 		bl	USBD_CtlError
 422              	.LVL36:
 455:Middlewares/ST/STM32_USB_Device_Library/Core/Src/usbd_ctlreq.c ****           }
 423              		.loc 1 455 13 view .LVU108
 569:Middlewares/ST/STM32_USB_Device_Library/Core/Src/usbd_ctlreq.c ****   {
 424              		.loc 1 569 3 view .LVU109
 425 00a6 D0E7     		b	.L9
 426              	.LVL37:
 427              	.L25:
 460:Middlewares/ST/STM32_USB_Device_Library/Core/Src/usbd_ctlreq.c ****           {
 428              		.loc 1 460 11 view .LVU110
 460:Middlewares/ST/STM32_USB_Device_Library/Core/Src/usbd_ctlreq.c ****           {
 429              		.loc 1 460 19 is_stmt 0 view .LVU111
 430 00a8 AC23     		movs	r3, #172
 431 00aa 9B00     		lsls	r3, r3, #2
ARM GAS  /tmp/ccp4GKZ9.s 			page 26


 432 00ac C358     		ldr	r3, [r0, r3]
 460:Middlewares/ST/STM32_USB_Device_Library/Core/Src/usbd_ctlreq.c ****           {
 433              		.loc 1 460 26 view .LVU112
 434 00ae 9B68     		ldr	r3, [r3, #8]
 460:Middlewares/ST/STM32_USB_Device_Library/Core/Src/usbd_ctlreq.c ****           {
 435              		.loc 1 460 14 view .LVU113
 436 00b0 002B     		cmp	r3, #0
 437 00b2 04D0     		beq	.L29
 462:Middlewares/ST/STM32_USB_Device_Library/Core/Src/usbd_ctlreq.c ****           }
 438              		.loc 1 462 13 is_stmt 1 view .LVU114
 462:Middlewares/ST/STM32_USB_Device_Library/Core/Src/usbd_ctlreq.c ****           }
 439              		.loc 1 462 20 is_stmt 0 view .LVU115
 440 00b4 007C     		ldrb	r0, [r0, #16]
 441              	.LVL38:
 462:Middlewares/ST/STM32_USB_Device_Library/Core/Src/usbd_ctlreq.c ****           }
 442              		.loc 1 462 20 view .LVU116
 443 00b6 6A46     		mov	r2, sp
 444 00b8 911D     		adds	r1, r2, #6
 445 00ba 9847     		blx	r3
 446              	.LVL39:
 569:Middlewares/ST/STM32_USB_Device_Library/Core/Src/usbd_ctlreq.c ****   {
 447              		.loc 1 569 3 is_stmt 1 view .LVU117
 448 00bc B8E7     		b	.L17
 449              	.LVL40:
 450              	.L29:
 466:Middlewares/ST/STM32_USB_Device_Library/Core/Src/usbd_ctlreq.c ****             err++;
 451              		.loc 1 466 13 view .LVU118
 452 00be 2100     		movs	r1, r4
 453 00c0 FFF7FEFF 		bl	USBD_CtlError
 454              	.LVL41:
 467:Middlewares/ST/STM32_USB_Device_Library/Core/Src/usbd_ctlreq.c ****           }
 455              		.loc 1 467 13 view .LVU119
 569:Middlewares/ST/STM32_USB_Device_Library/Core/Src/usbd_ctlreq.c ****   {
 456              		.loc 1 569 3 view .LVU120
 457 00c4 C1E7     		b	.L9
 458              	.LVL42:
 459              	.L24:
 472:Middlewares/ST/STM32_USB_Device_Library/Core/Src/usbd_ctlreq.c ****           {
 460              		.loc 1 472 11 view .LVU121
 472:Middlewares/ST/STM32_USB_Device_Library/Core/Src/usbd_ctlreq.c ****           {
 461              		.loc 1 472 19 is_stmt 0 view .LVU122
 462 00c6 AC23     		movs	r3, #172
 463 00c8 9B00     		lsls	r3, r3, #2
 464 00ca C358     		ldr	r3, [r0, r3]
 472:Middlewares/ST/STM32_USB_Device_Library/Core/Src/usbd_ctlreq.c ****           {
 465              		.loc 1 472 26 view .LVU123
 466 00cc DB68     		ldr	r3, [r3, #12]
 472:Middlewares/ST/STM32_USB_Device_Library/Core/Src/usbd_ctlreq.c ****           {
 467              		.loc 1 472 14 view .LVU124
 468 00ce 002B     		cmp	r3, #0
 469 00d0 04D0     		beq	.L30
 474:Middlewares/ST/STM32_USB_Device_Library/Core/Src/usbd_ctlreq.c ****           }
 470              		.loc 1 474 13 is_stmt 1 view .LVU125
 474:Middlewares/ST/STM32_USB_Device_Library/Core/Src/usbd_ctlreq.c ****           }
 471              		.loc 1 474 20 is_stmt 0 view .LVU126
 472 00d2 007C     		ldrb	r0, [r0, #16]
 473              	.LVL43:
ARM GAS  /tmp/ccp4GKZ9.s 			page 27


 474:Middlewares/ST/STM32_USB_Device_Library/Core/Src/usbd_ctlreq.c ****           }
 474              		.loc 1 474 20 view .LVU127
 475 00d4 6A46     		mov	r2, sp
 476 00d6 911D     		adds	r1, r2, #6
 477 00d8 9847     		blx	r3
 478              	.LVL44:
 569:Middlewares/ST/STM32_USB_Device_Library/Core/Src/usbd_ctlreq.c ****   {
 479              		.loc 1 569 3 is_stmt 1 view .LVU128
 480 00da A9E7     		b	.L17
 481              	.LVL45:
 482              	.L30:
 478:Middlewares/ST/STM32_USB_Device_Library/Core/Src/usbd_ctlreq.c ****             err++;
 483              		.loc 1 478 13 view .LVU129
 484 00dc 2100     		movs	r1, r4
 485 00de FFF7FEFF 		bl	USBD_CtlError
 486              	.LVL46:
 479:Middlewares/ST/STM32_USB_Device_Library/Core/Src/usbd_ctlreq.c ****           }
 487              		.loc 1 479 13 view .LVU130
 569:Middlewares/ST/STM32_USB_Device_Library/Core/Src/usbd_ctlreq.c ****   {
 488              		.loc 1 569 3 view .LVU131
 489 00e2 B2E7     		b	.L9
 490              	.LVL47:
 491              	.L23:
 484:Middlewares/ST/STM32_USB_Device_Library/Core/Src/usbd_ctlreq.c ****           {
 492              		.loc 1 484 11 view .LVU132
 484:Middlewares/ST/STM32_USB_Device_Library/Core/Src/usbd_ctlreq.c ****           {
 493              		.loc 1 484 19 is_stmt 0 view .LVU133
 494 00e4 AC23     		movs	r3, #172
 495 00e6 9B00     		lsls	r3, r3, #2
 496 00e8 C358     		ldr	r3, [r0, r3]
 484:Middlewares/ST/STM32_USB_Device_Library/Core/Src/usbd_ctlreq.c ****           {
 497              		.loc 1 484 26 view .LVU134
 498 00ea 1B69     		ldr	r3, [r3, #16]
 484:Middlewares/ST/STM32_USB_Device_Library/Core/Src/usbd_ctlreq.c ****           {
 499              		.loc 1 484 14 view .LVU135
 500 00ec 002B     		cmp	r3, #0
 501 00ee 04D0     		beq	.L31
 486:Middlewares/ST/STM32_USB_Device_Library/Core/Src/usbd_ctlreq.c ****           }
 502              		.loc 1 486 13 is_stmt 1 view .LVU136
 486:Middlewares/ST/STM32_USB_Device_Library/Core/Src/usbd_ctlreq.c ****           }
 503              		.loc 1 486 20 is_stmt 0 view .LVU137
 504 00f0 007C     		ldrb	r0, [r0, #16]
 505              	.LVL48:
 486:Middlewares/ST/STM32_USB_Device_Library/Core/Src/usbd_ctlreq.c ****           }
 506              		.loc 1 486 20 view .LVU138
 507 00f2 6A46     		mov	r2, sp
 508 00f4 911D     		adds	r1, r2, #6
 509 00f6 9847     		blx	r3
 510              	.LVL49:
 569:Middlewares/ST/STM32_USB_Device_Library/Core/Src/usbd_ctlreq.c ****   {
 511              		.loc 1 569 3 is_stmt 1 view .LVU139
 512 00f8 9AE7     		b	.L17
 513              	.LVL50:
 514              	.L31:
 490:Middlewares/ST/STM32_USB_Device_Library/Core/Src/usbd_ctlreq.c ****             err++;
 515              		.loc 1 490 13 view .LVU140
 516 00fa 2100     		movs	r1, r4
ARM GAS  /tmp/ccp4GKZ9.s 			page 28


 517 00fc FFF7FEFF 		bl	USBD_CtlError
 518              	.LVL51:
 491:Middlewares/ST/STM32_USB_Device_Library/Core/Src/usbd_ctlreq.c ****           }
 519              		.loc 1 491 13 view .LVU141
 569:Middlewares/ST/STM32_USB_Device_Library/Core/Src/usbd_ctlreq.c ****   {
 520              		.loc 1 569 3 view .LVU142
 521 0100 A3E7     		b	.L9
 522              	.LVL52:
 523              	.L22:
 496:Middlewares/ST/STM32_USB_Device_Library/Core/Src/usbd_ctlreq.c ****           {
 524              		.loc 1 496 11 view .LVU143
 496:Middlewares/ST/STM32_USB_Device_Library/Core/Src/usbd_ctlreq.c ****           {
 525              		.loc 1 496 19 is_stmt 0 view .LVU144
 526 0102 AC23     		movs	r3, #172
 527 0104 9B00     		lsls	r3, r3, #2
 528 0106 C358     		ldr	r3, [r0, r3]
 496:Middlewares/ST/STM32_USB_Device_Library/Core/Src/usbd_ctlreq.c ****           {
 529              		.loc 1 496 26 view .LVU145
 530 0108 5B69     		ldr	r3, [r3, #20]
 496:Middlewares/ST/STM32_USB_Device_Library/Core/Src/usbd_ctlreq.c ****           {
 531              		.loc 1 496 14 view .LVU146
 532 010a 002B     		cmp	r3, #0
 533 010c 04D0     		beq	.L32
 498:Middlewares/ST/STM32_USB_Device_Library/Core/Src/usbd_ctlreq.c ****           }
 534              		.loc 1 498 13 is_stmt 1 view .LVU147
 498:Middlewares/ST/STM32_USB_Device_Library/Core/Src/usbd_ctlreq.c ****           }
 535              		.loc 1 498 20 is_stmt 0 view .LVU148
 536 010e 007C     		ldrb	r0, [r0, #16]
 537              	.LVL53:
 498:Middlewares/ST/STM32_USB_Device_Library/Core/Src/usbd_ctlreq.c ****           }
 538              		.loc 1 498 20 view .LVU149
 539 0110 6A46     		mov	r2, sp
 540 0112 911D     		adds	r1, r2, #6
 541 0114 9847     		blx	r3
 542              	.LVL54:
 569:Middlewares/ST/STM32_USB_Device_Library/Core/Src/usbd_ctlreq.c ****   {
 543              		.loc 1 569 3 is_stmt 1 view .LVU150
 544 0116 8BE7     		b	.L17
 545              	.LVL55:
 546              	.L32:
 502:Middlewares/ST/STM32_USB_Device_Library/Core/Src/usbd_ctlreq.c ****             err++;
 547              		.loc 1 502 13 view .LVU151
 548 0118 2100     		movs	r1, r4
 549 011a FFF7FEFF 		bl	USBD_CtlError
 550              	.LVL56:
 503:Middlewares/ST/STM32_USB_Device_Library/Core/Src/usbd_ctlreq.c ****           }
 551              		.loc 1 503 13 view .LVU152
 569:Middlewares/ST/STM32_USB_Device_Library/Core/Src/usbd_ctlreq.c ****   {
 552              		.loc 1 569 3 view .LVU153
 553 011e 94E7     		b	.L9
 554              	.LVL57:
 555              	.L20:
 508:Middlewares/ST/STM32_USB_Device_Library/Core/Src/usbd_ctlreq.c ****           {
 556              		.loc 1 508 11 view .LVU154
 508:Middlewares/ST/STM32_USB_Device_Library/Core/Src/usbd_ctlreq.c ****           {
 557              		.loc 1 508 19 is_stmt 0 view .LVU155
 558 0120 AC23     		movs	r3, #172
ARM GAS  /tmp/ccp4GKZ9.s 			page 29


 559 0122 9B00     		lsls	r3, r3, #2
 560 0124 C358     		ldr	r3, [r0, r3]
 508:Middlewares/ST/STM32_USB_Device_Library/Core/Src/usbd_ctlreq.c ****           {
 561              		.loc 1 508 26 view .LVU156
 562 0126 9B69     		ldr	r3, [r3, #24]
 508:Middlewares/ST/STM32_USB_Device_Library/Core/Src/usbd_ctlreq.c ****           {
 563              		.loc 1 508 14 view .LVU157
 564 0128 002B     		cmp	r3, #0
 565 012a 04D0     		beq	.L33
 510:Middlewares/ST/STM32_USB_Device_Library/Core/Src/usbd_ctlreq.c ****           }
 566              		.loc 1 510 13 is_stmt 1 view .LVU158
 510:Middlewares/ST/STM32_USB_Device_Library/Core/Src/usbd_ctlreq.c ****           }
 567              		.loc 1 510 20 is_stmt 0 view .LVU159
 568 012c 007C     		ldrb	r0, [r0, #16]
 569              	.LVL58:
 510:Middlewares/ST/STM32_USB_Device_Library/Core/Src/usbd_ctlreq.c ****           }
 570              		.loc 1 510 20 view .LVU160
 571 012e 6A46     		mov	r2, sp
 572 0130 911D     		adds	r1, r2, #6
 573 0132 9847     		blx	r3
 574              	.LVL59:
 569:Middlewares/ST/STM32_USB_Device_Library/Core/Src/usbd_ctlreq.c ****   {
 575              		.loc 1 569 3 is_stmt 1 view .LVU161
 576 0134 7CE7     		b	.L17
 577              	.LVL60:
 578              	.L33:
 514:Middlewares/ST/STM32_USB_Device_Library/Core/Src/usbd_ctlreq.c ****             err++;
 579              		.loc 1 514 13 view .LVU162
 580 0136 2100     		movs	r1, r4
 581 0138 FFF7FEFF 		bl	USBD_CtlError
 582              	.LVL61:
 515:Middlewares/ST/STM32_USB_Device_Library/Core/Src/usbd_ctlreq.c ****           }
 583              		.loc 1 515 13 view .LVU163
 569:Middlewares/ST/STM32_USB_Device_Library/Core/Src/usbd_ctlreq.c ****   {
 584              		.loc 1 569 3 view .LVU164
 585 013c 85E7     		b	.L9
 586              	.LVL62:
 587              	.L19:
 532:Middlewares/ST/STM32_USB_Device_Library/Core/Src/usbd_ctlreq.c ****           err++;
 588              		.loc 1 532 11 view .LVU165
 589 013e 2100     		movs	r1, r4
 590 0140 FFF7FEFF 		bl	USBD_CtlError
 591              	.LVL63:
 533:Middlewares/ST/STM32_USB_Device_Library/Core/Src/usbd_ctlreq.c **** #endif
 592              		.loc 1 533 11 view .LVU166
 569:Middlewares/ST/STM32_USB_Device_Library/Core/Src/usbd_ctlreq.c ****   {
 593              		.loc 1 569 3 view .LVU167
 594 0144 81E7     		b	.L9
 595              	.LVL64:
 596              	.L13:
 539:Middlewares/ST/STM32_USB_Device_Library/Core/Src/usbd_ctlreq.c ****       {
 597              		.loc 1 539 7 view .LVU168
 539:Middlewares/ST/STM32_USB_Device_Library/Core/Src/usbd_ctlreq.c ****       {
 598              		.loc 1 539 15 is_stmt 0 view .LVU169
 599 0146 037C     		ldrb	r3, [r0, #16]
 539:Middlewares/ST/STM32_USB_Device_Library/Core/Src/usbd_ctlreq.c ****       {
 600              		.loc 1 539 10 view .LVU170
ARM GAS  /tmp/ccp4GKZ9.s 			page 30


 601 0148 002B     		cmp	r3, #0
 602 014a 07D1     		bne	.L34
 541:Middlewares/ST/STM32_USB_Device_Library/Core/Src/usbd_ctlreq.c ****       }
 603              		.loc 1 541 9 is_stmt 1 view .LVU171
 541:Middlewares/ST/STM32_USB_Device_Library/Core/Src/usbd_ctlreq.c ****       }
 604              		.loc 1 541 20 is_stmt 0 view .LVU172
 605 014c AD23     		movs	r3, #173
 606 014e 9B00     		lsls	r3, r3, #2
 607 0150 C358     		ldr	r3, [r0, r3]
 541:Middlewares/ST/STM32_USB_Device_Library/Core/Src/usbd_ctlreq.c ****       }
 608              		.loc 1 541 28 view .LVU173
 609 0152 5B6B     		ldr	r3, [r3, #52]
 541:Middlewares/ST/STM32_USB_Device_Library/Core/Src/usbd_ctlreq.c ****       }
 610              		.loc 1 541 16 view .LVU174
 611 0154 6A46     		mov	r2, sp
 612 0156 901D     		adds	r0, r2, #6
 613              	.LVL65:
 541:Middlewares/ST/STM32_USB_Device_Library/Core/Src/usbd_ctlreq.c ****       }
 614              		.loc 1 541 16 view .LVU175
 615 0158 9847     		blx	r3
 616              	.LVL66:
 569:Middlewares/ST/STM32_USB_Device_Library/Core/Src/usbd_ctlreq.c ****   {
 617              		.loc 1 569 3 is_stmt 1 view .LVU176
 618 015a 69E7     		b	.L17
 619              	.LVL67:
 620              	.L34:
 545:Middlewares/ST/STM32_USB_Device_Library/Core/Src/usbd_ctlreq.c ****         err++;
 621              		.loc 1 545 9 view .LVU177
 622 015c 2100     		movs	r1, r4
 623 015e FFF7FEFF 		bl	USBD_CtlError
 624              	.LVL68:
 546:Middlewares/ST/STM32_USB_Device_Library/Core/Src/usbd_ctlreq.c ****       }
 625              		.loc 1 546 9 view .LVU178
 569:Middlewares/ST/STM32_USB_Device_Library/Core/Src/usbd_ctlreq.c ****   {
 626              		.loc 1 569 3 view .LVU179
 627 0162 72E7     		b	.L9
 628              	.LVL69:
 629              	.L11:
 551:Middlewares/ST/STM32_USB_Device_Library/Core/Src/usbd_ctlreq.c ****       {
 630              		.loc 1 551 7 view .LVU180
 551:Middlewares/ST/STM32_USB_Device_Library/Core/Src/usbd_ctlreq.c ****       {
 631              		.loc 1 551 15 is_stmt 0 view .LVU181
 632 0164 037C     		ldrb	r3, [r0, #16]
 551:Middlewares/ST/STM32_USB_Device_Library/Core/Src/usbd_ctlreq.c ****       {
 633              		.loc 1 551 10 view .LVU182
 634 0166 002B     		cmp	r3, #0
 635 0168 09D1     		bne	.L35
 553:Middlewares/ST/STM32_USB_Device_Library/Core/Src/usbd_ctlreq.c ****         pbuf[1] = USB_DESC_TYPE_OTHER_SPEED_CONFIGURATION;
 636              		.loc 1 553 9 is_stmt 1 view .LVU183
 553:Middlewares/ST/STM32_USB_Device_Library/Core/Src/usbd_ctlreq.c ****         pbuf[1] = USB_DESC_TYPE_OTHER_SPEED_CONFIGURATION;
 637              		.loc 1 553 20 is_stmt 0 view .LVU184
 638 016a AD23     		movs	r3, #173
 639 016c 9B00     		lsls	r3, r3, #2
 640 016e C358     		ldr	r3, [r0, r3]
 553:Middlewares/ST/STM32_USB_Device_Library/Core/Src/usbd_ctlreq.c ****         pbuf[1] = USB_DESC_TYPE_OTHER_SPEED_CONFIGURATION;
 641              		.loc 1 553 28 view .LVU185
 642 0170 1B6B     		ldr	r3, [r3, #48]
ARM GAS  /tmp/ccp4GKZ9.s 			page 31


 553:Middlewares/ST/STM32_USB_Device_Library/Core/Src/usbd_ctlreq.c ****         pbuf[1] = USB_DESC_TYPE_OTHER_SPEED_CONFIGURATION;
 643              		.loc 1 553 16 view .LVU186
 644 0172 6A46     		mov	r2, sp
 645 0174 901D     		adds	r0, r2, #6
 646              	.LVL70:
 553:Middlewares/ST/STM32_USB_Device_Library/Core/Src/usbd_ctlreq.c ****         pbuf[1] = USB_DESC_TYPE_OTHER_SPEED_CONFIGURATION;
 647              		.loc 1 553 16 view .LVU187
 648 0176 9847     		blx	r3
 649              	.LVL71:
 554:Middlewares/ST/STM32_USB_Device_Library/Core/Src/usbd_ctlreq.c ****       }
 650              		.loc 1 554 9 is_stmt 1 view .LVU188
 554:Middlewares/ST/STM32_USB_Device_Library/Core/Src/usbd_ctlreq.c ****       }
 651              		.loc 1 554 17 is_stmt 0 view .LVU189
 652 0178 0723     		movs	r3, #7
 653 017a 4370     		strb	r3, [r0, #1]
 569:Middlewares/ST/STM32_USB_Device_Library/Core/Src/usbd_ctlreq.c ****   {
 654              		.loc 1 569 3 is_stmt 1 view .LVU190
 655 017c 58E7     		b	.L17
 656              	.LVL72:
 657              	.L35:
 558:Middlewares/ST/STM32_USB_Device_Library/Core/Src/usbd_ctlreq.c ****         err++;
 658              		.loc 1 558 9 view .LVU191
 659 017e 2100     		movs	r1, r4
 660 0180 FFF7FEFF 		bl	USBD_CtlError
 661              	.LVL73:
 559:Middlewares/ST/STM32_USB_Device_Library/Core/Src/usbd_ctlreq.c ****       }
 662              		.loc 1 559 9 view .LVU192
 569:Middlewares/ST/STM32_USB_Device_Library/Core/Src/usbd_ctlreq.c ****   {
 663              		.loc 1 569 3 view .LVU193
 664 0184 61E7     		b	.L9
 665              	.LVL74:
 666              	.L10:
 564:Middlewares/ST/STM32_USB_Device_Library/Core/Src/usbd_ctlreq.c ****       err++;
 667              		.loc 1 564 7 view .LVU194
 668 0186 2100     		movs	r1, r4
 669 0188 2800     		movs	r0, r5
 670              	.LVL75:
 564:Middlewares/ST/STM32_USB_Device_Library/Core/Src/usbd_ctlreq.c ****       err++;
 671              		.loc 1 564 7 is_stmt 0 view .LVU195
 672 018a FFF7FEFF 		bl	USBD_CtlError
 673              	.LVL76:
 565:Middlewares/ST/STM32_USB_Device_Library/Core/Src/usbd_ctlreq.c ****       break;
 674              		.loc 1 565 7 is_stmt 1 view .LVU196
 566:Middlewares/ST/STM32_USB_Device_Library/Core/Src/usbd_ctlreq.c ****   }
 675              		.loc 1 566 7 view .LVU197
 569:Middlewares/ST/STM32_USB_Device_Library/Core/Src/usbd_ctlreq.c ****   {
 676              		.loc 1 569 3 view .LVU198
 571:Middlewares/ST/STM32_USB_Device_Library/Core/Src/usbd_ctlreq.c ****   }
 677              		.loc 1 571 5 view .LVU199
 678 018e 5CE7     		b	.L9
 679              	.LVL77:
 680              	.L40:
 577:Middlewares/ST/STM32_USB_Device_Library/Core/Src/usbd_ctlreq.c ****       (void)USBD_CtlSendData(pdev, pbuf, len);
 681              		.loc 1 577 7 view .LVU200
 577:Middlewares/ST/STM32_USB_Device_Library/Core/Src/usbd_ctlreq.c ****       (void)USBD_CtlSendData(pdev, pbuf, len);
 682              		.loc 1 577 13 is_stmt 0 view .LVU201
 683 0190 191C     		adds	r1, r3, #0
ARM GAS  /tmp/ccp4GKZ9.s 			page 32


 684 0192 9342     		cmp	r3, r2
 685 0194 00D9     		bls	.L38
 686 0196 111C     		adds	r1, r2, #0
 687              	.L38:
 688 0198 8AB2     		uxth	r2, r1
 577:Middlewares/ST/STM32_USB_Device_Library/Core/Src/usbd_ctlreq.c ****       (void)USBD_CtlSendData(pdev, pbuf, len);
 689              		.loc 1 577 11 view .LVU202
 690 019a 6B46     		mov	r3, sp
 691 019c D980     		strh	r1, [r3, #6]
 578:Middlewares/ST/STM32_USB_Device_Library/Core/Src/usbd_ctlreq.c ****     }
 692              		.loc 1 578 7 is_stmt 1 view .LVU203
 578:Middlewares/ST/STM32_USB_Device_Library/Core/Src/usbd_ctlreq.c ****     }
 693              		.loc 1 578 13 is_stmt 0 view .LVU204
 694 019e 0100     		movs	r1, r0
 695 01a0 2800     		movs	r0, r5
 696              	.LVL78:
 578:Middlewares/ST/STM32_USB_Device_Library/Core/Src/usbd_ctlreq.c ****     }
 697              		.loc 1 578 13 view .LVU205
 698 01a2 FFF7FEFF 		bl	USBD_CtlSendData
 699              	.LVL79:
 578:Middlewares/ST/STM32_USB_Device_Library/Core/Src/usbd_ctlreq.c ****     }
 700              		.loc 1 578 13 view .LVU206
 701 01a6 4CE7     		b	.L37
 702              	.L41:
 583:Middlewares/ST/STM32_USB_Device_Library/Core/Src/usbd_ctlreq.c ****     }
 703              		.loc 1 583 7 is_stmt 1 view .LVU207
 583:Middlewares/ST/STM32_USB_Device_Library/Core/Src/usbd_ctlreq.c ****     }
 704              		.loc 1 583 13 is_stmt 0 view .LVU208
 705 01a8 2800     		movs	r0, r5
 706 01aa FFF7FEFF 		bl	USBD_CtlSendStatus
 707              	.LVL80:
 708 01ae 4CE7     		b	.L9
 709              	.L43:
 710              		.align	2
 711              	.L42:
 712 01b0 00000000 		.word	.L12
 713 01b4 20000000 		.word	.L21
 714              		.cfi_endproc
 715              	.LFE46:
 717              		.section	.text.USBD_SetAddress,"ax",%progbits
 718              		.align	1
 719              		.syntax unified
 720              		.code	16
 721              		.thumb_func
 723              	USBD_SetAddress:
 724              	.LVL81:
 725              	.LFB47:
 597:Middlewares/ST/STM32_USB_Device_Library/Core/Src/usbd_ctlreq.c ****   uint8_t  dev_addr;
 726              		.loc 1 597 1 is_stmt 1 view -0
 727              		.cfi_startproc
 728              		@ args = 0, pretend = 0, frame = 0
 729              		@ frame_needed = 0, uses_anonymous_args = 0
 597:Middlewares/ST/STM32_USB_Device_Library/Core/Src/usbd_ctlreq.c ****   uint8_t  dev_addr;
 730              		.loc 1 597 1 is_stmt 0 view .LVU210
 731 0000 70B5     		push	{r4, r5, r6, lr}
 732              	.LCFI4:
 733              		.cfi_def_cfa_offset 16
ARM GAS  /tmp/ccp4GKZ9.s 			page 33


 734              		.cfi_offset 4, -16
 735              		.cfi_offset 5, -12
 736              		.cfi_offset 6, -8
 737              		.cfi_offset 14, -4
 738 0002 0400     		movs	r4, r0
 598:Middlewares/ST/STM32_USB_Device_Library/Core/Src/usbd_ctlreq.c **** 
 739              		.loc 1 598 3 is_stmt 1 view .LVU211
 600:Middlewares/ST/STM32_USB_Device_Library/Core/Src/usbd_ctlreq.c ****   {
 740              		.loc 1 600 3 view .LVU212
 600:Middlewares/ST/STM32_USB_Device_Library/Core/Src/usbd_ctlreq.c ****   {
 741              		.loc 1 600 11 is_stmt 0 view .LVU213
 742 0004 8B88     		ldrh	r3, [r1, #4]
 600:Middlewares/ST/STM32_USB_Device_Library/Core/Src/usbd_ctlreq.c ****   {
 743              		.loc 1 600 6 view .LVU214
 744 0006 002B     		cmp	r3, #0
 745 0008 23D1     		bne	.L45
 600:Middlewares/ST/STM32_USB_Device_Library/Core/Src/usbd_ctlreq.c ****   {
 746              		.loc 1 600 34 discriminator 1 view .LVU215
 747 000a CB88     		ldrh	r3, [r1, #6]
 600:Middlewares/ST/STM32_USB_Device_Library/Core/Src/usbd_ctlreq.c ****   {
 748              		.loc 1 600 27 discriminator 1 view .LVU216
 749 000c 002B     		cmp	r3, #0
 750 000e 20D1     		bne	.L45
 600:Middlewares/ST/STM32_USB_Device_Library/Core/Src/usbd_ctlreq.c ****   {
 751              		.loc 1 600 58 discriminator 2 view .LVU217
 752 0010 4B88     		ldrh	r3, [r1, #2]
 600:Middlewares/ST/STM32_USB_Device_Library/Core/Src/usbd_ctlreq.c ****   {
 753              		.loc 1 600 51 discriminator 2 view .LVU218
 754 0012 7F2B     		cmp	r3, #127
 755 0014 1DD8     		bhi	.L45
 602:Middlewares/ST/STM32_USB_Device_Library/Core/Src/usbd_ctlreq.c **** 
 756              		.loc 1 602 5 is_stmt 1 view .LVU219
 602:Middlewares/ST/STM32_USB_Device_Library/Core/Src/usbd_ctlreq.c **** 
 757              		.loc 1 602 14 is_stmt 0 view .LVU220
 758 0016 7F25     		movs	r5, #127
 759 0018 1D40     		ands	r5, r3
 760              	.LVL82:
 604:Middlewares/ST/STM32_USB_Device_Library/Core/Src/usbd_ctlreq.c ****     {
 761              		.loc 1 604 5 is_stmt 1 view .LVU221
 604:Middlewares/ST/STM32_USB_Device_Library/Core/Src/usbd_ctlreq.c ****     {
 762              		.loc 1 604 13 is_stmt 0 view .LVU222
 763 001a A723     		movs	r3, #167
 764 001c 9B00     		lsls	r3, r3, #2
 765 001e C35C     		ldrb	r3, [r0, r3]
 604:Middlewares/ST/STM32_USB_Device_Library/Core/Src/usbd_ctlreq.c ****     {
 766              		.loc 1 604 8 view .LVU223
 767 0020 032B     		cmp	r3, #3
 768 0022 0ED0     		beq	.L49
 610:Middlewares/ST/STM32_USB_Device_Library/Core/Src/usbd_ctlreq.c ****       USBD_LL_SetUSBAddress(pdev, dev_addr);
 769              		.loc 1 610 7 is_stmt 1 view .LVU224
 610:Middlewares/ST/STM32_USB_Device_Library/Core/Src/usbd_ctlreq.c ****       USBD_LL_SetUSBAddress(pdev, dev_addr);
 770              		.loc 1 610 25 is_stmt 0 view .LVU225
 771 0024 0D4B     		ldr	r3, .L50
 772 0026 C554     		strb	r5, [r0, r3]
 611:Middlewares/ST/STM32_USB_Device_Library/Core/Src/usbd_ctlreq.c ****       USBD_CtlSendStatus(pdev);
 773              		.loc 1 611 7 is_stmt 1 view .LVU226
 774 0028 2900     		movs	r1, r5
ARM GAS  /tmp/ccp4GKZ9.s 			page 34


 775              	.LVL83:
 611:Middlewares/ST/STM32_USB_Device_Library/Core/Src/usbd_ctlreq.c ****       USBD_CtlSendStatus(pdev);
 776              		.loc 1 611 7 is_stmt 0 view .LVU227
 777 002a FFF7FEFF 		bl	USBD_LL_SetUSBAddress
 778              	.LVL84:
 612:Middlewares/ST/STM32_USB_Device_Library/Core/Src/usbd_ctlreq.c **** 
 779              		.loc 1 612 7 is_stmt 1 view .LVU228
 780 002e 2000     		movs	r0, r4
 781 0030 FFF7FEFF 		bl	USBD_CtlSendStatus
 782              	.LVL85:
 614:Middlewares/ST/STM32_USB_Device_Library/Core/Src/usbd_ctlreq.c ****       {
 783              		.loc 1 614 7 view .LVU229
 614:Middlewares/ST/STM32_USB_Device_Library/Core/Src/usbd_ctlreq.c ****       {
 784              		.loc 1 614 10 is_stmt 0 view .LVU230
 785 0034 002D     		cmp	r5, #0
 786 0036 07D0     		beq	.L48
 616:Middlewares/ST/STM32_USB_Device_Library/Core/Src/usbd_ctlreq.c ****       }
 787              		.loc 1 616 9 is_stmt 1 view .LVU231
 616:Middlewares/ST/STM32_USB_Device_Library/Core/Src/usbd_ctlreq.c ****       }
 788              		.loc 1 616 25 is_stmt 0 view .LVU232
 789 0038 A723     		movs	r3, #167
 790 003a 9B00     		lsls	r3, r3, #2
 791 003c 0222     		movs	r2, #2
 792 003e E254     		strb	r2, [r4, r3]
 793 0040 0AE0     		b	.L44
 794              	.LVL86:
 795              	.L49:
 606:Middlewares/ST/STM32_USB_Device_Library/Core/Src/usbd_ctlreq.c ****     }
 796              		.loc 1 606 7 is_stmt 1 view .LVU233
 797 0042 FFF7FEFF 		bl	USBD_CtlError
 798              	.LVL87:
 606:Middlewares/ST/STM32_USB_Device_Library/Core/Src/usbd_ctlreq.c ****     }
 799              		.loc 1 606 7 is_stmt 0 view .LVU234
 800 0046 07E0     		b	.L44
 801              	.L48:
 620:Middlewares/ST/STM32_USB_Device_Library/Core/Src/usbd_ctlreq.c ****       }
 802              		.loc 1 620 9 is_stmt 1 view .LVU235
 620:Middlewares/ST/STM32_USB_Device_Library/Core/Src/usbd_ctlreq.c ****       }
 803              		.loc 1 620 25 is_stmt 0 view .LVU236
 804 0048 A723     		movs	r3, #167
 805 004a 9B00     		lsls	r3, r3, #2
 806 004c 0122     		movs	r2, #1
 807 004e E254     		strb	r2, [r4, r3]
 808 0050 02E0     		b	.L44
 809              	.LVL88:
 810              	.L45:
 626:Middlewares/ST/STM32_USB_Device_Library/Core/Src/usbd_ctlreq.c ****   }
 811              		.loc 1 626 5 is_stmt 1 view .LVU237
 812 0052 2000     		movs	r0, r4
 813              	.LVL89:
 626:Middlewares/ST/STM32_USB_Device_Library/Core/Src/usbd_ctlreq.c ****   }
 814              		.loc 1 626 5 is_stmt 0 view .LVU238
 815 0054 FFF7FEFF 		bl	USBD_CtlError
 816              	.LVL90:
 817              	.L44:
 628:Middlewares/ST/STM32_USB_Device_Library/Core/Src/usbd_ctlreq.c **** 
 818              		.loc 1 628 1 view .LVU239
ARM GAS  /tmp/ccp4GKZ9.s 			page 35


 819              		@ sp needed
 820              	.LVL91:
 628:Middlewares/ST/STM32_USB_Device_Library/Core/Src/usbd_ctlreq.c **** 
 821              		.loc 1 628 1 view .LVU240
 822 0058 70BD     		pop	{r4, r5, r6, pc}
 823              	.L51:
 824 005a C046     		.align	2
 825              	.L50:
 826 005c 9E020000 		.word	670
 827              		.cfi_endproc
 828              	.LFE47:
 830              		.section	.text.USBD_SetConfig,"ax",%progbits
 831              		.align	1
 832              		.syntax unified
 833              		.code	16
 834              		.thumb_func
 836              	USBD_SetConfig:
 837              	.LVL92:
 838              	.LFB48:
 638:Middlewares/ST/STM32_USB_Device_Library/Core/Src/usbd_ctlreq.c ****   static uint8_t cfgidx;
 839              		.loc 1 638 1 is_stmt 1 view -0
 840              		.cfi_startproc
 841              		@ args = 0, pretend = 0, frame = 0
 842              		@ frame_needed = 0, uses_anonymous_args = 0
 638:Middlewares/ST/STM32_USB_Device_Library/Core/Src/usbd_ctlreq.c ****   static uint8_t cfgidx;
 843              		.loc 1 638 1 is_stmt 0 view .LVU242
 844 0000 70B5     		push	{r4, r5, r6, lr}
 845              	.LCFI5:
 846              		.cfi_def_cfa_offset 16
 847              		.cfi_offset 4, -16
 848              		.cfi_offset 5, -12
 849              		.cfi_offset 6, -8
 850              		.cfi_offset 14, -4
 851 0002 0400     		movs	r4, r0
 852 0004 0D00     		movs	r5, r1
 639:Middlewares/ST/STM32_USB_Device_Library/Core/Src/usbd_ctlreq.c **** 
 853              		.loc 1 639 3 is_stmt 1 view .LVU243
 641:Middlewares/ST/STM32_USB_Device_Library/Core/Src/usbd_ctlreq.c **** 
 854              		.loc 1 641 3 view .LVU244
 641:Middlewares/ST/STM32_USB_Device_Library/Core/Src/usbd_ctlreq.c **** 
 855              		.loc 1 641 12 is_stmt 0 view .LVU245
 856 0006 8978     		ldrb	r1, [r1, #2]
 857              	.LVL93:
 641:Middlewares/ST/STM32_USB_Device_Library/Core/Src/usbd_ctlreq.c **** 
 858              		.loc 1 641 10 view .LVU246
 859 0008 2A4B     		ldr	r3, .L68
 860 000a 1970     		strb	r1, [r3]
 643:Middlewares/ST/STM32_USB_Device_Library/Core/Src/usbd_ctlreq.c ****   {
 861              		.loc 1 643 3 is_stmt 1 view .LVU247
 643:Middlewares/ST/STM32_USB_Device_Library/Core/Src/usbd_ctlreq.c ****   {
 862              		.loc 1 643 6 is_stmt 0 view .LVU248
 863 000c 0129     		cmp	r1, #1
 864 000e 0FD8     		bhi	.L64
 649:Middlewares/ST/STM32_USB_Device_Library/Core/Src/usbd_ctlreq.c ****     {
 865              		.loc 1 649 5 is_stmt 1 view .LVU249
 649:Middlewares/ST/STM32_USB_Device_Library/Core/Src/usbd_ctlreq.c ****     {
 866              		.loc 1 649 17 is_stmt 0 view .LVU250
ARM GAS  /tmp/ccp4GKZ9.s 			page 36


 867 0010 A723     		movs	r3, #167
 868 0012 9B00     		lsls	r3, r3, #2
 869 0014 C35C     		ldrb	r3, [r0, r3]
 649:Middlewares/ST/STM32_USB_Device_Library/Core/Src/usbd_ctlreq.c ****     {
 870              		.loc 1 649 5 view .LVU251
 871 0016 022B     		cmp	r3, #2
 872 0018 0ED0     		beq	.L55
 873 001a 032B     		cmp	r3, #3
 874 001c 23D0     		beq	.L56
 698:Middlewares/ST/STM32_USB_Device_Library/Core/Src/usbd_ctlreq.c ****         USBD_ClrClassConfig(pdev, cfgidx);
 875              		.loc 1 698 9 is_stmt 1 view .LVU252
 876 001e 2900     		movs	r1, r5
 877 0020 FFF7FEFF 		bl	USBD_CtlError
 878              	.LVL94:
 699:Middlewares/ST/STM32_USB_Device_Library/Core/Src/usbd_ctlreq.c ****         break;
 879              		.loc 1 699 9 view .LVU253
 880 0024 234B     		ldr	r3, .L68
 881 0026 1978     		ldrb	r1, [r3]
 882 0028 2000     		movs	r0, r4
 883 002a FFF7FEFF 		bl	USBD_ClrClassConfig
 884              	.LVL95:
 700:Middlewares/ST/STM32_USB_Device_Library/Core/Src/usbd_ctlreq.c ****     }
 885              		.loc 1 700 9 view .LVU254
 886 002e 02E0     		b	.L52
 887              	.LVL96:
 888              	.L64:
 645:Middlewares/ST/STM32_USB_Device_Library/Core/Src/usbd_ctlreq.c ****   }
 889              		.loc 1 645 5 view .LVU255
 890 0030 2900     		movs	r1, r5
 891 0032 FFF7FEFF 		bl	USBD_CtlError
 892              	.LVL97:
 893              	.L52:
 703:Middlewares/ST/STM32_USB_Device_Library/Core/Src/usbd_ctlreq.c **** 
 894              		.loc 1 703 1 is_stmt 0 view .LVU256
 895              		@ sp needed
 896              	.LVL98:
 897              	.LVL99:
 703:Middlewares/ST/STM32_USB_Device_Library/Core/Src/usbd_ctlreq.c **** 
 898              		.loc 1 703 1 view .LVU257
 899 0036 70BD     		pop	{r4, r5, r6, pc}
 900              	.LVL100:
 901              	.L55:
 652:Middlewares/ST/STM32_USB_Device_Library/Core/Src/usbd_ctlreq.c ****         {
 902              		.loc 1 652 9 is_stmt 1 view .LVU258
 652:Middlewares/ST/STM32_USB_Device_Library/Core/Src/usbd_ctlreq.c ****         {
 903              		.loc 1 652 12 is_stmt 0 view .LVU259
 904 0038 0029     		cmp	r1, #0
 905 003a 11D0     		beq	.L58
 654:Middlewares/ST/STM32_USB_Device_Library/Core/Src/usbd_ctlreq.c ****           pdev->dev_state = USBD_STATE_CONFIGURED;
 906              		.loc 1 654 11 is_stmt 1 view .LVU260
 654:Middlewares/ST/STM32_USB_Device_Library/Core/Src/usbd_ctlreq.c ****           pdev->dev_state = USBD_STATE_CONFIGURED;
 907              		.loc 1 654 28 is_stmt 0 view .LVU261
 908 003c 4160     		str	r1, [r0, #4]
 655:Middlewares/ST/STM32_USB_Device_Library/Core/Src/usbd_ctlreq.c ****           if (USBD_SetClassConfig(pdev, cfgidx) == USBD_FAIL)
 909              		.loc 1 655 11 is_stmt 1 view .LVU262
 655:Middlewares/ST/STM32_USB_Device_Library/Core/Src/usbd_ctlreq.c ****           if (USBD_SetClassConfig(pdev, cfgidx) == USBD_FAIL)
 910              		.loc 1 655 27 is_stmt 0 view .LVU263
ARM GAS  /tmp/ccp4GKZ9.s 			page 37


 911 003e A723     		movs	r3, #167
 912 0040 9B00     		lsls	r3, r3, #2
 913 0042 0322     		movs	r2, #3
 914 0044 C254     		strb	r2, [r0, r3]
 656:Middlewares/ST/STM32_USB_Device_Library/Core/Src/usbd_ctlreq.c ****           {
 915              		.loc 1 656 11 is_stmt 1 view .LVU264
 656:Middlewares/ST/STM32_USB_Device_Library/Core/Src/usbd_ctlreq.c ****           {
 916              		.loc 1 656 15 is_stmt 0 view .LVU265
 917 0046 FFF7FEFF 		bl	USBD_SetClassConfig
 918              	.LVL101:
 656:Middlewares/ST/STM32_USB_Device_Library/Core/Src/usbd_ctlreq.c ****           {
 919              		.loc 1 656 14 discriminator 1 view .LVU266
 920 004a 0228     		cmp	r0, #2
 921 004c 03D0     		beq	.L65
 661:Middlewares/ST/STM32_USB_Device_Library/Core/Src/usbd_ctlreq.c ****         }
 922              		.loc 1 661 11 is_stmt 1 view .LVU267
 923 004e 2000     		movs	r0, r4
 924 0050 FFF7FEFF 		bl	USBD_CtlSendStatus
 925              	.LVL102:
 926 0054 EFE7     		b	.L52
 927              	.L65:
 658:Middlewares/ST/STM32_USB_Device_Library/Core/Src/usbd_ctlreq.c ****             return;
 928              		.loc 1 658 13 view .LVU268
 929 0056 2900     		movs	r1, r5
 930 0058 2000     		movs	r0, r4
 931 005a FFF7FEFF 		bl	USBD_CtlError
 932              	.LVL103:
 659:Middlewares/ST/STM32_USB_Device_Library/Core/Src/usbd_ctlreq.c ****           }
 933              		.loc 1 659 13 view .LVU269
 934 005e EAE7     		b	.L52
 935              	.LVL104:
 936              	.L58:
 665:Middlewares/ST/STM32_USB_Device_Library/Core/Src/usbd_ctlreq.c ****         }
 937              		.loc 1 665 11 view .LVU270
 938 0060 FFF7FEFF 		bl	USBD_CtlSendStatus
 939              	.LVL105:
 665:Middlewares/ST/STM32_USB_Device_Library/Core/Src/usbd_ctlreq.c ****         }
 940              		.loc 1 665 11 is_stmt 0 view .LVU271
 941 0064 E7E7     		b	.L52
 942              	.LVL106:
 943              	.L56:
 670:Middlewares/ST/STM32_USB_Device_Library/Core/Src/usbd_ctlreq.c ****         {
 944              		.loc 1 670 9 is_stmt 1 view .LVU272
 670:Middlewares/ST/STM32_USB_Device_Library/Core/Src/usbd_ctlreq.c ****         {
 945              		.loc 1 670 12 is_stmt 0 view .LVU273
 946 0066 0029     		cmp	r1, #0
 947 0068 11D0     		beq	.L66
 677:Middlewares/ST/STM32_USB_Device_Library/Core/Src/usbd_ctlreq.c ****         {
 948              		.loc 1 677 14 is_stmt 1 view .LVU274
 677:Middlewares/ST/STM32_USB_Device_Library/Core/Src/usbd_ctlreq.c ****         {
 949              		.loc 1 677 32 is_stmt 0 view .LVU275
 950 006a 4368     		ldr	r3, [r0, #4]
 677:Middlewares/ST/STM32_USB_Device_Library/Core/Src/usbd_ctlreq.c ****         {
 951              		.loc 1 677 17 view .LVU276
 952 006c 9942     		cmp	r1, r3
 953 006e 1ED0     		beq	.L61
 680:Middlewares/ST/STM32_USB_Device_Library/Core/Src/usbd_ctlreq.c **** 
ARM GAS  /tmp/ccp4GKZ9.s 			page 38


 954              		.loc 1 680 11 is_stmt 1 view .LVU277
 955 0070 D9B2     		uxtb	r1, r3
 956 0072 FFF7FEFF 		bl	USBD_ClrClassConfig
 957              	.LVL107:
 683:Middlewares/ST/STM32_USB_Device_Library/Core/Src/usbd_ctlreq.c ****           if (USBD_SetClassConfig(pdev, cfgidx) == USBD_FAIL)
 958              		.loc 1 683 11 view .LVU278
 683:Middlewares/ST/STM32_USB_Device_Library/Core/Src/usbd_ctlreq.c ****           if (USBD_SetClassConfig(pdev, cfgidx) == USBD_FAIL)
 959              		.loc 1 683 28 is_stmt 0 view .LVU279
 960 0076 0F4B     		ldr	r3, .L68
 961 0078 1978     		ldrb	r1, [r3]
 962 007a 6160     		str	r1, [r4, #4]
 684:Middlewares/ST/STM32_USB_Device_Library/Core/Src/usbd_ctlreq.c ****           {
 963              		.loc 1 684 11 is_stmt 1 view .LVU280
 684:Middlewares/ST/STM32_USB_Device_Library/Core/Src/usbd_ctlreq.c ****           {
 964              		.loc 1 684 15 is_stmt 0 view .LVU281
 965 007c 2000     		movs	r0, r4
 966 007e FFF7FEFF 		bl	USBD_SetClassConfig
 967              	.LVL108:
 684:Middlewares/ST/STM32_USB_Device_Library/Core/Src/usbd_ctlreq.c ****           {
 968              		.loc 1 684 14 discriminator 1 view .LVU282
 969 0082 0228     		cmp	r0, #2
 970 0084 0ED0     		beq	.L67
 689:Middlewares/ST/STM32_USB_Device_Library/Core/Src/usbd_ctlreq.c ****         }
 971              		.loc 1 689 11 is_stmt 1 view .LVU283
 972 0086 2000     		movs	r0, r4
 973 0088 FFF7FEFF 		bl	USBD_CtlSendStatus
 974              	.LVL109:
 975 008c D3E7     		b	.L52
 976              	.LVL110:
 977              	.L66:
 672:Middlewares/ST/STM32_USB_Device_Library/Core/Src/usbd_ctlreq.c ****           pdev->dev_config = cfgidx;
 978              		.loc 1 672 11 view .LVU284
 672:Middlewares/ST/STM32_USB_Device_Library/Core/Src/usbd_ctlreq.c ****           pdev->dev_config = cfgidx;
 979              		.loc 1 672 27 is_stmt 0 view .LVU285
 980 008e A723     		movs	r3, #167
 981 0090 9B00     		lsls	r3, r3, #2
 982 0092 0222     		movs	r2, #2
 983 0094 C254     		strb	r2, [r0, r3]
 673:Middlewares/ST/STM32_USB_Device_Library/Core/Src/usbd_ctlreq.c ****           USBD_ClrClassConfig(pdev, cfgidx);
 984              		.loc 1 673 11 is_stmt 1 view .LVU286
 673:Middlewares/ST/STM32_USB_Device_Library/Core/Src/usbd_ctlreq.c ****           USBD_ClrClassConfig(pdev, cfgidx);
 985              		.loc 1 673 28 is_stmt 0 view .LVU287
 986 0096 4160     		str	r1, [r0, #4]
 674:Middlewares/ST/STM32_USB_Device_Library/Core/Src/usbd_ctlreq.c ****           USBD_CtlSendStatus(pdev);
 987              		.loc 1 674 11 is_stmt 1 view .LVU288
 988 0098 FFF7FEFF 		bl	USBD_ClrClassConfig
 989              	.LVL111:
 675:Middlewares/ST/STM32_USB_Device_Library/Core/Src/usbd_ctlreq.c ****         }
 990              		.loc 1 675 11 view .LVU289
 991 009c 2000     		movs	r0, r4
 992 009e FFF7FEFF 		bl	USBD_CtlSendStatus
 993              	.LVL112:
 994 00a2 C8E7     		b	.L52
 995              	.L67:
 686:Middlewares/ST/STM32_USB_Device_Library/Core/Src/usbd_ctlreq.c ****             return;
 996              		.loc 1 686 13 view .LVU290
 997 00a4 2900     		movs	r1, r5
ARM GAS  /tmp/ccp4GKZ9.s 			page 39


 998 00a6 2000     		movs	r0, r4
 999 00a8 FFF7FEFF 		bl	USBD_CtlError
 1000              	.LVL113:
 687:Middlewares/ST/STM32_USB_Device_Library/Core/Src/usbd_ctlreq.c ****           }
 1001              		.loc 1 687 13 view .LVU291
 1002 00ac C3E7     		b	.L52
 1003              	.LVL114:
 1004              	.L61:
 693:Middlewares/ST/STM32_USB_Device_Library/Core/Src/usbd_ctlreq.c ****         }
 1005              		.loc 1 693 11 view .LVU292
 1006 00ae FFF7FEFF 		bl	USBD_CtlSendStatus
 1007              	.LVL115:
 693:Middlewares/ST/STM32_USB_Device_Library/Core/Src/usbd_ctlreq.c ****         }
 1008              		.loc 1 693 11 is_stmt 0 view .LVU293
 1009 00b2 C0E7     		b	.L52
 1010              	.L69:
 1011              		.align	2
 1012              	.L68:
 1013 00b4 00000000 		.word	cfgidx.0
 1014              		.cfi_endproc
 1015              	.LFE48:
 1017              		.section	.text.USBD_GetConfig,"ax",%progbits
 1018              		.align	1
 1019              		.syntax unified
 1020              		.code	16
 1021              		.thumb_func
 1023              	USBD_GetConfig:
 1024              	.LVL116:
 1025              	.LFB49:
 713:Middlewares/ST/STM32_USB_Device_Library/Core/Src/usbd_ctlreq.c ****   if (req->wLength != 1U)
 1026              		.loc 1 713 1 is_stmt 1 view -0
 1027              		.cfi_startproc
 1028              		@ args = 0, pretend = 0, frame = 0
 1029              		@ frame_needed = 0, uses_anonymous_args = 0
 713:Middlewares/ST/STM32_USB_Device_Library/Core/Src/usbd_ctlreq.c ****   if (req->wLength != 1U)
 1030              		.loc 1 713 1 is_stmt 0 view .LVU295
 1031 0000 10B5     		push	{r4, lr}
 1032              	.LCFI6:
 1033              		.cfi_def_cfa_offset 8
 1034              		.cfi_offset 4, -8
 1035              		.cfi_offset 14, -4
 714:Middlewares/ST/STM32_USB_Device_Library/Core/Src/usbd_ctlreq.c ****   {
 1036              		.loc 1 714 3 is_stmt 1 view .LVU296
 714:Middlewares/ST/STM32_USB_Device_Library/Core/Src/usbd_ctlreq.c ****   {
 1037              		.loc 1 714 10 is_stmt 0 view .LVU297
 1038 0002 CB88     		ldrh	r3, [r1, #6]
 714:Middlewares/ST/STM32_USB_Device_Library/Core/Src/usbd_ctlreq.c ****   {
 1039              		.loc 1 714 6 view .LVU298
 1040 0004 012B     		cmp	r3, #1
 1041 0006 0BD1     		bne	.L77
 720:Middlewares/ST/STM32_USB_Device_Library/Core/Src/usbd_ctlreq.c ****     {
 1042              		.loc 1 720 5 is_stmt 1 view .LVU299
 720:Middlewares/ST/STM32_USB_Device_Library/Core/Src/usbd_ctlreq.c ****     {
 1043              		.loc 1 720 17 is_stmt 0 view .LVU300
 1044 0008 A723     		movs	r3, #167
 1045 000a 9B00     		lsls	r3, r3, #2
 1046 000c C35C     		ldrb	r3, [r0, r3]
ARM GAS  /tmp/ccp4GKZ9.s 			page 40


 720:Middlewares/ST/STM32_USB_Device_Library/Core/Src/usbd_ctlreq.c ****     {
 1047              		.loc 1 720 5 view .LVU301
 1048 000e 022B     		cmp	r3, #2
 1049 0010 09D9     		bls	.L78
 1050 0012 032B     		cmp	r3, #3
 1051 0014 11D1     		bne	.L75
 729:Middlewares/ST/STM32_USB_Device_Library/Core/Src/usbd_ctlreq.c ****         break;
 1052              		.loc 1 729 9 is_stmt 1 view .LVU302
 729:Middlewares/ST/STM32_USB_Device_Library/Core/Src/usbd_ctlreq.c ****         break;
 1053              		.loc 1 729 51 is_stmt 0 view .LVU303
 1054 0016 011D     		adds	r1, r0, #4
 1055              	.LVL117:
 729:Middlewares/ST/STM32_USB_Device_Library/Core/Src/usbd_ctlreq.c ****         break;
 1056              		.loc 1 729 9 view .LVU304
 1057 0018 0122     		movs	r2, #1
 1058 001a FFF7FEFF 		bl	USBD_CtlSendData
 1059              	.LVL118:
 730:Middlewares/ST/STM32_USB_Device_Library/Core/Src/usbd_ctlreq.c **** 
 1060              		.loc 1 730 9 is_stmt 1 view .LVU305
 1061 001e 01E0     		b	.L70
 1062              	.LVL119:
 1063              	.L77:
 716:Middlewares/ST/STM32_USB_Device_Library/Core/Src/usbd_ctlreq.c ****   }
 1064              		.loc 1 716 5 view .LVU306
 1065 0020 FFF7FEFF 		bl	USBD_CtlError
 1066              	.LVL120:
 1067              	.L70:
 737:Middlewares/ST/STM32_USB_Device_Library/Core/Src/usbd_ctlreq.c **** 
 1068              		.loc 1 737 1 is_stmt 0 view .LVU307
 1069              		@ sp needed
 1070 0024 10BD     		pop	{r4, pc}
 1071              	.LVL121:
 1072              	.L78:
 720:Middlewares/ST/STM32_USB_Device_Library/Core/Src/usbd_ctlreq.c ****     {
 1073              		.loc 1 720 5 view .LVU308
 1074 0026 002B     		cmp	r3, #0
 1075 0028 07D0     		beq	.L75
 724:Middlewares/ST/STM32_USB_Device_Library/Core/Src/usbd_ctlreq.c ****         USBD_CtlSendData(pdev, (uint8_t *)(void *)&pdev->dev_default_config, 1U);
 1076              		.loc 1 724 9 is_stmt 1 view .LVU309
 724:Middlewares/ST/STM32_USB_Device_Library/Core/Src/usbd_ctlreq.c ****         USBD_CtlSendData(pdev, (uint8_t *)(void *)&pdev->dev_default_config, 1U);
 1077              		.loc 1 724 34 is_stmt 0 view .LVU310
 1078 002a 0023     		movs	r3, #0
 1079 002c 8360     		str	r3, [r0, #8]
 725:Middlewares/ST/STM32_USB_Device_Library/Core/Src/usbd_ctlreq.c ****         break;
 1080              		.loc 1 725 9 is_stmt 1 view .LVU311
 725:Middlewares/ST/STM32_USB_Device_Library/Core/Src/usbd_ctlreq.c ****         break;
 1081              		.loc 1 725 51 is_stmt 0 view .LVU312
 1082 002e 0100     		movs	r1, r0
 1083              	.LVL122:
 725:Middlewares/ST/STM32_USB_Device_Library/Core/Src/usbd_ctlreq.c ****         break;
 1084              		.loc 1 725 51 view .LVU313
 1085 0030 0831     		adds	r1, r1, #8
 725:Middlewares/ST/STM32_USB_Device_Library/Core/Src/usbd_ctlreq.c ****         break;
 1086              		.loc 1 725 9 view .LVU314
 1087 0032 0122     		movs	r2, #1
 1088 0034 FFF7FEFF 		bl	USBD_CtlSendData
 1089              	.LVL123:
ARM GAS  /tmp/ccp4GKZ9.s 			page 41


 726:Middlewares/ST/STM32_USB_Device_Library/Core/Src/usbd_ctlreq.c **** 
 1090              		.loc 1 726 9 is_stmt 1 view .LVU315
 1091 0038 F4E7     		b	.L70
 1092              	.LVL124:
 1093              	.L75:
 733:Middlewares/ST/STM32_USB_Device_Library/Core/Src/usbd_ctlreq.c ****         break;
 1094              		.loc 1 733 9 view .LVU316
 1095 003a FFF7FEFF 		bl	USBD_CtlError
 1096              	.LVL125:
 734:Middlewares/ST/STM32_USB_Device_Library/Core/Src/usbd_ctlreq.c ****     }
 1097              		.loc 1 734 9 view .LVU317
 737:Middlewares/ST/STM32_USB_Device_Library/Core/Src/usbd_ctlreq.c **** 
 1098              		.loc 1 737 1 is_stmt 0 view .LVU318
 1099 003e F1E7     		b	.L70
 1100              		.cfi_endproc
 1101              	.LFE49:
 1103              		.section	.text.USBD_GetStatus,"ax",%progbits
 1104              		.align	1
 1105              		.syntax unified
 1106              		.code	16
 1107              		.thumb_func
 1109              	USBD_GetStatus:
 1110              	.LVL126:
 1111              	.LFB50:
 747:Middlewares/ST/STM32_USB_Device_Library/Core/Src/usbd_ctlreq.c ****   switch (pdev->dev_state)
 1112              		.loc 1 747 1 is_stmt 1 view -0
 1113              		.cfi_startproc
 1114              		@ args = 0, pretend = 0, frame = 0
 1115              		@ frame_needed = 0, uses_anonymous_args = 0
 747:Middlewares/ST/STM32_USB_Device_Library/Core/Src/usbd_ctlreq.c ****   switch (pdev->dev_state)
 1116              		.loc 1 747 1 is_stmt 0 view .LVU320
 1117 0000 10B5     		push	{r4, lr}
 1118              	.LCFI7:
 1119              		.cfi_def_cfa_offset 8
 1120              		.cfi_offset 4, -8
 1121              		.cfi_offset 14, -4
 748:Middlewares/ST/STM32_USB_Device_Library/Core/Src/usbd_ctlreq.c ****   {
 1122              		.loc 1 748 3 is_stmt 1 view .LVU321
 748:Middlewares/ST/STM32_USB_Device_Library/Core/Src/usbd_ctlreq.c ****   {
 1123              		.loc 1 748 15 is_stmt 0 view .LVU322
 1124 0002 A723     		movs	r3, #167
 1125 0004 9B00     		lsls	r3, r3, #2
 1126 0006 C35C     		ldrb	r3, [r0, r3]
 748:Middlewares/ST/STM32_USB_Device_Library/Core/Src/usbd_ctlreq.c ****   {
 1127              		.loc 1 748 3 view .LVU323
 1128 0008 013B     		subs	r3, r3, #1
 1129 000a 022B     		cmp	r3, #2
 1130 000c 14D8     		bhi	.L80
 753:Middlewares/ST/STM32_USB_Device_Library/Core/Src/usbd_ctlreq.c ****       {
 1131              		.loc 1 753 7 is_stmt 1 view .LVU324
 753:Middlewares/ST/STM32_USB_Device_Library/Core/Src/usbd_ctlreq.c ****       {
 1132              		.loc 1 753 14 is_stmt 0 view .LVU325
 1133 000e CB88     		ldrh	r3, [r1, #6]
 753:Middlewares/ST/STM32_USB_Device_Library/Core/Src/usbd_ctlreq.c ****       {
 1134              		.loc 1 753 10 view .LVU326
 1135 0010 022B     		cmp	r3, #2
 1136 0012 0ED1     		bne	.L84
ARM GAS  /tmp/ccp4GKZ9.s 			page 42


 760:Middlewares/ST/STM32_USB_Device_Library/Core/Src/usbd_ctlreq.c **** #else
 1137              		.loc 1 760 7 is_stmt 1 view .LVU327
 760:Middlewares/ST/STM32_USB_Device_Library/Core/Src/usbd_ctlreq.c **** #else
 1138              		.loc 1 760 31 is_stmt 0 view .LVU328
 1139 0014 0123     		movs	r3, #1
 1140 0016 C360     		str	r3, [r0, #12]
 765:Middlewares/ST/STM32_USB_Device_Library/Core/Src/usbd_ctlreq.c ****       {
 1141              		.loc 1 765 7 is_stmt 1 view .LVU329
 765:Middlewares/ST/STM32_USB_Device_Library/Core/Src/usbd_ctlreq.c ****       {
 1142              		.loc 1 765 15 is_stmt 0 view .LVU330
 1143 0018 A923     		movs	r3, #169
 1144 001a 9B00     		lsls	r3, r3, #2
 1145 001c C358     		ldr	r3, [r0, r3]
 765:Middlewares/ST/STM32_USB_Device_Library/Core/Src/usbd_ctlreq.c ****       {
 1146              		.loc 1 765 10 view .LVU331
 1147 001e 002B     		cmp	r3, #0
 1148 0020 01D0     		beq	.L83
 767:Middlewares/ST/STM32_USB_Device_Library/Core/Src/usbd_ctlreq.c ****       }
 1149              		.loc 1 767 9 is_stmt 1 view .LVU332
 767:Middlewares/ST/STM32_USB_Device_Library/Core/Src/usbd_ctlreq.c ****       }
 1150              		.loc 1 767 33 is_stmt 0 view .LVU333
 1151 0022 0323     		movs	r3, #3
 1152 0024 C360     		str	r3, [r0, #12]
 1153              	.L83:
 770:Middlewares/ST/STM32_USB_Device_Library/Core/Src/usbd_ctlreq.c ****       break;
 1154              		.loc 1 770 7 is_stmt 1 view .LVU334
 770:Middlewares/ST/STM32_USB_Device_Library/Core/Src/usbd_ctlreq.c ****       break;
 1155              		.loc 1 770 49 is_stmt 0 view .LVU335
 1156 0026 0100     		movs	r1, r0
 1157              	.LVL127:
 770:Middlewares/ST/STM32_USB_Device_Library/Core/Src/usbd_ctlreq.c ****       break;
 1158              		.loc 1 770 49 view .LVU336
 1159 0028 0C31     		adds	r1, r1, #12
 770:Middlewares/ST/STM32_USB_Device_Library/Core/Src/usbd_ctlreq.c ****       break;
 1160              		.loc 1 770 7 view .LVU337
 1161 002a 0222     		movs	r2, #2
 1162 002c FFF7FEFF 		bl	USBD_CtlSendData
 1163              	.LVL128:
 771:Middlewares/ST/STM32_USB_Device_Library/Core/Src/usbd_ctlreq.c **** 
 1164              		.loc 1 771 7 is_stmt 1 view .LVU338
 1165              	.L79:
 777:Middlewares/ST/STM32_USB_Device_Library/Core/Src/usbd_ctlreq.c **** 
 1166              		.loc 1 777 1 is_stmt 0 view .LVU339
 1167              		@ sp needed
 1168 0030 10BD     		pop	{r4, pc}
 1169              	.LVL129:
 1170              	.L84:
 755:Middlewares/ST/STM32_USB_Device_Library/Core/Src/usbd_ctlreq.c ****         break;
 1171              		.loc 1 755 9 is_stmt 1 view .LVU340
 1172 0032 FFF7FEFF 		bl	USBD_CtlError
 1173              	.LVL130:
 756:Middlewares/ST/STM32_USB_Device_Library/Core/Src/usbd_ctlreq.c ****       }
 1174              		.loc 1 756 9 view .LVU341
 1175 0036 FBE7     		b	.L79
 1176              	.LVL131:
 1177              	.L80:
 774:Middlewares/ST/STM32_USB_Device_Library/Core/Src/usbd_ctlreq.c ****       break;
ARM GAS  /tmp/ccp4GKZ9.s 			page 43


 1178              		.loc 1 774 7 view .LVU342
 1179 0038 FFF7FEFF 		bl	USBD_CtlError
 1180              	.LVL132:
 775:Middlewares/ST/STM32_USB_Device_Library/Core/Src/usbd_ctlreq.c ****   }
 1181              		.loc 1 775 7 view .LVU343
 777:Middlewares/ST/STM32_USB_Device_Library/Core/Src/usbd_ctlreq.c **** 
 1182              		.loc 1 777 1 is_stmt 0 view .LVU344
 1183 003c F8E7     		b	.L79
 1184              		.cfi_endproc
 1185              	.LFE50:
 1187              		.section	.text.USBD_ClrFeature,"ax",%progbits
 1188              		.align	1
 1189              		.syntax unified
 1190              		.code	16
 1191              		.thumb_func
 1193              	USBD_ClrFeature:
 1194              	.LVL133:
 1195              	.LFB52:
 807:Middlewares/ST/STM32_USB_Device_Library/Core/Src/usbd_ctlreq.c ****   switch (pdev->dev_state)
 1196              		.loc 1 807 1 is_stmt 1 view -0
 1197              		.cfi_startproc
 1198              		@ args = 0, pretend = 0, frame = 0
 1199              		@ frame_needed = 0, uses_anonymous_args = 0
 807:Middlewares/ST/STM32_USB_Device_Library/Core/Src/usbd_ctlreq.c ****   switch (pdev->dev_state)
 1200              		.loc 1 807 1 is_stmt 0 view .LVU346
 1201 0000 10B5     		push	{r4, lr}
 1202              	.LCFI8:
 1203              		.cfi_def_cfa_offset 8
 1204              		.cfi_offset 4, -8
 1205              		.cfi_offset 14, -4
 808:Middlewares/ST/STM32_USB_Device_Library/Core/Src/usbd_ctlreq.c ****   {
 1206              		.loc 1 808 3 is_stmt 1 view .LVU347
 808:Middlewares/ST/STM32_USB_Device_Library/Core/Src/usbd_ctlreq.c ****   {
 1207              		.loc 1 808 15 is_stmt 0 view .LVU348
 1208 0002 A723     		movs	r3, #167
 1209 0004 9B00     		lsls	r3, r3, #2
 1210 0006 C35C     		ldrb	r3, [r0, r3]
 808:Middlewares/ST/STM32_USB_Device_Library/Core/Src/usbd_ctlreq.c ****   {
 1211              		.loc 1 808 3 view .LVU349
 1212 0008 013B     		subs	r3, r3, #1
 1213 000a 022B     		cmp	r3, #2
 1214 000c 0AD8     		bhi	.L86
 813:Middlewares/ST/STM32_USB_Device_Library/Core/Src/usbd_ctlreq.c ****       {
 1215              		.loc 1 813 7 is_stmt 1 view .LVU350
 813:Middlewares/ST/STM32_USB_Device_Library/Core/Src/usbd_ctlreq.c ****       {
 1216              		.loc 1 813 14 is_stmt 0 view .LVU351
 1217 000e 4B88     		ldrh	r3, [r1, #2]
 813:Middlewares/ST/STM32_USB_Device_Library/Core/Src/usbd_ctlreq.c ****       {
 1218              		.loc 1 813 10 view .LVU352
 1219 0010 012B     		cmp	r3, #1
 1220 0012 00D0     		beq	.L88
 1221              	.LVL134:
 1222              	.L85:
 824:Middlewares/ST/STM32_USB_Device_Library/Core/Src/usbd_ctlreq.c **** 
 1223              		.loc 1 824 1 view .LVU353
 1224              		@ sp needed
 1225 0014 10BD     		pop	{r4, pc}
ARM GAS  /tmp/ccp4GKZ9.s 			page 44


 1226              	.LVL135:
 1227              	.L88:
 815:Middlewares/ST/STM32_USB_Device_Library/Core/Src/usbd_ctlreq.c ****         USBD_CtlSendStatus(pdev);
 1228              		.loc 1 815 9 is_stmt 1 view .LVU354
 815:Middlewares/ST/STM32_USB_Device_Library/Core/Src/usbd_ctlreq.c ****         USBD_CtlSendStatus(pdev);
 1229              		.loc 1 815 33 is_stmt 0 view .LVU355
 1230 0016 A923     		movs	r3, #169
 1231 0018 9B00     		lsls	r3, r3, #2
 1232 001a 0022     		movs	r2, #0
 1233 001c C250     		str	r2, [r0, r3]
 816:Middlewares/ST/STM32_USB_Device_Library/Core/Src/usbd_ctlreq.c ****       }
 1234              		.loc 1 816 9 is_stmt 1 view .LVU356
 1235 001e FFF7FEFF 		bl	USBD_CtlSendStatus
 1236              	.LVL136:
 816:Middlewares/ST/STM32_USB_Device_Library/Core/Src/usbd_ctlreq.c ****       }
 1237              		.loc 1 816 9 is_stmt 0 view .LVU357
 1238 0022 F7E7     		b	.L85
 1239              	.LVL137:
 1240              	.L86:
 821:Middlewares/ST/STM32_USB_Device_Library/Core/Src/usbd_ctlreq.c ****       break;
 1241              		.loc 1 821 7 is_stmt 1 view .LVU358
 1242 0024 FFF7FEFF 		bl	USBD_CtlError
 1243              	.LVL138:
 822:Middlewares/ST/STM32_USB_Device_Library/Core/Src/usbd_ctlreq.c ****   }
 1244              		.loc 1 822 7 view .LVU359
 824:Middlewares/ST/STM32_USB_Device_Library/Core/Src/usbd_ctlreq.c **** 
 1245              		.loc 1 824 1 is_stmt 0 view .LVU360
 1246 0028 F4E7     		b	.L85
 1247              		.cfi_endproc
 1248              	.LFE52:
 1250              		.section	.text.USBD_StdDevReq,"ax",%progbits
 1251              		.align	1
 1252              		.global	USBD_StdDevReq
 1253              		.syntax unified
 1254              		.code	16
 1255              		.thumb_func
 1257              	USBD_StdDevReq:
 1258              	.LVL139:
 1259              	.LFB43:
 116:Middlewares/ST/STM32_USB_Device_Library/Core/Src/usbd_ctlreq.c ****   USBD_StatusTypeDef ret = USBD_OK;
 1260              		.loc 1 116 1 is_stmt 1 view -0
 1261              		.cfi_startproc
 1262              		@ args = 0, pretend = 0, frame = 0
 1263              		@ frame_needed = 0, uses_anonymous_args = 0
 116:Middlewares/ST/STM32_USB_Device_Library/Core/Src/usbd_ctlreq.c ****   USBD_StatusTypeDef ret = USBD_OK;
 1264              		.loc 1 116 1 is_stmt 0 view .LVU362
 1265 0000 10B5     		push	{r4, lr}
 1266              	.LCFI9:
 1267              		.cfi_def_cfa_offset 8
 1268              		.cfi_offset 4, -8
 1269              		.cfi_offset 14, -4
 117:Middlewares/ST/STM32_USB_Device_Library/Core/Src/usbd_ctlreq.c **** 
 1270              		.loc 1 117 3 is_stmt 1 view .LVU363
 1271              	.LVL140:
 119:Middlewares/ST/STM32_USB_Device_Library/Core/Src/usbd_ctlreq.c ****   {
 1272              		.loc 1 119 3 view .LVU364
 119:Middlewares/ST/STM32_USB_Device_Library/Core/Src/usbd_ctlreq.c ****   {
ARM GAS  /tmp/ccp4GKZ9.s 			page 45


 1273              		.loc 1 119 14 is_stmt 0 view .LVU365
 1274 0002 0A78     		ldrb	r2, [r1]
 1275 0004 6023     		movs	r3, #96
 1276 0006 1340     		ands	r3, r2
 119:Middlewares/ST/STM32_USB_Device_Library/Core/Src/usbd_ctlreq.c ****   {
 1277              		.loc 1 119 3 view .LVU366
 1278 0008 202B     		cmp	r3, #32
 1279 000a 06D0     		beq	.L90
 1280 000c 402B     		cmp	r3, #64
 1281 000e 04D0     		beq	.L90
 1282 0010 002B     		cmp	r3, #0
 1283 0012 09D0     		beq	.L91
 164:Middlewares/ST/STM32_USB_Device_Library/Core/Src/usbd_ctlreq.c ****       break;
 1284              		.loc 1 164 7 is_stmt 1 view .LVU367
 1285 0014 FFF7FEFF 		bl	USBD_CtlError
 1286              	.LVL141:
 165:Middlewares/ST/STM32_USB_Device_Library/Core/Src/usbd_ctlreq.c ****   }
 1287              		.loc 1 165 7 view .LVU368
 1288 0018 04E0     		b	.L93
 1289              	.LVL142:
 1290              	.L90:
 123:Middlewares/ST/STM32_USB_Device_Library/Core/Src/usbd_ctlreq.c ****       break;
 1291              		.loc 1 123 7 view .LVU369
 123:Middlewares/ST/STM32_USB_Device_Library/Core/Src/usbd_ctlreq.c ****       break;
 1292              		.loc 1 123 11 is_stmt 0 view .LVU370
 1293 001a AD23     		movs	r3, #173
 1294 001c 9B00     		lsls	r3, r3, #2
 1295 001e C358     		ldr	r3, [r0, r3]
 123:Middlewares/ST/STM32_USB_Device_Library/Core/Src/usbd_ctlreq.c ****       break;
 1296              		.loc 1 123 19 view .LVU371
 1297 0020 9B68     		ldr	r3, [r3, #8]
 123:Middlewares/ST/STM32_USB_Device_Library/Core/Src/usbd_ctlreq.c ****       break;
 1298              		.loc 1 123 7 view .LVU372
 1299 0022 9847     		blx	r3
 1300              	.LVL143:
 124:Middlewares/ST/STM32_USB_Device_Library/Core/Src/usbd_ctlreq.c **** 
 1301              		.loc 1 124 7 is_stmt 1 view .LVU373
 1302              	.L93:
 168:Middlewares/ST/STM32_USB_Device_Library/Core/Src/usbd_ctlreq.c **** }
 1303              		.loc 1 168 3 view .LVU374
 169:Middlewares/ST/STM32_USB_Device_Library/Core/Src/usbd_ctlreq.c **** 
 1304              		.loc 1 169 1 is_stmt 0 view .LVU375
 1305 0024 0020     		movs	r0, #0
 1306              		@ sp needed
 1307 0026 10BD     		pop	{r4, pc}
 1308              	.LVL144:
 1309              	.L91:
 127:Middlewares/ST/STM32_USB_Device_Library/Core/Src/usbd_ctlreq.c ****       {
 1310              		.loc 1 127 7 is_stmt 1 view .LVU376
 127:Middlewares/ST/STM32_USB_Device_Library/Core/Src/usbd_ctlreq.c ****       {
 1311              		.loc 1 127 18 is_stmt 0 view .LVU377
 1312 0028 4B78     		ldrb	r3, [r1, #1]
 127:Middlewares/ST/STM32_USB_Device_Library/Core/Src/usbd_ctlreq.c ****       {
 1313              		.loc 1 127 7 view .LVU378
 1314 002a 092B     		cmp	r3, #9
 1315 002c 18D8     		bhi	.L94
 1316 002e 9B00     		lsls	r3, r3, #2
ARM GAS  /tmp/ccp4GKZ9.s 			page 46


 1317 0030 0D4A     		ldr	r2, .L104
 1318 0032 D358     		ldr	r3, [r2, r3]
 1319 0034 9F46     		mov	pc, r3
 1320              		.section	.rodata.USBD_StdDevReq,"a",%progbits
 1321              		.align	2
 1322              	.L96:
 1323 0000 4E000000 		.word	.L102
 1324 0004 5A000000 		.word	.L101
 1325 0008 60000000 		.word	.L94
 1326 000c 54000000 		.word	.L100
 1327 0010 60000000 		.word	.L94
 1328 0014 3C000000 		.word	.L99
 1329 0018 36000000 		.word	.L98
 1330 001c 60000000 		.word	.L94
 1331 0020 48000000 		.word	.L97
 1332 0024 42000000 		.word	.L95
 1333              		.section	.text.USBD_StdDevReq
 1334              	.L98:
 130:Middlewares/ST/STM32_USB_Device_Library/Core/Src/usbd_ctlreq.c ****           break;
 1335              		.loc 1 130 11 is_stmt 1 view .LVU379
 1336 0036 FFF7FEFF 		bl	USBD_GetDescriptor
 1337              	.LVL145:
 131:Middlewares/ST/STM32_USB_Device_Library/Core/Src/usbd_ctlreq.c **** 
 1338              		.loc 1 131 11 view .LVU380
 1339 003a F3E7     		b	.L93
 1340              	.LVL146:
 1341              	.L99:
 134:Middlewares/ST/STM32_USB_Device_Library/Core/Src/usbd_ctlreq.c ****           break;
 1342              		.loc 1 134 11 view .LVU381
 1343 003c FFF7FEFF 		bl	USBD_SetAddress
 1344              	.LVL147:
 135:Middlewares/ST/STM32_USB_Device_Library/Core/Src/usbd_ctlreq.c **** 
 1345              		.loc 1 135 11 view .LVU382
 1346 0040 F0E7     		b	.L93
 1347              	.LVL148:
 1348              	.L95:
 138:Middlewares/ST/STM32_USB_Device_Library/Core/Src/usbd_ctlreq.c ****           break;
 1349              		.loc 1 138 11 view .LVU383
 1350 0042 FFF7FEFF 		bl	USBD_SetConfig
 1351              	.LVL149:
 139:Middlewares/ST/STM32_USB_Device_Library/Core/Src/usbd_ctlreq.c **** 
 1352              		.loc 1 139 11 view .LVU384
 1353 0046 EDE7     		b	.L93
 1354              	.LVL150:
 1355              	.L97:
 142:Middlewares/ST/STM32_USB_Device_Library/Core/Src/usbd_ctlreq.c ****           break;
 1356              		.loc 1 142 11 view .LVU385
 1357 0048 FFF7FEFF 		bl	USBD_GetConfig
 1358              	.LVL151:
 143:Middlewares/ST/STM32_USB_Device_Library/Core/Src/usbd_ctlreq.c **** 
 1359              		.loc 1 143 11 view .LVU386
 1360 004c EAE7     		b	.L93
 1361              	.LVL152:
 1362              	.L102:
 146:Middlewares/ST/STM32_USB_Device_Library/Core/Src/usbd_ctlreq.c ****           break;
 1363              		.loc 1 146 11 view .LVU387
 1364 004e FFF7FEFF 		bl	USBD_GetStatus
ARM GAS  /tmp/ccp4GKZ9.s 			page 47


 1365              	.LVL153:
 147:Middlewares/ST/STM32_USB_Device_Library/Core/Src/usbd_ctlreq.c **** 
 1366              		.loc 1 147 11 view .LVU388
 1367 0052 E7E7     		b	.L93
 1368              	.LVL154:
 1369              	.L100:
 150:Middlewares/ST/STM32_USB_Device_Library/Core/Src/usbd_ctlreq.c ****           break;
 1370              		.loc 1 150 11 view .LVU389
 1371 0054 FFF7FEFF 		bl	USBD_SetFeature
 1372              	.LVL155:
 151:Middlewares/ST/STM32_USB_Device_Library/Core/Src/usbd_ctlreq.c **** 
 1373              		.loc 1 151 11 view .LVU390
 1374 0058 E4E7     		b	.L93
 1375              	.LVL156:
 1376              	.L101:
 154:Middlewares/ST/STM32_USB_Device_Library/Core/Src/usbd_ctlreq.c ****           break;
 1377              		.loc 1 154 11 view .LVU391
 1378 005a FFF7FEFF 		bl	USBD_ClrFeature
 1379              	.LVL157:
 155:Middlewares/ST/STM32_USB_Device_Library/Core/Src/usbd_ctlreq.c **** 
 1380              		.loc 1 155 11 view .LVU392
 1381 005e E1E7     		b	.L93
 1382              	.LVL158:
 1383              	.L94:
 158:Middlewares/ST/STM32_USB_Device_Library/Core/Src/usbd_ctlreq.c ****           break;
 1384              		.loc 1 158 11 view .LVU393
 1385 0060 FFF7FEFF 		bl	USBD_CtlError
 1386              	.LVL159:
 159:Middlewares/ST/STM32_USB_Device_Library/Core/Src/usbd_ctlreq.c ****       }
 1387              		.loc 1 159 11 view .LVU394
 1388 0064 DEE7     		b	.L93
 1389              	.L105:
 1390 0066 C046     		.align	2
 1391              	.L104:
 1392 0068 00000000 		.word	.L96
 1393              		.cfi_endproc
 1394              	.LFE43:
 1396              		.section	.text.USBD_StdItfReq,"ax",%progbits
 1397              		.align	1
 1398              		.global	USBD_StdItfReq
 1399              		.syntax unified
 1400              		.code	16
 1401              		.thumb_func
 1403              	USBD_StdItfReq:
 1404              	.LVL160:
 1405              	.LFB44:
 180:Middlewares/ST/STM32_USB_Device_Library/Core/Src/usbd_ctlreq.c ****   USBD_StatusTypeDef ret = USBD_OK;
 1406              		.loc 1 180 1 view -0
 1407              		.cfi_startproc
 1408              		@ args = 0, pretend = 0, frame = 0
 1409              		@ frame_needed = 0, uses_anonymous_args = 0
 180:Middlewares/ST/STM32_USB_Device_Library/Core/Src/usbd_ctlreq.c ****   USBD_StatusTypeDef ret = USBD_OK;
 1410              		.loc 1 180 1 is_stmt 0 view .LVU396
 1411 0000 70B5     		push	{r4, r5, r6, lr}
 1412              	.LCFI10:
 1413              		.cfi_def_cfa_offset 16
 1414              		.cfi_offset 4, -16
ARM GAS  /tmp/ccp4GKZ9.s 			page 48


 1415              		.cfi_offset 5, -12
 1416              		.cfi_offset 6, -8
 1417              		.cfi_offset 14, -4
 1418 0002 0500     		movs	r5, r0
 1419 0004 0C00     		movs	r4, r1
 181:Middlewares/ST/STM32_USB_Device_Library/Core/Src/usbd_ctlreq.c **** 
 1420              		.loc 1 181 3 is_stmt 1 view .LVU397
 1421              	.LVL161:
 183:Middlewares/ST/STM32_USB_Device_Library/Core/Src/usbd_ctlreq.c ****   {
 1422              		.loc 1 183 3 view .LVU398
 183:Middlewares/ST/STM32_USB_Device_Library/Core/Src/usbd_ctlreq.c ****   {
 1423              		.loc 1 183 14 is_stmt 0 view .LVU399
 1424 0006 0A78     		ldrb	r2, [r1]
 1425 0008 6023     		movs	r3, #96
 1426 000a 1340     		ands	r3, r2
 183:Middlewares/ST/STM32_USB_Device_Library/Core/Src/usbd_ctlreq.c ****   {
 1427              		.loc 1 183 3 view .LVU400
 1428 000c 202B     		cmp	r3, #32
 1429 000e 07D0     		beq	.L107
 1430 0010 402B     		cmp	r3, #64
 1431 0012 05D0     		beq	.L107
 1432 0014 002B     		cmp	r3, #0
 1433 0016 03D0     		beq	.L107
 216:Middlewares/ST/STM32_USB_Device_Library/Core/Src/usbd_ctlreq.c ****       break;
 1434              		.loc 1 216 7 is_stmt 1 view .LVU401
 1435 0018 FFF7FEFF 		bl	USBD_CtlError
 1436              	.LVL162:
 217:Middlewares/ST/STM32_USB_Device_Library/Core/Src/usbd_ctlreq.c ****   }
 1437              		.loc 1 217 7 view .LVU402
 1438              	.L111:
 220:Middlewares/ST/STM32_USB_Device_Library/Core/Src/usbd_ctlreq.c **** }
 1439              		.loc 1 220 3 view .LVU403
 221:Middlewares/ST/STM32_USB_Device_Library/Core/Src/usbd_ctlreq.c **** 
 1440              		.loc 1 221 1 is_stmt 0 view .LVU404
 1441 001c 0020     		movs	r0, #0
 1442              		@ sp needed
 1443              	.LVL163:
 1444              	.LVL164:
 221:Middlewares/ST/STM32_USB_Device_Library/Core/Src/usbd_ctlreq.c **** 
 1445              		.loc 1 221 1 view .LVU405
 1446 001e 70BD     		pop	{r4, r5, r6, pc}
 1447              	.LVL165:
 1448              	.L107:
 188:Middlewares/ST/STM32_USB_Device_Library/Core/Src/usbd_ctlreq.c ****       {
 1449              		.loc 1 188 7 is_stmt 1 view .LVU406
 188:Middlewares/ST/STM32_USB_Device_Library/Core/Src/usbd_ctlreq.c ****       {
 1450              		.loc 1 188 19 is_stmt 0 view .LVU407
 1451 0020 A723     		movs	r3, #167
 1452 0022 9B00     		lsls	r3, r3, #2
 1453 0024 EB5C     		ldrb	r3, [r5, r3]
 188:Middlewares/ST/STM32_USB_Device_Library/Core/Src/usbd_ctlreq.c ****       {
 1454              		.loc 1 188 7 view .LVU408
 1455 0026 013B     		subs	r3, r3, #1
 1456 0028 022B     		cmp	r3, #2
 1457 002a 17D8     		bhi	.L109
 194:Middlewares/ST/STM32_USB_Device_Library/Core/Src/usbd_ctlreq.c ****           {
 1458              		.loc 1 194 11 is_stmt 1 view .LVU409
ARM GAS  /tmp/ccp4GKZ9.s 			page 49


 194:Middlewares/ST/STM32_USB_Device_Library/Core/Src/usbd_ctlreq.c ****           {
 1459              		.loc 1 194 15 is_stmt 0 view .LVU410
 1460 002c 2379     		ldrb	r3, [r4, #4]
 194:Middlewares/ST/STM32_USB_Device_Library/Core/Src/usbd_ctlreq.c ****           {
 1461              		.loc 1 194 14 view .LVU411
 1462 002e 012B     		cmp	r3, #1
 1463 0030 0FD8     		bhi	.L110
 196:Middlewares/ST/STM32_USB_Device_Library/Core/Src/usbd_ctlreq.c **** 
 1464              		.loc 1 196 13 is_stmt 1 view .LVU412
 196:Middlewares/ST/STM32_USB_Device_Library/Core/Src/usbd_ctlreq.c **** 
 1465              		.loc 1 196 43 is_stmt 0 view .LVU413
 1466 0032 AD23     		movs	r3, #173
 1467 0034 9B00     		lsls	r3, r3, #2
 1468 0036 EB58     		ldr	r3, [r5, r3]
 196:Middlewares/ST/STM32_USB_Device_Library/Core/Src/usbd_ctlreq.c **** 
 1469              		.loc 1 196 51 view .LVU414
 1470 0038 9B68     		ldr	r3, [r3, #8]
 196:Middlewares/ST/STM32_USB_Device_Library/Core/Src/usbd_ctlreq.c **** 
 1471              		.loc 1 196 39 view .LVU415
 1472 003a 2100     		movs	r1, r4
 1473              	.LVL166:
 196:Middlewares/ST/STM32_USB_Device_Library/Core/Src/usbd_ctlreq.c **** 
 1474              		.loc 1 196 39 view .LVU416
 1475 003c 2800     		movs	r0, r5
 1476              	.LVL167:
 196:Middlewares/ST/STM32_USB_Device_Library/Core/Src/usbd_ctlreq.c **** 
 1477              		.loc 1 196 39 view .LVU417
 1478 003e 9847     		blx	r3
 1479              	.LVL168:
 198:Middlewares/ST/STM32_USB_Device_Library/Core/Src/usbd_ctlreq.c ****             {
 1480              		.loc 1 198 13 is_stmt 1 view .LVU418
 198:Middlewares/ST/STM32_USB_Device_Library/Core/Src/usbd_ctlreq.c ****             {
 1481              		.loc 1 198 21 is_stmt 0 view .LVU419
 1482 0040 E388     		ldrh	r3, [r4, #6]
 198:Middlewares/ST/STM32_USB_Device_Library/Core/Src/usbd_ctlreq.c ****             {
 1483              		.loc 1 198 16 view .LVU420
 1484 0042 002B     		cmp	r3, #0
 1485 0044 EAD1     		bne	.L111
 198:Middlewares/ST/STM32_USB_Device_Library/Core/Src/usbd_ctlreq.c ****             {
 1486              		.loc 1 198 38 discriminator 1 view .LVU421
 1487 0046 0028     		cmp	r0, #0
 1488 0048 E8D1     		bne	.L111
 200:Middlewares/ST/STM32_USB_Device_Library/Core/Src/usbd_ctlreq.c ****             }
 1489              		.loc 1 200 15 is_stmt 1 view .LVU422
 1490 004a 2800     		movs	r0, r5
 1491              	.LVL169:
 200:Middlewares/ST/STM32_USB_Device_Library/Core/Src/usbd_ctlreq.c ****             }
 1492              		.loc 1 200 15 is_stmt 0 view .LVU423
 1493 004c FFF7FEFF 		bl	USBD_CtlSendStatus
 1494              	.LVL170:
 1495 0050 E4E7     		b	.L111
 1496              	.LVL171:
 1497              	.L110:
 205:Middlewares/ST/STM32_USB_Device_Library/Core/Src/usbd_ctlreq.c ****           }
 1498              		.loc 1 205 13 is_stmt 1 view .LVU424
 1499 0052 2100     		movs	r1, r4
 1500              	.LVL172:
ARM GAS  /tmp/ccp4GKZ9.s 			page 50


 205:Middlewares/ST/STM32_USB_Device_Library/Core/Src/usbd_ctlreq.c ****           }
 1501              		.loc 1 205 13 is_stmt 0 view .LVU425
 1502 0054 2800     		movs	r0, r5
 1503              	.LVL173:
 205:Middlewares/ST/STM32_USB_Device_Library/Core/Src/usbd_ctlreq.c ****           }
 1504              		.loc 1 205 13 view .LVU426
 1505 0056 FFF7FEFF 		bl	USBD_CtlError
 1506              	.LVL174:
 1507 005a DFE7     		b	.L111
 1508              	.LVL175:
 1509              	.L109:
 210:Middlewares/ST/STM32_USB_Device_Library/Core/Src/usbd_ctlreq.c ****           break;
 1510              		.loc 1 210 11 is_stmt 1 view .LVU427
 1511 005c 2100     		movs	r1, r4
 1512              	.LVL176:
 210:Middlewares/ST/STM32_USB_Device_Library/Core/Src/usbd_ctlreq.c ****           break;
 1513              		.loc 1 210 11 is_stmt 0 view .LVU428
 1514 005e 2800     		movs	r0, r5
 1515              	.LVL177:
 210:Middlewares/ST/STM32_USB_Device_Library/Core/Src/usbd_ctlreq.c ****           break;
 1516              		.loc 1 210 11 view .LVU429
 1517 0060 FFF7FEFF 		bl	USBD_CtlError
 1518              	.LVL178:
 211:Middlewares/ST/STM32_USB_Device_Library/Core/Src/usbd_ctlreq.c ****       }
 1519              		.loc 1 211 11 is_stmt 1 view .LVU430
 1520 0064 DAE7     		b	.L111
 1521              		.cfi_endproc
 1522              	.LFE44:
 1524              		.section	.text.USBD_StdEPReq,"ax",%progbits
 1525              		.align	1
 1526              		.global	USBD_StdEPReq
 1527              		.syntax unified
 1528              		.code	16
 1529              		.thumb_func
 1531              	USBD_StdEPReq:
 1532              	.LVL179:
 1533              	.LFB45:
 232:Middlewares/ST/STM32_USB_Device_Library/Core/Src/usbd_ctlreq.c ****   USBD_EndpointTypeDef *pep;
 1534              		.loc 1 232 1 view -0
 1535              		.cfi_startproc
 1536              		@ args = 0, pretend = 0, frame = 0
 1537              		@ frame_needed = 0, uses_anonymous_args = 0
 232:Middlewares/ST/STM32_USB_Device_Library/Core/Src/usbd_ctlreq.c ****   USBD_EndpointTypeDef *pep;
 1538              		.loc 1 232 1 is_stmt 0 view .LVU432
 1539 0000 70B5     		push	{r4, r5, r6, lr}
 1540              	.LCFI11:
 1541              		.cfi_def_cfa_offset 16
 1542              		.cfi_offset 4, -16
 1543              		.cfi_offset 5, -12
 1544              		.cfi_offset 6, -8
 1545              		.cfi_offset 14, -4
 1546 0002 0500     		movs	r5, r0
 233:Middlewares/ST/STM32_USB_Device_Library/Core/Src/usbd_ctlreq.c ****   uint8_t   ep_addr;
 1547              		.loc 1 233 3 is_stmt 1 view .LVU433
 234:Middlewares/ST/STM32_USB_Device_Library/Core/Src/usbd_ctlreq.c ****   USBD_StatusTypeDef ret = USBD_OK;
 1548              		.loc 1 234 3 view .LVU434
 235:Middlewares/ST/STM32_USB_Device_Library/Core/Src/usbd_ctlreq.c ****   ep_addr  = LOBYTE(req->wIndex);
ARM GAS  /tmp/ccp4GKZ9.s 			page 51


 1549              		.loc 1 235 3 view .LVU435
 1550              	.LVL180:
 236:Middlewares/ST/STM32_USB_Device_Library/Core/Src/usbd_ctlreq.c **** 
 1551              		.loc 1 236 3 view .LVU436
 236:Middlewares/ST/STM32_USB_Device_Library/Core/Src/usbd_ctlreq.c **** 
 1552              		.loc 1 236 14 is_stmt 0 view .LVU437
 1553 0004 8888     		ldrh	r0, [r1, #4]
 1554              	.LVL181:
 236:Middlewares/ST/STM32_USB_Device_Library/Core/Src/usbd_ctlreq.c **** 
 1555              		.loc 1 236 12 view .LVU438
 1556 0006 0A79     		ldrb	r2, [r1, #4]
 1557              	.LVL182:
 238:Middlewares/ST/STM32_USB_Device_Library/Core/Src/usbd_ctlreq.c ****   {
 1558              		.loc 1 238 3 is_stmt 1 view .LVU439
 238:Middlewares/ST/STM32_USB_Device_Library/Core/Src/usbd_ctlreq.c ****   {
 1559              		.loc 1 238 14 is_stmt 0 view .LVU440
 1560 0008 0B78     		ldrb	r3, [r1]
 1561 000a 6024     		movs	r4, #96
 1562 000c 1C40     		ands	r4, r3
 238:Middlewares/ST/STM32_USB_Device_Library/Core/Src/usbd_ctlreq.c ****   {
 1563              		.loc 1 238 3 view .LVU441
 1564 000e 202C     		cmp	r4, #32
 1565 0010 08D0     		beq	.L113
 1566 0012 402C     		cmp	r4, #64
 1567 0014 06D0     		beq	.L113
 1568 0016 002C     		cmp	r4, #0
 1569 0018 0DD0     		beq	.L114
 390:Middlewares/ST/STM32_USB_Device_Library/Core/Src/usbd_ctlreq.c ****       break;
 1570              		.loc 1 390 7 is_stmt 1 view .LVU442
 1571 001a 2800     		movs	r0, r5
 1572 001c FFF7FEFF 		bl	USBD_CtlError
 1573              	.LVL183:
 391:Middlewares/ST/STM32_USB_Device_Library/Core/Src/usbd_ctlreq.c ****   }
 1574              		.loc 1 391 7 view .LVU443
 394:Middlewares/ST/STM32_USB_Device_Library/Core/Src/usbd_ctlreq.c **** }
 1575              		.loc 1 394 10 is_stmt 0 view .LVU444
 1576 0020 0024     		movs	r4, #0
 391:Middlewares/ST/STM32_USB_Device_Library/Core/Src/usbd_ctlreq.c ****   }
 1577              		.loc 1 391 7 view .LVU445
 1578 0022 06E0     		b	.L116
 1579              	.LVL184:
 1580              	.L113:
 242:Middlewares/ST/STM32_USB_Device_Library/Core/Src/usbd_ctlreq.c ****       break;
 1581              		.loc 1 242 7 is_stmt 1 view .LVU446
 242:Middlewares/ST/STM32_USB_Device_Library/Core/Src/usbd_ctlreq.c ****       break;
 1582              		.loc 1 242 11 is_stmt 0 view .LVU447
 1583 0024 AD23     		movs	r3, #173
 1584 0026 9B00     		lsls	r3, r3, #2
 1585 0028 EB58     		ldr	r3, [r5, r3]
 242:Middlewares/ST/STM32_USB_Device_Library/Core/Src/usbd_ctlreq.c ****       break;
 1586              		.loc 1 242 19 view .LVU448
 1587 002a 9B68     		ldr	r3, [r3, #8]
 242:Middlewares/ST/STM32_USB_Device_Library/Core/Src/usbd_ctlreq.c ****       break;
 1588              		.loc 1 242 7 view .LVU449
 1589 002c 2800     		movs	r0, r5
 1590 002e 9847     		blx	r3
 1591              	.LVL185:
ARM GAS  /tmp/ccp4GKZ9.s 			page 52


 243:Middlewares/ST/STM32_USB_Device_Library/Core/Src/usbd_ctlreq.c **** 
 1592              		.loc 1 243 7 is_stmt 1 view .LVU450
 394:Middlewares/ST/STM32_USB_Device_Library/Core/Src/usbd_ctlreq.c **** }
 1593              		.loc 1 394 10 is_stmt 0 view .LVU451
 1594 0030 0024     		movs	r4, #0
 1595              	.LVL186:
 1596              	.L116:
 395:Middlewares/ST/STM32_USB_Device_Library/Core/Src/usbd_ctlreq.c **** 
 1597              		.loc 1 395 1 view .LVU452
 1598 0032 2000     		movs	r0, r4
 1599              		@ sp needed
 1600              	.LVL187:
 395:Middlewares/ST/STM32_USB_Device_Library/Core/Src/usbd_ctlreq.c **** 
 1601              		.loc 1 395 1 view .LVU453
 1602 0034 70BD     		pop	{r4, r5, r6, pc}
 1603              	.LVL188:
 1604              	.L114:
 247:Middlewares/ST/STM32_USB_Device_Library/Core/Src/usbd_ctlreq.c ****       {
 1605              		.loc 1 247 7 is_stmt 1 view .LVU454
 247:Middlewares/ST/STM32_USB_Device_Library/Core/Src/usbd_ctlreq.c ****       {
 1606              		.loc 1 247 10 is_stmt 0 view .LVU455
 1607 0036 202C     		cmp	r4, #32
 1608 0038 0AD0     		beq	.L152
 254:Middlewares/ST/STM32_USB_Device_Library/Core/Src/usbd_ctlreq.c ****       {
 1609              		.loc 1 254 7 is_stmt 1 view .LVU456
 254:Middlewares/ST/STM32_USB_Device_Library/Core/Src/usbd_ctlreq.c ****       {
 1610              		.loc 1 254 18 is_stmt 0 view .LVU457
 1611 003a 4E78     		ldrb	r6, [r1, #1]
 254:Middlewares/ST/STM32_USB_Device_Library/Core/Src/usbd_ctlreq.c ****       {
 1612              		.loc 1 254 7 view .LVU458
 1613 003c 012E     		cmp	r6, #1
 1614 003e 3ED0     		beq	.L118
 1615 0040 032E     		cmp	r6, #3
 1616 0042 0DD0     		beq	.L119
 1617 0044 002E     		cmp	r6, #0
 1618 0046 64D0     		beq	.L120
 384:Middlewares/ST/STM32_USB_Device_Library/Core/Src/usbd_ctlreq.c ****           break;
 1619              		.loc 1 384 11 is_stmt 1 view .LVU459
 1620 0048 2800     		movs	r0, r5
 1621 004a FFF7FEFF 		bl	USBD_CtlError
 1622              	.LVL189:
 385:Middlewares/ST/STM32_USB_Device_Library/Core/Src/usbd_ctlreq.c ****       }
 1623              		.loc 1 385 11 view .LVU460
 1624 004e F0E7     		b	.L116
 1625              	.LVL190:
 1626              	.L152:
 249:Middlewares/ST/STM32_USB_Device_Library/Core/Src/usbd_ctlreq.c **** 
 1627              		.loc 1 249 9 view .LVU461
 249:Middlewares/ST/STM32_USB_Device_Library/Core/Src/usbd_ctlreq.c **** 
 1628              		.loc 1 249 39 is_stmt 0 view .LVU462
 1629 0050 AD23     		movs	r3, #173
 1630 0052 9B00     		lsls	r3, r3, #2
 1631 0054 EB58     		ldr	r3, [r5, r3]
 249:Middlewares/ST/STM32_USB_Device_Library/Core/Src/usbd_ctlreq.c **** 
 1632              		.loc 1 249 47 view .LVU463
 1633 0056 9B68     		ldr	r3, [r3, #8]
 249:Middlewares/ST/STM32_USB_Device_Library/Core/Src/usbd_ctlreq.c **** 
ARM GAS  /tmp/ccp4GKZ9.s 			page 53


 1634              		.loc 1 249 35 view .LVU464
 1635 0058 2800     		movs	r0, r5
 1636 005a 9847     		blx	r3
 1637              	.LVL191:
 249:Middlewares/ST/STM32_USB_Device_Library/Core/Src/usbd_ctlreq.c **** 
 1638              		.loc 1 249 35 view .LVU465
 1639 005c 0400     		movs	r4, r0
 1640              	.LVL192:
 251:Middlewares/ST/STM32_USB_Device_Library/Core/Src/usbd_ctlreq.c ****       }
 1641              		.loc 1 251 9 is_stmt 1 view .LVU466
 251:Middlewares/ST/STM32_USB_Device_Library/Core/Src/usbd_ctlreq.c ****       }
 1642              		.loc 1 251 16 is_stmt 0 view .LVU467
 1643 005e E8E7     		b	.L116
 1644              	.LVL193:
 1645              	.L119:
 257:Middlewares/ST/STM32_USB_Device_Library/Core/Src/usbd_ctlreq.c ****           {
 1646              		.loc 1 257 11 is_stmt 1 view .LVU468
 257:Middlewares/ST/STM32_USB_Device_Library/Core/Src/usbd_ctlreq.c ****           {
 1647              		.loc 1 257 23 is_stmt 0 view .LVU469
 1648 0060 A723     		movs	r3, #167
 1649 0062 9B00     		lsls	r3, r3, #2
 1650 0064 EB5C     		ldrb	r3, [r5, r3]
 257:Middlewares/ST/STM32_USB_Device_Library/Core/Src/usbd_ctlreq.c ****           {
 1651              		.loc 1 257 11 view .LVU470
 1652 0066 022B     		cmp	r3, #2
 1653 0068 05D0     		beq	.L122
 1654 006a 032B     		cmp	r3, #3
 1655 006c 14D0     		beq	.L123
 285:Middlewares/ST/STM32_USB_Device_Library/Core/Src/usbd_ctlreq.c ****               break;
 1656              		.loc 1 285 15 is_stmt 1 view .LVU471
 1657 006e 2800     		movs	r0, r5
 1658 0070 FFF7FEFF 		bl	USBD_CtlError
 1659              	.LVL194:
 286:Middlewares/ST/STM32_USB_Device_Library/Core/Src/usbd_ctlreq.c ****           }
 1660              		.loc 1 286 15 view .LVU472
 1661 0074 DDE7     		b	.L116
 1662              	.LVL195:
 1663              	.L122:
 260:Middlewares/ST/STM32_USB_Device_Library/Core/Src/usbd_ctlreq.c ****               {
 1664              		.loc 1 260 15 view .LVU473
 260:Middlewares/ST/STM32_USB_Device_Library/Core/Src/usbd_ctlreq.c ****               {
 1665              		.loc 1 260 18 is_stmt 0 view .LVU474
 1666 0076 002A     		cmp	r2, #0
 1667 0078 01D0     		beq	.L125
 260:Middlewares/ST/STM32_USB_Device_Library/Core/Src/usbd_ctlreq.c ****               {
 1668              		.loc 1 260 38 discriminator 1 view .LVU475
 1669 007a 802A     		cmp	r2, #128
 1670 007c 03D1     		bne	.L153
 1671              	.L125:
 267:Middlewares/ST/STM32_USB_Device_Library/Core/Src/usbd_ctlreq.c ****               }
 1672              		.loc 1 267 17 is_stmt 1 view .LVU476
 1673 007e 2800     		movs	r0, r5
 1674 0080 FFF7FEFF 		bl	USBD_CtlError
 1675              	.LVL196:
 267:Middlewares/ST/STM32_USB_Device_Library/Core/Src/usbd_ctlreq.c ****               }
 1676              		.loc 1 267 17 is_stmt 0 view .LVU477
 1677 0084 D5E7     		b	.L116
ARM GAS  /tmp/ccp4GKZ9.s 			page 54


 1678              	.LVL197:
 1679              	.L153:
 262:Middlewares/ST/STM32_USB_Device_Library/Core/Src/usbd_ctlreq.c ****                 USBD_LL_StallEP(pdev, 0x80U);
 1680              		.loc 1 262 17 is_stmt 1 view .LVU478
 1681 0086 1100     		movs	r1, r2
 1682              	.LVL198:
 262:Middlewares/ST/STM32_USB_Device_Library/Core/Src/usbd_ctlreq.c ****                 USBD_LL_StallEP(pdev, 0x80U);
 1683              		.loc 1 262 17 is_stmt 0 view .LVU479
 1684 0088 2800     		movs	r0, r5
 1685 008a FFF7FEFF 		bl	USBD_LL_StallEP
 1686              	.LVL199:
 263:Middlewares/ST/STM32_USB_Device_Library/Core/Src/usbd_ctlreq.c ****               }
 1687              		.loc 1 263 17 is_stmt 1 view .LVU480
 1688 008e 8021     		movs	r1, #128
 1689 0090 2800     		movs	r0, r5
 1690 0092 FFF7FEFF 		bl	USBD_LL_StallEP
 1691              	.LVL200:
 1692 0096 CCE7     		b	.L116
 1693              	.LVL201:
 1694              	.L123:
 272:Middlewares/ST/STM32_USB_Device_Library/Core/Src/usbd_ctlreq.c ****               {
 1695              		.loc 1 272 15 view .LVU481
 272:Middlewares/ST/STM32_USB_Device_Library/Core/Src/usbd_ctlreq.c ****               {
 1696              		.loc 1 272 22 is_stmt 0 view .LVU482
 1697 0098 4B88     		ldrh	r3, [r1, #2]
 272:Middlewares/ST/STM32_USB_Device_Library/Core/Src/usbd_ctlreq.c ****               {
 1698              		.loc 1 272 18 view .LVU483
 1699 009a 002B     		cmp	r3, #0
 1700 009c 06D1     		bne	.L126
 274:Middlewares/ST/STM32_USB_Device_Library/Core/Src/usbd_ctlreq.c ****                     (ep_addr != 0x80U) && (req->wLength == 0x00U))
 1701              		.loc 1 274 17 is_stmt 1 view .LVU484
 274:Middlewares/ST/STM32_USB_Device_Library/Core/Src/usbd_ctlreq.c ****                     (ep_addr != 0x80U) && (req->wLength == 0x00U))
 1702              		.loc 1 274 20 is_stmt 0 view .LVU485
 1703 009e 002A     		cmp	r2, #0
 1704 00a0 04D0     		beq	.L126
 274:Middlewares/ST/STM32_USB_Device_Library/Core/Src/usbd_ctlreq.c ****                     (ep_addr != 0x80U) && (req->wLength == 0x00U))
 1705              		.loc 1 274 40 discriminator 1 view .LVU486
 1706 00a2 802A     		cmp	r2, #128
 1707 00a4 02D0     		beq	.L126
 275:Middlewares/ST/STM32_USB_Device_Library/Core/Src/usbd_ctlreq.c ****                 {
 1708              		.loc 1 275 47 view .LVU487
 1709 00a6 CB88     		ldrh	r3, [r1, #6]
 275:Middlewares/ST/STM32_USB_Device_Library/Core/Src/usbd_ctlreq.c ****                 {
 1710              		.loc 1 275 40 view .LVU488
 1711 00a8 002B     		cmp	r3, #0
 1712 00aa 03D0     		beq	.L154
 1713              	.LVL202:
 1714              	.L126:
 280:Middlewares/ST/STM32_USB_Device_Library/Core/Src/usbd_ctlreq.c **** 
 1715              		.loc 1 280 15 is_stmt 1 view .LVU489
 1716 00ac 2800     		movs	r0, r5
 1717 00ae FFF7FEFF 		bl	USBD_CtlSendStatus
 1718              	.LVL203:
 282:Middlewares/ST/STM32_USB_Device_Library/Core/Src/usbd_ctlreq.c **** 
 1719              		.loc 1 282 15 view .LVU490
 1720 00b2 BEE7     		b	.L116
 1721              	.LVL204:
ARM GAS  /tmp/ccp4GKZ9.s 			page 55


 1722              	.L154:
 277:Middlewares/ST/STM32_USB_Device_Library/Core/Src/usbd_ctlreq.c ****                 }
 1723              		.loc 1 277 19 view .LVU491
 1724 00b4 1100     		movs	r1, r2
 1725              	.LVL205:
 277:Middlewares/ST/STM32_USB_Device_Library/Core/Src/usbd_ctlreq.c ****                 }
 1726              		.loc 1 277 19 is_stmt 0 view .LVU492
 1727 00b6 2800     		movs	r0, r5
 1728 00b8 FFF7FEFF 		bl	USBD_LL_StallEP
 1729              	.LVL206:
 277:Middlewares/ST/STM32_USB_Device_Library/Core/Src/usbd_ctlreq.c ****                 }
 1730              		.loc 1 277 19 view .LVU493
 1731 00bc F6E7     		b	.L126
 1732              	.LVL207:
 1733              	.L118:
 292:Middlewares/ST/STM32_USB_Device_Library/Core/Src/usbd_ctlreq.c ****           {
 1734              		.loc 1 292 11 is_stmt 1 view .LVU494
 292:Middlewares/ST/STM32_USB_Device_Library/Core/Src/usbd_ctlreq.c ****           {
 1735              		.loc 1 292 23 is_stmt 0 view .LVU495
 1736 00be A723     		movs	r3, #167
 1737 00c0 9B00     		lsls	r3, r3, #2
 1738 00c2 EB5C     		ldrb	r3, [r5, r3]
 292:Middlewares/ST/STM32_USB_Device_Library/Core/Src/usbd_ctlreq.c ****           {
 1739              		.loc 1 292 11 view .LVU496
 1740 00c4 022B     		cmp	r3, #2
 1741 00c6 05D0     		beq	.L127
 1742 00c8 032B     		cmp	r3, #3
 1743 00ca 14D0     		beq	.L128
 318:Middlewares/ST/STM32_USB_Device_Library/Core/Src/usbd_ctlreq.c ****               break;
 1744              		.loc 1 318 15 is_stmt 1 view .LVU497
 1745 00cc 2800     		movs	r0, r5
 1746 00ce FFF7FEFF 		bl	USBD_CtlError
 1747              	.LVL208:
 319:Middlewares/ST/STM32_USB_Device_Library/Core/Src/usbd_ctlreq.c ****           }
 1748              		.loc 1 319 15 view .LVU498
 1749 00d2 AEE7     		b	.L116
 1750              	.LVL209:
 1751              	.L127:
 295:Middlewares/ST/STM32_USB_Device_Library/Core/Src/usbd_ctlreq.c ****               {
 1752              		.loc 1 295 15 view .LVU499
 295:Middlewares/ST/STM32_USB_Device_Library/Core/Src/usbd_ctlreq.c ****               {
 1753              		.loc 1 295 18 is_stmt 0 view .LVU500
 1754 00d4 002A     		cmp	r2, #0
 1755 00d6 01D0     		beq	.L130
 295:Middlewares/ST/STM32_USB_Device_Library/Core/Src/usbd_ctlreq.c ****               {
 1756              		.loc 1 295 38 discriminator 1 view .LVU501
 1757 00d8 802A     		cmp	r2, #128
 1758 00da 03D1     		bne	.L155
 1759              	.L130:
 302:Middlewares/ST/STM32_USB_Device_Library/Core/Src/usbd_ctlreq.c ****               }
 1760              		.loc 1 302 17 is_stmt 1 view .LVU502
 1761 00dc 2800     		movs	r0, r5
 1762 00de FFF7FEFF 		bl	USBD_CtlError
 1763              	.LVL210:
 302:Middlewares/ST/STM32_USB_Device_Library/Core/Src/usbd_ctlreq.c ****               }
 1764              		.loc 1 302 17 is_stmt 0 view .LVU503
 1765 00e2 A6E7     		b	.L116
ARM GAS  /tmp/ccp4GKZ9.s 			page 56


 1766              	.LVL211:
 1767              	.L155:
 297:Middlewares/ST/STM32_USB_Device_Library/Core/Src/usbd_ctlreq.c ****                 USBD_LL_StallEP(pdev, 0x80U);
 1768              		.loc 1 297 17 is_stmt 1 view .LVU504
 1769 00e4 1100     		movs	r1, r2
 1770              	.LVL212:
 297:Middlewares/ST/STM32_USB_Device_Library/Core/Src/usbd_ctlreq.c ****                 USBD_LL_StallEP(pdev, 0x80U);
 1771              		.loc 1 297 17 is_stmt 0 view .LVU505
 1772 00e6 2800     		movs	r0, r5
 1773 00e8 FFF7FEFF 		bl	USBD_LL_StallEP
 1774              	.LVL213:
 298:Middlewares/ST/STM32_USB_Device_Library/Core/Src/usbd_ctlreq.c ****               }
 1775              		.loc 1 298 17 is_stmt 1 view .LVU506
 1776 00ec 8021     		movs	r1, #128
 1777 00ee 2800     		movs	r0, r5
 1778 00f0 FFF7FEFF 		bl	USBD_LL_StallEP
 1779              	.LVL214:
 1780 00f4 9DE7     		b	.L116
 1781              	.LVL215:
 1782              	.L128:
 307:Middlewares/ST/STM32_USB_Device_Library/Core/Src/usbd_ctlreq.c ****               {
 1783              		.loc 1 307 15 view .LVU507
 307:Middlewares/ST/STM32_USB_Device_Library/Core/Src/usbd_ctlreq.c ****               {
 1784              		.loc 1 307 22 is_stmt 0 view .LVU508
 1785 00f6 4B88     		ldrh	r3, [r1, #2]
 307:Middlewares/ST/STM32_USB_Device_Library/Core/Src/usbd_ctlreq.c ****               {
 1786              		.loc 1 307 18 view .LVU509
 1787 00f8 002B     		cmp	r3, #0
 1788 00fa 9AD1     		bne	.L116
 309:Middlewares/ST/STM32_USB_Device_Library/Core/Src/usbd_ctlreq.c ****                 {
 1789              		.loc 1 309 17 is_stmt 1 view .LVU510
 309:Middlewares/ST/STM32_USB_Device_Library/Core/Src/usbd_ctlreq.c ****                 {
 1790              		.loc 1 309 20 is_stmt 0 view .LVU511
 1791 00fc 5306     		lsls	r3, r2, #25
 1792 00fe 03D1     		bne	.L156
 1793              	.LVL216:
 1794              	.L131:
 313:Middlewares/ST/STM32_USB_Device_Library/Core/Src/usbd_ctlreq.c ****               }
 1795              		.loc 1 313 17 is_stmt 1 view .LVU512
 1796 0100 2800     		movs	r0, r5
 1797 0102 FFF7FEFF 		bl	USBD_CtlSendStatus
 1798              	.LVL217:
 1799 0106 94E7     		b	.L116
 1800              	.LVL218:
 1801              	.L156:
 311:Middlewares/ST/STM32_USB_Device_Library/Core/Src/usbd_ctlreq.c ****                 }
 1802              		.loc 1 311 19 view .LVU513
 1803 0108 1100     		movs	r1, r2
 1804              	.LVL219:
 311:Middlewares/ST/STM32_USB_Device_Library/Core/Src/usbd_ctlreq.c ****                 }
 1805              		.loc 1 311 19 is_stmt 0 view .LVU514
 1806 010a 2800     		movs	r0, r5
 1807 010c FFF7FEFF 		bl	USBD_LL_ClearStallEP
 1808              	.LVL220:
 311:Middlewares/ST/STM32_USB_Device_Library/Core/Src/usbd_ctlreq.c ****                 }
 1809              		.loc 1 311 19 view .LVU515
 1810 0110 F6E7     		b	.L131
ARM GAS  /tmp/ccp4GKZ9.s 			page 57


 1811              	.LVL221:
 1812              	.L120:
 324:Middlewares/ST/STM32_USB_Device_Library/Core/Src/usbd_ctlreq.c ****           {
 1813              		.loc 1 324 11 is_stmt 1 view .LVU516
 324:Middlewares/ST/STM32_USB_Device_Library/Core/Src/usbd_ctlreq.c ****           {
 1814              		.loc 1 324 23 is_stmt 0 view .LVU517
 1815 0112 A723     		movs	r3, #167
 1816 0114 9B00     		lsls	r3, r3, #2
 1817 0116 EB5C     		ldrb	r3, [r5, r3]
 324:Middlewares/ST/STM32_USB_Device_Library/Core/Src/usbd_ctlreq.c ****           {
 1818              		.loc 1 324 11 view .LVU518
 1819 0118 022B     		cmp	r3, #2
 1820 011a 06D0     		beq	.L132
 1821 011c 032B     		cmp	r3, #3
 1822 011e 29D0     		beq	.L133
 378:Middlewares/ST/STM32_USB_Device_Library/Core/Src/usbd_ctlreq.c ****               break;
 1823              		.loc 1 378 15 is_stmt 1 view .LVU519
 1824 0120 2800     		movs	r0, r5
 1825 0122 FFF7FEFF 		bl	USBD_CtlError
 1826              	.LVL222:
 379:Middlewares/ST/STM32_USB_Device_Library/Core/Src/usbd_ctlreq.c ****           }
 1827              		.loc 1 379 15 view .LVU520
 394:Middlewares/ST/STM32_USB_Device_Library/Core/Src/usbd_ctlreq.c **** }
 1828              		.loc 1 394 10 is_stmt 0 view .LVU521
 1829 0126 3400     		movs	r4, r6
 379:Middlewares/ST/STM32_USB_Device_Library/Core/Src/usbd_ctlreq.c ****           }
 1830              		.loc 1 379 15 view .LVU522
 1831 0128 83E7     		b	.L116
 1832              	.LVL223:
 1833              	.L132:
 327:Middlewares/ST/STM32_USB_Device_Library/Core/Src/usbd_ctlreq.c ****               {
 1834              		.loc 1 327 15 is_stmt 1 view .LVU523
 327:Middlewares/ST/STM32_USB_Device_Library/Core/Src/usbd_ctlreq.c ****               {
 1835              		.loc 1 327 18 is_stmt 0 view .LVU524
 1836 012a 002A     		cmp	r2, #0
 1837 012c 01D0     		beq	.L135
 327:Middlewares/ST/STM32_USB_Device_Library/Core/Src/usbd_ctlreq.c ****               {
 1838              		.loc 1 327 38 discriminator 1 view .LVU525
 1839 012e 802A     		cmp	r2, #128
 1840 0130 12D1     		bne	.L157
 1841              	.L135:
 332:Middlewares/ST/STM32_USB_Device_Library/Core/Src/usbd_ctlreq.c ****                     &pdev->ep_out[ep_addr & 0x7FU];
 1842              		.loc 1 332 15 is_stmt 1 view .LVU526
 332:Middlewares/ST/STM32_USB_Device_Library/Core/Src/usbd_ctlreq.c ****                     &pdev->ep_out[ep_addr & 0x7FU];
 1843              		.loc 1 332 82 is_stmt 0 view .LVU527
 1844 0132 0006     		lsls	r0, r0, #24
 1845 0134 15D4     		bmi	.L158
 333:Middlewares/ST/STM32_USB_Device_Library/Core/Src/usbd_ctlreq.c **** 
 1846              		.loc 1 333 43 view .LVU528
 1847 0136 7F23     		movs	r3, #127
 1848 0138 1340     		ands	r3, r2
 332:Middlewares/ST/STM32_USB_Device_Library/Core/Src/usbd_ctlreq.c ****                     &pdev->ep_out[ep_addr & 0x7FU];
 1849              		.loc 1 332 82 discriminator 2 view .LVU529
 1850 013a 9900     		lsls	r1, r3, #2
 1851              	.LVL224:
 332:Middlewares/ST/STM32_USB_Device_Library/Core/Src/usbd_ctlreq.c ****                     &pdev->ep_out[ep_addr & 0x7FU];
 1852              		.loc 1 332 82 discriminator 2 view .LVU530
ARM GAS  /tmp/ccp4GKZ9.s 			page 58


 1853 013c C918     		adds	r1, r1, r3
 1854 013e 8900     		lsls	r1, r1, #2
 1855 0140 5131     		adds	r1, r1, #81
 1856 0142 FF31     		adds	r1, r1, #255
 1857 0144 6918     		adds	r1, r5, r1
 1858 0146 0431     		adds	r1, r1, #4
 1859              	.L137:
 1860              	.LVL225:
 335:Middlewares/ST/STM32_USB_Device_Library/Core/Src/usbd_ctlreq.c **** 
 1861              		.loc 1 335 15 is_stmt 1 view .LVU531
 335:Middlewares/ST/STM32_USB_Device_Library/Core/Src/usbd_ctlreq.c **** 
 1862              		.loc 1 335 27 is_stmt 0 view .LVU532
 1863 0148 0023     		movs	r3, #0
 1864 014a 0B60     		str	r3, [r1]
 337:Middlewares/ST/STM32_USB_Device_Library/Core/Src/usbd_ctlreq.c ****               break;
 1865              		.loc 1 337 15 is_stmt 1 view .LVU533
 1866 014c 0222     		movs	r2, #2
 1867              	.LVL226:
 337:Middlewares/ST/STM32_USB_Device_Library/Core/Src/usbd_ctlreq.c ****               break;
 1868              		.loc 1 337 15 is_stmt 0 view .LVU534
 1869 014e 2800     		movs	r0, r5
 1870 0150 FFF7FEFF 		bl	USBD_CtlSendData
 1871              	.LVL227:
 338:Middlewares/ST/STM32_USB_Device_Library/Core/Src/usbd_ctlreq.c **** 
 1872              		.loc 1 338 15 is_stmt 1 view .LVU535
 394:Middlewares/ST/STM32_USB_Device_Library/Core/Src/usbd_ctlreq.c **** }
 1873              		.loc 1 394 10 is_stmt 0 view .LVU536
 1874 0154 3400     		movs	r4, r6
 338:Middlewares/ST/STM32_USB_Device_Library/Core/Src/usbd_ctlreq.c **** 
 1875              		.loc 1 338 15 view .LVU537
 1876 0156 6CE7     		b	.L116
 1877              	.LVL228:
 1878              	.L157:
 329:Middlewares/ST/STM32_USB_Device_Library/Core/Src/usbd_ctlreq.c ****                 break;
 1879              		.loc 1 329 17 is_stmt 1 view .LVU538
 1880 0158 2800     		movs	r0, r5
 1881 015a FFF7FEFF 		bl	USBD_CtlError
 1882              	.LVL229:
 330:Middlewares/ST/STM32_USB_Device_Library/Core/Src/usbd_ctlreq.c ****               }
 1883              		.loc 1 330 17 view .LVU539
 394:Middlewares/ST/STM32_USB_Device_Library/Core/Src/usbd_ctlreq.c **** }
 1884              		.loc 1 394 10 is_stmt 0 view .LVU540
 1885 015e 3400     		movs	r4, r6
 330:Middlewares/ST/STM32_USB_Device_Library/Core/Src/usbd_ctlreq.c ****               }
 1886              		.loc 1 330 17 view .LVU541
 1887 0160 67E7     		b	.L116
 1888              	.LVL230:
 1889              	.L158:
 332:Middlewares/ST/STM32_USB_Device_Library/Core/Src/usbd_ctlreq.c ****                     &pdev->ep_out[ep_addr & 0x7FU];
 1890              		.loc 1 332 73 discriminator 1 view .LVU542
 1891 0162 7F23     		movs	r3, #127
 1892 0164 1340     		ands	r3, r2
 332:Middlewares/ST/STM32_USB_Device_Library/Core/Src/usbd_ctlreq.c ****                     &pdev->ep_out[ep_addr & 0x7FU];
 1893              		.loc 1 332 82 discriminator 1 view .LVU543
 1894 0166 9900     		lsls	r1, r3, #2
 1895              	.LVL231:
 332:Middlewares/ST/STM32_USB_Device_Library/Core/Src/usbd_ctlreq.c ****                     &pdev->ep_out[ep_addr & 0x7FU];
ARM GAS  /tmp/ccp4GKZ9.s 			page 59


 1896              		.loc 1 332 82 discriminator 1 view .LVU544
 1897 0168 C918     		adds	r1, r1, r3
 1898 016a 8900     		lsls	r1, r1, #2
 1899 016c 1031     		adds	r1, r1, #16
 1900 016e 6918     		adds	r1, r5, r1
 1901 0170 0431     		adds	r1, r1, #4
 1902 0172 E9E7     		b	.L137
 1903              	.LVL232:
 1904              	.L133:
 341:Middlewares/ST/STM32_USB_Device_Library/Core/Src/usbd_ctlreq.c ****               {
 1905              		.loc 1 341 15 is_stmt 1 view .LVU545
 341:Middlewares/ST/STM32_USB_Device_Library/Core/Src/usbd_ctlreq.c ****               {
 1906              		.loc 1 341 37 is_stmt 0 view .LVU546
 1907 0174 44B2     		sxtb	r4, r0
 341:Middlewares/ST/STM32_USB_Device_Library/Core/Src/usbd_ctlreq.c ****               {
 1908              		.loc 1 341 18 view .LVU547
 1909 0176 0006     		lsls	r0, r0, #24
 1910 0178 22D4     		bmi	.L159
 351:Middlewares/ST/STM32_USB_Device_Library/Core/Src/usbd_ctlreq.c ****                 {
 1911              		.loc 1 351 17 is_stmt 1 view .LVU548
 351:Middlewares/ST/STM32_USB_Device_Library/Core/Src/usbd_ctlreq.c ****                 {
 1912              		.loc 1 351 42 is_stmt 0 view .LVU549
 1913 017a 0F20     		movs	r0, #15
 1914 017c 1040     		ands	r0, r2
 351:Middlewares/ST/STM32_USB_Device_Library/Core/Src/usbd_ctlreq.c ****                 {
 1915              		.loc 1 351 49 view .LVU550
 1916 017e 8300     		lsls	r3, r0, #2
 1917 0180 1B18     		adds	r3, r3, r0
 1918 0182 9B00     		lsls	r3, r3, #2
 1919 0184 EB18     		adds	r3, r5, r3
 1920 0186 5933     		adds	r3, r3, #89
 1921 0188 FF33     		adds	r3, r3, #255
 1922 018a 1B68     		ldr	r3, [r3]
 351:Middlewares/ST/STM32_USB_Device_Library/Core/Src/usbd_ctlreq.c ****                 {
 1923              		.loc 1 351 20 view .LVU551
 1924 018c 002B     		cmp	r3, #0
 1925 018e 25D0     		beq	.L160
 1926              	.L139:
 358:Middlewares/ST/STM32_USB_Device_Library/Core/Src/usbd_ctlreq.c ****                     &pdev->ep_out[ep_addr & 0x7FU];
 1927              		.loc 1 358 15 is_stmt 1 view .LVU552
 358:Middlewares/ST/STM32_USB_Device_Library/Core/Src/usbd_ctlreq.c ****                     &pdev->ep_out[ep_addr & 0x7FU];
 1928              		.loc 1 358 82 is_stmt 0 view .LVU553
 1929 0190 002C     		cmp	r4, #0
 1930 0192 28DB     		blt	.L161
 359:Middlewares/ST/STM32_USB_Device_Library/Core/Src/usbd_ctlreq.c **** 
 1931              		.loc 1 359 43 view .LVU554
 1932 0194 7F23     		movs	r3, #127
 1933 0196 1340     		ands	r3, r2
 358:Middlewares/ST/STM32_USB_Device_Library/Core/Src/usbd_ctlreq.c ****                     &pdev->ep_out[ep_addr & 0x7FU];
 1934              		.loc 1 358 82 discriminator 2 view .LVU555
 1935 0198 9C00     		lsls	r4, r3, #2
 1936 019a E418     		adds	r4, r4, r3
 1937 019c A400     		lsls	r4, r4, #2
 1938 019e 5134     		adds	r4, r4, #81
 1939 01a0 FF34     		adds	r4, r4, #255
 1940 01a2 2C19     		adds	r4, r5, r4
 1941 01a4 0434     		adds	r4, r4, #4
ARM GAS  /tmp/ccp4GKZ9.s 			page 60


 1942              	.L141:
 1943              	.LVL233:
 361:Middlewares/ST/STM32_USB_Device_Library/Core/Src/usbd_ctlreq.c ****               {
 1944              		.loc 1 361 15 is_stmt 1 view .LVU556
 361:Middlewares/ST/STM32_USB_Device_Library/Core/Src/usbd_ctlreq.c ****               {
 1945              		.loc 1 361 18 is_stmt 0 view .LVU557
 1946 01a6 002A     		cmp	r2, #0
 1947 01a8 01D0     		beq	.L142
 361:Middlewares/ST/STM32_USB_Device_Library/Core/Src/usbd_ctlreq.c ****               {
 1948              		.loc 1 361 38 discriminator 1 view .LVU558
 1949 01aa 802A     		cmp	r2, #128
 1950 01ac 24D1     		bne	.L143
 1951              	.L142:
 363:Middlewares/ST/STM32_USB_Device_Library/Core/Src/usbd_ctlreq.c ****               }
 1952              		.loc 1 363 17 is_stmt 1 view .LVU559
 363:Middlewares/ST/STM32_USB_Device_Library/Core/Src/usbd_ctlreq.c ****               }
 1953              		.loc 1 363 29 is_stmt 0 view .LVU560
 1954 01ae 0023     		movs	r3, #0
 1955 01b0 2360     		str	r3, [r4]
 1956              	.LVL234:
 1957              	.L144:
 374:Middlewares/ST/STM32_USB_Device_Library/Core/Src/usbd_ctlreq.c ****               break;
 1958              		.loc 1 374 15 is_stmt 1 view .LVU561
 1959 01b2 0222     		movs	r2, #2
 1960 01b4 2100     		movs	r1, r4
 1961 01b6 2800     		movs	r0, r5
 1962 01b8 FFF7FEFF 		bl	USBD_CtlSendData
 1963              	.LVL235:
 375:Middlewares/ST/STM32_USB_Device_Library/Core/Src/usbd_ctlreq.c **** 
 1964              		.loc 1 375 15 view .LVU562
 394:Middlewares/ST/STM32_USB_Device_Library/Core/Src/usbd_ctlreq.c **** }
 1965              		.loc 1 394 10 is_stmt 0 view .LVU563
 1966 01bc 3400     		movs	r4, r6
 1967              	.LVL236:
 375:Middlewares/ST/STM32_USB_Device_Library/Core/Src/usbd_ctlreq.c **** 
 1968              		.loc 1 375 15 view .LVU564
 1969 01be 38E7     		b	.L116
 1970              	.LVL237:
 1971              	.L159:
 343:Middlewares/ST/STM32_USB_Device_Library/Core/Src/usbd_ctlreq.c ****                 {
 1972              		.loc 1 343 17 is_stmt 1 view .LVU565
 343:Middlewares/ST/STM32_USB_Device_Library/Core/Src/usbd_ctlreq.c ****                 {
 1973              		.loc 1 343 41 is_stmt 0 view .LVU566
 1974 01c0 0F20     		movs	r0, #15
 1975 01c2 1040     		ands	r0, r2
 343:Middlewares/ST/STM32_USB_Device_Library/Core/Src/usbd_ctlreq.c ****                 {
 1976              		.loc 1 343 48 view .LVU567
 1977 01c4 8300     		lsls	r3, r0, #2
 1978 01c6 1B18     		adds	r3, r3, r0
 1979 01c8 9B00     		lsls	r3, r3, #2
 1980 01ca EB18     		adds	r3, r5, r3
 1981 01cc 9B69     		ldr	r3, [r3, #24]
 343:Middlewares/ST/STM32_USB_Device_Library/Core/Src/usbd_ctlreq.c ****                 {
 1982              		.loc 1 343 20 view .LVU568
 1983 01ce 002B     		cmp	r3, #0
 1984 01d0 DED1     		bne	.L139
 345:Middlewares/ST/STM32_USB_Device_Library/Core/Src/usbd_ctlreq.c ****                   break;
ARM GAS  /tmp/ccp4GKZ9.s 			page 61


 1985              		.loc 1 345 19 is_stmt 1 view .LVU569
 1986 01d2 2800     		movs	r0, r5
 1987 01d4 FFF7FEFF 		bl	USBD_CtlError
 1988              	.LVL238:
 346:Middlewares/ST/STM32_USB_Device_Library/Core/Src/usbd_ctlreq.c ****                 }
 1989              		.loc 1 346 19 view .LVU570
 394:Middlewares/ST/STM32_USB_Device_Library/Core/Src/usbd_ctlreq.c **** }
 1990              		.loc 1 394 10 is_stmt 0 view .LVU571
 1991 01d8 3400     		movs	r4, r6
 346:Middlewares/ST/STM32_USB_Device_Library/Core/Src/usbd_ctlreq.c ****                 }
 1992              		.loc 1 346 19 view .LVU572
 1993 01da 2AE7     		b	.L116
 1994              	.LVL239:
 1995              	.L160:
 353:Middlewares/ST/STM32_USB_Device_Library/Core/Src/usbd_ctlreq.c ****                   break;
 1996              		.loc 1 353 19 is_stmt 1 view .LVU573
 1997 01dc 2800     		movs	r0, r5
 1998 01de FFF7FEFF 		bl	USBD_CtlError
 1999              	.LVL240:
 354:Middlewares/ST/STM32_USB_Device_Library/Core/Src/usbd_ctlreq.c ****                 }
 2000              		.loc 1 354 19 view .LVU574
 394:Middlewares/ST/STM32_USB_Device_Library/Core/Src/usbd_ctlreq.c **** }
 2001              		.loc 1 394 10 is_stmt 0 view .LVU575
 2002 01e2 3400     		movs	r4, r6
 354:Middlewares/ST/STM32_USB_Device_Library/Core/Src/usbd_ctlreq.c ****                 }
 2003              		.loc 1 354 19 view .LVU576
 2004 01e4 25E7     		b	.L116
 2005              	.LVL241:
 2006              	.L161:
 358:Middlewares/ST/STM32_USB_Device_Library/Core/Src/usbd_ctlreq.c ****                     &pdev->ep_out[ep_addr & 0x7FU];
 2007              		.loc 1 358 73 discriminator 1 view .LVU577
 2008 01e6 7F23     		movs	r3, #127
 2009 01e8 1340     		ands	r3, r2
 358:Middlewares/ST/STM32_USB_Device_Library/Core/Src/usbd_ctlreq.c ****                     &pdev->ep_out[ep_addr & 0x7FU];
 2010              		.loc 1 358 82 discriminator 1 view .LVU578
 2011 01ea 9C00     		lsls	r4, r3, #2
 2012 01ec E418     		adds	r4, r4, r3
 2013 01ee A400     		lsls	r4, r4, #2
 2014 01f0 1034     		adds	r4, r4, #16
 2015 01f2 2C19     		adds	r4, r5, r4
 2016 01f4 0434     		adds	r4, r4, #4
 2017 01f6 D6E7     		b	.L141
 2018              	.LVL242:
 2019              	.L143:
 365:Middlewares/ST/STM32_USB_Device_Library/Core/Src/usbd_ctlreq.c ****               {
 2020              		.loc 1 365 20 is_stmt 1 view .LVU579
 365:Middlewares/ST/STM32_USB_Device_Library/Core/Src/usbd_ctlreq.c ****               {
 2021              		.loc 1 365 24 is_stmt 0 view .LVU580
 2022 01f8 1100     		movs	r1, r2
 2023              	.LVL243:
 365:Middlewares/ST/STM32_USB_Device_Library/Core/Src/usbd_ctlreq.c ****               {
 2024              		.loc 1 365 24 view .LVU581
 2025 01fa 2800     		movs	r0, r5
 2026 01fc FFF7FEFF 		bl	USBD_LL_IsStallEP
 2027              	.LVL244:
 365:Middlewares/ST/STM32_USB_Device_Library/Core/Src/usbd_ctlreq.c ****               {
 2028              		.loc 1 365 23 discriminator 1 view .LVU582
ARM GAS  /tmp/ccp4GKZ9.s 			page 62


 2029 0200 0028     		cmp	r0, #0
 2030 0202 02D0     		beq	.L145
 367:Middlewares/ST/STM32_USB_Device_Library/Core/Src/usbd_ctlreq.c ****               }
 2031              		.loc 1 367 17 is_stmt 1 view .LVU583
 367:Middlewares/ST/STM32_USB_Device_Library/Core/Src/usbd_ctlreq.c ****               }
 2032              		.loc 1 367 29 is_stmt 0 view .LVU584
 2033 0204 0123     		movs	r3, #1
 2034 0206 2360     		str	r3, [r4]
 2035 0208 D3E7     		b	.L144
 2036              	.L145:
 371:Middlewares/ST/STM32_USB_Device_Library/Core/Src/usbd_ctlreq.c ****               }
 2037              		.loc 1 371 17 is_stmt 1 view .LVU585
 371:Middlewares/ST/STM32_USB_Device_Library/Core/Src/usbd_ctlreq.c ****               }
 2038              		.loc 1 371 29 is_stmt 0 view .LVU586
 2039 020a 0023     		movs	r3, #0
 2040 020c 2360     		str	r3, [r4]
 2041 020e D0E7     		b	.L144
 2042              		.cfi_endproc
 2043              	.LFE45:
 2045              		.section	.text.USBD_GetString,"ax",%progbits
 2046              		.align	1
 2047              		.global	USBD_GetString
 2048              		.syntax unified
 2049              		.code	16
 2050              		.thumb_func
 2052              	USBD_GetString:
 2053              	.LVL245:
 2054              	.LFB55:
 869:Middlewares/ST/STM32_USB_Device_Library/Core/Src/usbd_ctlreq.c ****   uint8_t idx = 0U;
 2055              		.loc 1 869 1 is_stmt 1 view -0
 2056              		.cfi_startproc
 2057              		@ args = 0, pretend = 0, frame = 0
 2058              		@ frame_needed = 0, uses_anonymous_args = 0
 869:Middlewares/ST/STM32_USB_Device_Library/Core/Src/usbd_ctlreq.c ****   uint8_t idx = 0U;
 2059              		.loc 1 869 1 is_stmt 0 view .LVU588
 2060 0000 70B5     		push	{r4, r5, r6, lr}
 2061              	.LCFI12:
 2062              		.cfi_def_cfa_offset 16
 2063              		.cfi_offset 4, -16
 2064              		.cfi_offset 5, -12
 2065              		.cfi_offset 6, -8
 2066              		.cfi_offset 14, -4
 2067 0002 0400     		movs	r4, r0
 2068 0004 0D00     		movs	r5, r1
 2069 0006 1600     		movs	r6, r2
 870:Middlewares/ST/STM32_USB_Device_Library/Core/Src/usbd_ctlreq.c **** 
 2070              		.loc 1 870 3 is_stmt 1 view .LVU589
 2071              	.LVL246:
 872:Middlewares/ST/STM32_USB_Device_Library/Core/Src/usbd_ctlreq.c ****   {
 2072              		.loc 1 872 3 view .LVU590
 872:Middlewares/ST/STM32_USB_Device_Library/Core/Src/usbd_ctlreq.c ****   {
 2073              		.loc 1 872 6 is_stmt 0 view .LVU591
 2074 0008 0028     		cmp	r0, #0
 2075 000a 16D0     		beq	.L162
 874:Middlewares/ST/STM32_USB_Device_Library/Core/Src/usbd_ctlreq.c ****     unicode[idx++] = *(uint8_t *)(void *)len;
 2076              		.loc 1 874 5 is_stmt 1 view .LVU592
 874:Middlewares/ST/STM32_USB_Device_Library/Core/Src/usbd_ctlreq.c ****     unicode[idx++] = *(uint8_t *)(void *)len;
ARM GAS  /tmp/ccp4GKZ9.s 			page 63


 2077              		.loc 1 874 22 is_stmt 0 view .LVU593
 2078 000c FFF7FEFF 		bl	USBD_GetLen
 2079              	.LVL247:
 874:Middlewares/ST/STM32_USB_Device_Library/Core/Src/usbd_ctlreq.c ****     unicode[idx++] = *(uint8_t *)(void *)len;
 2080              		.loc 1 874 45 discriminator 1 view .LVU594
 2081 0010 0130     		adds	r0, r0, #1
 874:Middlewares/ST/STM32_USB_Device_Library/Core/Src/usbd_ctlreq.c ****     unicode[idx++] = *(uint8_t *)(void *)len;
 2082              		.loc 1 874 10 discriminator 1 view .LVU595
 2083 0012 4300     		lsls	r3, r0, #1
 2084 0014 9BB2     		uxth	r3, r3
 2085 0016 3380     		strh	r3, [r6]
 875:Middlewares/ST/STM32_USB_Device_Library/Core/Src/usbd_ctlreq.c ****     unicode[idx++] = USB_DESC_TYPE_STRING;
 2086              		.loc 1 875 5 is_stmt 1 view .LVU596
 2087              	.LVL248:
 875:Middlewares/ST/STM32_USB_Device_Library/Core/Src/usbd_ctlreq.c ****     unicode[idx++] = USB_DESC_TYPE_STRING;
 2088              		.loc 1 875 20 is_stmt 0 view .LVU597
 2089 0018 2B70     		strb	r3, [r5]
 876:Middlewares/ST/STM32_USB_Device_Library/Core/Src/usbd_ctlreq.c **** 
 2090              		.loc 1 876 5 is_stmt 1 view .LVU598
 2091              	.LVL249:
 876:Middlewares/ST/STM32_USB_Device_Library/Core/Src/usbd_ctlreq.c **** 
 2092              		.loc 1 876 20 is_stmt 0 view .LVU599
 2093 001a 0323     		movs	r3, #3
 2094 001c 6B70     		strb	r3, [r5, #1]
 878:Middlewares/ST/STM32_USB_Device_Library/Core/Src/usbd_ctlreq.c ****     {
 2095              		.loc 1 878 5 is_stmt 1 view .LVU600
 876:Middlewares/ST/STM32_USB_Device_Library/Core/Src/usbd_ctlreq.c **** 
 2096              		.loc 1 876 16 is_stmt 0 view .LVU601
 2097 001e 013B     		subs	r3, r3, #1
 878:Middlewares/ST/STM32_USB_Device_Library/Core/Src/usbd_ctlreq.c ****     {
 2098              		.loc 1 878 11 view .LVU602
 2099 0020 08E0     		b	.L164
 2100              	.LVL250:
 2101              	.L165:
 880:Middlewares/ST/STM32_USB_Device_Library/Core/Src/usbd_ctlreq.c ****       unicode[idx++] =  0U;
 2102              		.loc 1 880 7 is_stmt 1 view .LVU603
 880:Middlewares/ST/STM32_USB_Device_Library/Core/Src/usbd_ctlreq.c ****       unicode[idx++] =  0U;
 2103              		.loc 1 880 29 is_stmt 0 view .LVU604
 2104 0022 0134     		adds	r4, r4, #1
 2105              	.LVL251:
 880:Middlewares/ST/STM32_USB_Device_Library/Core/Src/usbd_ctlreq.c ****       unicode[idx++] =  0U;
 2106              		.loc 1 880 18 view .LVU605
 2107 0024 5A1C     		adds	r2, r3, #1
 2108 0026 D2B2     		uxtb	r2, r2
 2109              	.LVL252:
 880:Middlewares/ST/STM32_USB_Device_Library/Core/Src/usbd_ctlreq.c ****       unicode[idx++] =  0U;
 2110              		.loc 1 880 22 view .LVU606
 2111 0028 E854     		strb	r0, [r5, r3]
 881:Middlewares/ST/STM32_USB_Device_Library/Core/Src/usbd_ctlreq.c ****     }
 2112              		.loc 1 881 7 is_stmt 1 view .LVU607
 881:Middlewares/ST/STM32_USB_Device_Library/Core/Src/usbd_ctlreq.c ****     }
 2113              		.loc 1 881 18 is_stmt 0 view .LVU608
 2114 002a 0233     		adds	r3, r3, #2
 2115 002c DBB2     		uxtb	r3, r3
 2116              	.LVL253:
 881:Middlewares/ST/STM32_USB_Device_Library/Core/Src/usbd_ctlreq.c ****     }
 2117              		.loc 1 881 14 view .LVU609
ARM GAS  /tmp/ccp4GKZ9.s 			page 64


 2118 002e AA18     		adds	r2, r5, r2
 881:Middlewares/ST/STM32_USB_Device_Library/Core/Src/usbd_ctlreq.c ****     }
 2119              		.loc 1 881 22 view .LVU610
 2120 0030 0021     		movs	r1, #0
 2121 0032 1170     		strb	r1, [r2]
 2122              	.LVL254:
 2123              	.L164:
 878:Middlewares/ST/STM32_USB_Device_Library/Core/Src/usbd_ctlreq.c ****     {
 2124              		.loc 1 878 18 is_stmt 1 view .LVU611
 878:Middlewares/ST/STM32_USB_Device_Library/Core/Src/usbd_ctlreq.c ****     {
 2125              		.loc 1 878 12 is_stmt 0 view .LVU612
 2126 0034 2078     		ldrb	r0, [r4]
 878:Middlewares/ST/STM32_USB_Device_Library/Core/Src/usbd_ctlreq.c ****     {
 2127              		.loc 1 878 18 view .LVU613
 2128 0036 0028     		cmp	r0, #0
 2129 0038 F3D1     		bne	.L165
 2130              	.LVL255:
 2131              	.L162:
 884:Middlewares/ST/STM32_USB_Device_Library/Core/Src/usbd_ctlreq.c **** 
 2132              		.loc 1 884 1 view .LVU614
 2133              		@ sp needed
 2134              	.LVL256:
 2135              	.LVL257:
 2136              	.LVL258:
 884:Middlewares/ST/STM32_USB_Device_Library/Core/Src/usbd_ctlreq.c **** 
 2137              		.loc 1 884 1 view .LVU615
 2138 003a 70BD     		pop	{r4, r5, r6, pc}
 2139              		.cfi_endproc
 2140              	.LFE55:
 2142              		.section	.bss.cfgidx.0,"aw",%nobits
 2145              	cfgidx.0:
 2146 0000 00       		.space	1
 2147              		.text
 2148              	.Letext0:
 2149              		.file 2 "/usr/arm-none-eabi/include/machine/_default_types.h"
 2150              		.file 3 "/usr/arm-none-eabi/include/sys/_stdint.h"
 2151              		.file 4 "Middlewares/ST/STM32_USB_Device_Library/Core/Inc/usbd_def.h"
 2152              		.file 5 "Middlewares/ST/STM32_USB_Device_Library/Core/Inc/usbd_core.h"
 2153              		.file 6 "Middlewares/ST/STM32_USB_Device_Library/Core/Inc/usbd_ioreq.h"
ARM GAS  /tmp/ccp4GKZ9.s 			page 65

