ARM GAS  /tmp/ccDq1InM.s 			page 1


   1              		.cpu cortex-m0
   2              		.arch armv6s-m
   3              		.fpu softvfp
   4              		.eabi_attribute 20, 1
   5              		.eabi_attribute 21, 1
   6              		.eabi_attribute 23, 3
   7              		.eabi_attribute 24, 1
   8              		.eabi_attribute 25, 1
   9              		.eabi_attribute 26, 1
  10              		.eabi_attribute 30, 1
  11              		.eabi_attribute 34, 0
  12              		.eabi_attribute 18, 4
  13              		.file	"usbd_core.c"
  14              		.text
  15              	.Ltext0:
  16              		.cfi_sections	.debug_frame
  17              		.file 1 "Middlewares/ST/STM32_USB_Device_Library/Core/Src/usbd_core.c"
  18              		.section	.text.USBD_Init,"ax",%progbits
  19              		.align	1
  20              		.global	USBD_Init
  21              		.syntax unified
  22              		.code	16
  23              		.thumb_func
  25              	USBD_Init:
  26              	.LVL0:
  27              	.LFB43:
   1:Middlewares/ST/STM32_USB_Device_Library/Core/Src/usbd_core.c **** /**
   2:Middlewares/ST/STM32_USB_Device_Library/Core/Src/usbd_core.c ****   ******************************************************************************
   3:Middlewares/ST/STM32_USB_Device_Library/Core/Src/usbd_core.c ****   * @file    usbd_core.c
   4:Middlewares/ST/STM32_USB_Device_Library/Core/Src/usbd_core.c ****   * @author  MCD Application Team
   5:Middlewares/ST/STM32_USB_Device_Library/Core/Src/usbd_core.c ****   * @brief   This file provides all the USBD core functions.
   6:Middlewares/ST/STM32_USB_Device_Library/Core/Src/usbd_core.c ****   ******************************************************************************
   7:Middlewares/ST/STM32_USB_Device_Library/Core/Src/usbd_core.c ****   * @attention
   8:Middlewares/ST/STM32_USB_Device_Library/Core/Src/usbd_core.c ****   *
   9:Middlewares/ST/STM32_USB_Device_Library/Core/Src/usbd_core.c ****   * <h2><center>&copy; Copyright (c) 2015 STMicroelectronics.
  10:Middlewares/ST/STM32_USB_Device_Library/Core/Src/usbd_core.c ****   * All rights reserved.</center></h2>
  11:Middlewares/ST/STM32_USB_Device_Library/Core/Src/usbd_core.c ****   *
  12:Middlewares/ST/STM32_USB_Device_Library/Core/Src/usbd_core.c ****   * This software component is licensed by ST under Ultimate Liberty license
  13:Middlewares/ST/STM32_USB_Device_Library/Core/Src/usbd_core.c ****   * SLA0044, the "License"; You may not use this file except in compliance with
  14:Middlewares/ST/STM32_USB_Device_Library/Core/Src/usbd_core.c ****   * the License. You may obtain a copy of the License at:
  15:Middlewares/ST/STM32_USB_Device_Library/Core/Src/usbd_core.c ****   *                      www.st.com/SLA0044
  16:Middlewares/ST/STM32_USB_Device_Library/Core/Src/usbd_core.c ****   *
  17:Middlewares/ST/STM32_USB_Device_Library/Core/Src/usbd_core.c ****   ******************************************************************************
  18:Middlewares/ST/STM32_USB_Device_Library/Core/Src/usbd_core.c ****   */
  19:Middlewares/ST/STM32_USB_Device_Library/Core/Src/usbd_core.c **** 
  20:Middlewares/ST/STM32_USB_Device_Library/Core/Src/usbd_core.c **** /* Includes ------------------------------------------------------------------*/
  21:Middlewares/ST/STM32_USB_Device_Library/Core/Src/usbd_core.c **** #include "usbd_core.h"
  22:Middlewares/ST/STM32_USB_Device_Library/Core/Src/usbd_core.c **** 
  23:Middlewares/ST/STM32_USB_Device_Library/Core/Src/usbd_core.c **** /** @addtogroup STM32_USBD_DEVICE_LIBRARY
  24:Middlewares/ST/STM32_USB_Device_Library/Core/Src/usbd_core.c **** * @{
  25:Middlewares/ST/STM32_USB_Device_Library/Core/Src/usbd_core.c **** */
  26:Middlewares/ST/STM32_USB_Device_Library/Core/Src/usbd_core.c **** 
  27:Middlewares/ST/STM32_USB_Device_Library/Core/Src/usbd_core.c **** 
  28:Middlewares/ST/STM32_USB_Device_Library/Core/Src/usbd_core.c **** /** @defgroup USBD_CORE
  29:Middlewares/ST/STM32_USB_Device_Library/Core/Src/usbd_core.c **** * @brief usbd core module
  30:Middlewares/ST/STM32_USB_Device_Library/Core/Src/usbd_core.c **** * @{
  31:Middlewares/ST/STM32_USB_Device_Library/Core/Src/usbd_core.c **** */
ARM GAS  /tmp/ccDq1InM.s 			page 2


  32:Middlewares/ST/STM32_USB_Device_Library/Core/Src/usbd_core.c **** 
  33:Middlewares/ST/STM32_USB_Device_Library/Core/Src/usbd_core.c **** /** @defgroup USBD_CORE_Private_TypesDefinitions
  34:Middlewares/ST/STM32_USB_Device_Library/Core/Src/usbd_core.c **** * @{
  35:Middlewares/ST/STM32_USB_Device_Library/Core/Src/usbd_core.c **** */
  36:Middlewares/ST/STM32_USB_Device_Library/Core/Src/usbd_core.c **** 
  37:Middlewares/ST/STM32_USB_Device_Library/Core/Src/usbd_core.c **** /**
  38:Middlewares/ST/STM32_USB_Device_Library/Core/Src/usbd_core.c **** * @}
  39:Middlewares/ST/STM32_USB_Device_Library/Core/Src/usbd_core.c **** */
  40:Middlewares/ST/STM32_USB_Device_Library/Core/Src/usbd_core.c **** 
  41:Middlewares/ST/STM32_USB_Device_Library/Core/Src/usbd_core.c **** 
  42:Middlewares/ST/STM32_USB_Device_Library/Core/Src/usbd_core.c **** /** @defgroup USBD_CORE_Private_Defines
  43:Middlewares/ST/STM32_USB_Device_Library/Core/Src/usbd_core.c **** * @{
  44:Middlewares/ST/STM32_USB_Device_Library/Core/Src/usbd_core.c **** */
  45:Middlewares/ST/STM32_USB_Device_Library/Core/Src/usbd_core.c **** 
  46:Middlewares/ST/STM32_USB_Device_Library/Core/Src/usbd_core.c **** /**
  47:Middlewares/ST/STM32_USB_Device_Library/Core/Src/usbd_core.c **** * @}
  48:Middlewares/ST/STM32_USB_Device_Library/Core/Src/usbd_core.c **** */
  49:Middlewares/ST/STM32_USB_Device_Library/Core/Src/usbd_core.c **** 
  50:Middlewares/ST/STM32_USB_Device_Library/Core/Src/usbd_core.c **** 
  51:Middlewares/ST/STM32_USB_Device_Library/Core/Src/usbd_core.c **** /** @defgroup USBD_CORE_Private_Macros
  52:Middlewares/ST/STM32_USB_Device_Library/Core/Src/usbd_core.c **** * @{
  53:Middlewares/ST/STM32_USB_Device_Library/Core/Src/usbd_core.c **** */
  54:Middlewares/ST/STM32_USB_Device_Library/Core/Src/usbd_core.c **** 
  55:Middlewares/ST/STM32_USB_Device_Library/Core/Src/usbd_core.c **** /**
  56:Middlewares/ST/STM32_USB_Device_Library/Core/Src/usbd_core.c **** * @}
  57:Middlewares/ST/STM32_USB_Device_Library/Core/Src/usbd_core.c **** */
  58:Middlewares/ST/STM32_USB_Device_Library/Core/Src/usbd_core.c **** 
  59:Middlewares/ST/STM32_USB_Device_Library/Core/Src/usbd_core.c **** 
  60:Middlewares/ST/STM32_USB_Device_Library/Core/Src/usbd_core.c **** /** @defgroup USBD_CORE_Private_FunctionPrototypes
  61:Middlewares/ST/STM32_USB_Device_Library/Core/Src/usbd_core.c **** * @{
  62:Middlewares/ST/STM32_USB_Device_Library/Core/Src/usbd_core.c **** */
  63:Middlewares/ST/STM32_USB_Device_Library/Core/Src/usbd_core.c **** 
  64:Middlewares/ST/STM32_USB_Device_Library/Core/Src/usbd_core.c **** /**
  65:Middlewares/ST/STM32_USB_Device_Library/Core/Src/usbd_core.c **** * @}
  66:Middlewares/ST/STM32_USB_Device_Library/Core/Src/usbd_core.c **** */
  67:Middlewares/ST/STM32_USB_Device_Library/Core/Src/usbd_core.c **** 
  68:Middlewares/ST/STM32_USB_Device_Library/Core/Src/usbd_core.c **** /** @defgroup USBD_CORE_Private_Variables
  69:Middlewares/ST/STM32_USB_Device_Library/Core/Src/usbd_core.c **** * @{
  70:Middlewares/ST/STM32_USB_Device_Library/Core/Src/usbd_core.c **** */
  71:Middlewares/ST/STM32_USB_Device_Library/Core/Src/usbd_core.c **** 
  72:Middlewares/ST/STM32_USB_Device_Library/Core/Src/usbd_core.c **** /**
  73:Middlewares/ST/STM32_USB_Device_Library/Core/Src/usbd_core.c **** * @}
  74:Middlewares/ST/STM32_USB_Device_Library/Core/Src/usbd_core.c **** */
  75:Middlewares/ST/STM32_USB_Device_Library/Core/Src/usbd_core.c **** 
  76:Middlewares/ST/STM32_USB_Device_Library/Core/Src/usbd_core.c **** 
  77:Middlewares/ST/STM32_USB_Device_Library/Core/Src/usbd_core.c **** /** @defgroup USBD_CORE_Private_Functions
  78:Middlewares/ST/STM32_USB_Device_Library/Core/Src/usbd_core.c **** * @{
  79:Middlewares/ST/STM32_USB_Device_Library/Core/Src/usbd_core.c **** */
  80:Middlewares/ST/STM32_USB_Device_Library/Core/Src/usbd_core.c **** 
  81:Middlewares/ST/STM32_USB_Device_Library/Core/Src/usbd_core.c **** /**
  82:Middlewares/ST/STM32_USB_Device_Library/Core/Src/usbd_core.c **** * @brief  USBD_Init
  83:Middlewares/ST/STM32_USB_Device_Library/Core/Src/usbd_core.c **** *         Initializes the device stack and load the class driver
  84:Middlewares/ST/STM32_USB_Device_Library/Core/Src/usbd_core.c **** * @param  pdev: device instance
  85:Middlewares/ST/STM32_USB_Device_Library/Core/Src/usbd_core.c **** * @param  pdesc: Descriptor structure address
  86:Middlewares/ST/STM32_USB_Device_Library/Core/Src/usbd_core.c **** * @param  id: Low level core index
  87:Middlewares/ST/STM32_USB_Device_Library/Core/Src/usbd_core.c **** * @retval None
  88:Middlewares/ST/STM32_USB_Device_Library/Core/Src/usbd_core.c **** */
ARM GAS  /tmp/ccDq1InM.s 			page 3


  89:Middlewares/ST/STM32_USB_Device_Library/Core/Src/usbd_core.c **** USBD_StatusTypeDef USBD_Init(USBD_HandleTypeDef *pdev,
  90:Middlewares/ST/STM32_USB_Device_Library/Core/Src/usbd_core.c ****                              USBD_DescriptorsTypeDef *pdesc, uint8_t id)
  91:Middlewares/ST/STM32_USB_Device_Library/Core/Src/usbd_core.c **** {
  28              		.loc 1 91 1 view -0
  29              		.cfi_startproc
  30              		@ args = 0, pretend = 0, frame = 0
  31              		@ frame_needed = 0, uses_anonymous_args = 0
  32              		.loc 1 91 1 is_stmt 0 view .LVU1
  33 0000 10B5     		push	{r4, lr}
  34              	.LCFI0:
  35              		.cfi_def_cfa_offset 8
  36              		.cfi_offset 4, -8
  37              		.cfi_offset 14, -4
  92:Middlewares/ST/STM32_USB_Device_Library/Core/Src/usbd_core.c ****   /* Check whether the USB Host handle is valid */
  93:Middlewares/ST/STM32_USB_Device_Library/Core/Src/usbd_core.c ****   if (pdev == NULL)
  38              		.loc 1 93 3 is_stmt 1 view .LVU2
  39              		.loc 1 93 6 is_stmt 0 view .LVU3
  40 0002 0028     		cmp	r0, #0
  41 0004 16D0     		beq	.L5
  94:Middlewares/ST/STM32_USB_Device_Library/Core/Src/usbd_core.c ****   {
  95:Middlewares/ST/STM32_USB_Device_Library/Core/Src/usbd_core.c **** #if (USBD_DEBUG_LEVEL > 1U)
  96:Middlewares/ST/STM32_USB_Device_Library/Core/Src/usbd_core.c ****     USBD_ErrLog("Invalid Device handle");
  97:Middlewares/ST/STM32_USB_Device_Library/Core/Src/usbd_core.c **** #endif
  98:Middlewares/ST/STM32_USB_Device_Library/Core/Src/usbd_core.c ****     return USBD_FAIL;
  99:Middlewares/ST/STM32_USB_Device_Library/Core/Src/usbd_core.c ****   }
 100:Middlewares/ST/STM32_USB_Device_Library/Core/Src/usbd_core.c **** 
 101:Middlewares/ST/STM32_USB_Device_Library/Core/Src/usbd_core.c ****   /* Unlink previous class*/
 102:Middlewares/ST/STM32_USB_Device_Library/Core/Src/usbd_core.c ****   if (pdev->pClass != NULL)
  42              		.loc 1 102 3 is_stmt 1 view .LVU4
  43              		.loc 1 102 11 is_stmt 0 view .LVU5
  44 0006 AD23     		movs	r3, #173
  45 0008 9B00     		lsls	r3, r3, #2
  46 000a C358     		ldr	r3, [r0, r3]
  47              		.loc 1 102 6 view .LVU6
  48 000c 002B     		cmp	r3, #0
  49 000e 03D0     		beq	.L3
 103:Middlewares/ST/STM32_USB_Device_Library/Core/Src/usbd_core.c ****   {
 104:Middlewares/ST/STM32_USB_Device_Library/Core/Src/usbd_core.c ****     pdev->pClass = NULL;
  50              		.loc 1 104 5 is_stmt 1 view .LVU7
  51              		.loc 1 104 18 is_stmt 0 view .LVU8
  52 0010 AD23     		movs	r3, #173
  53 0012 9B00     		lsls	r3, r3, #2
  54 0014 0024     		movs	r4, #0
  55 0016 C450     		str	r4, [r0, r3]
  56              	.L3:
 105:Middlewares/ST/STM32_USB_Device_Library/Core/Src/usbd_core.c ****   }
 106:Middlewares/ST/STM32_USB_Device_Library/Core/Src/usbd_core.c **** 
 107:Middlewares/ST/STM32_USB_Device_Library/Core/Src/usbd_core.c ****   /* Assign USBD Descriptors */
 108:Middlewares/ST/STM32_USB_Device_Library/Core/Src/usbd_core.c ****   if (pdesc != NULL)
  57              		.loc 1 108 3 is_stmt 1 view .LVU9
  58              		.loc 1 108 6 is_stmt 0 view .LVU10
  59 0018 0029     		cmp	r1, #0
  60 001a 02D0     		beq	.L4
 109:Middlewares/ST/STM32_USB_Device_Library/Core/Src/usbd_core.c ****   {
 110:Middlewares/ST/STM32_USB_Device_Library/Core/Src/usbd_core.c ****     pdev->pDesc = pdesc;
  61              		.loc 1 110 5 is_stmt 1 view .LVU11
  62              		.loc 1 110 17 is_stmt 0 view .LVU12
ARM GAS  /tmp/ccDq1InM.s 			page 4


  63 001c AC23     		movs	r3, #172
  64 001e 9B00     		lsls	r3, r3, #2
  65 0020 C150     		str	r1, [r0, r3]
  66              	.L4:
 111:Middlewares/ST/STM32_USB_Device_Library/Core/Src/usbd_core.c ****   }
 112:Middlewares/ST/STM32_USB_Device_Library/Core/Src/usbd_core.c **** 
 113:Middlewares/ST/STM32_USB_Device_Library/Core/Src/usbd_core.c ****   /* Set Device initial State */
 114:Middlewares/ST/STM32_USB_Device_Library/Core/Src/usbd_core.c ****   pdev->dev_state = USBD_STATE_DEFAULT;
  67              		.loc 1 114 3 is_stmt 1 view .LVU13
  68              		.loc 1 114 19 is_stmt 0 view .LVU14
  69 0022 A723     		movs	r3, #167
  70 0024 9B00     		lsls	r3, r3, #2
  71 0026 0121     		movs	r1, #1
  72              	.LVL1:
  73              		.loc 1 114 19 view .LVU15
  74 0028 C154     		strb	r1, [r0, r3]
 115:Middlewares/ST/STM32_USB_Device_Library/Core/Src/usbd_core.c ****   pdev->id = id;
  75              		.loc 1 115 3 is_stmt 1 view .LVU16
  76              		.loc 1 115 12 is_stmt 0 view .LVU17
  77 002a 0270     		strb	r2, [r0]
 116:Middlewares/ST/STM32_USB_Device_Library/Core/Src/usbd_core.c ****   /* Initialize low level driver */
 117:Middlewares/ST/STM32_USB_Device_Library/Core/Src/usbd_core.c ****   USBD_LL_Init(pdev);
  78              		.loc 1 117 3 is_stmt 1 view .LVU18
  79 002c FFF7FEFF 		bl	USBD_LL_Init
  80              	.LVL2:
 118:Middlewares/ST/STM32_USB_Device_Library/Core/Src/usbd_core.c **** 
 119:Middlewares/ST/STM32_USB_Device_Library/Core/Src/usbd_core.c ****   return USBD_OK;
  81              		.loc 1 119 3 view .LVU19
  82              		.loc 1 119 10 is_stmt 0 view .LVU20
  83 0030 0020     		movs	r0, #0
  84              	.L2:
 120:Middlewares/ST/STM32_USB_Device_Library/Core/Src/usbd_core.c **** }
  85              		.loc 1 120 1 view .LVU21
  86              		@ sp needed
  87 0032 10BD     		pop	{r4, pc}
  88              	.LVL3:
  89              	.L5:
  98:Middlewares/ST/STM32_USB_Device_Library/Core/Src/usbd_core.c ****   }
  90              		.loc 1 98 12 view .LVU22
  91 0034 0220     		movs	r0, #2
  92              	.LVL4:
  98:Middlewares/ST/STM32_USB_Device_Library/Core/Src/usbd_core.c ****   }
  93              		.loc 1 98 12 view .LVU23
  94 0036 FCE7     		b	.L2
  95              		.cfi_endproc
  96              	.LFE43:
  98              		.section	.text.USBD_DeInit,"ax",%progbits
  99              		.align	1
 100              		.global	USBD_DeInit
 101              		.syntax unified
 102              		.code	16
 103              		.thumb_func
 105              	USBD_DeInit:
 106              	.LVL5:
 107              	.LFB44:
 121:Middlewares/ST/STM32_USB_Device_Library/Core/Src/usbd_core.c **** 
 122:Middlewares/ST/STM32_USB_Device_Library/Core/Src/usbd_core.c **** /**
ARM GAS  /tmp/ccDq1InM.s 			page 5


 123:Middlewares/ST/STM32_USB_Device_Library/Core/Src/usbd_core.c **** * @brief  USBD_DeInit
 124:Middlewares/ST/STM32_USB_Device_Library/Core/Src/usbd_core.c **** *         Re-Initialize th device library
 125:Middlewares/ST/STM32_USB_Device_Library/Core/Src/usbd_core.c **** * @param  pdev: device instance
 126:Middlewares/ST/STM32_USB_Device_Library/Core/Src/usbd_core.c **** * @retval status: status
 127:Middlewares/ST/STM32_USB_Device_Library/Core/Src/usbd_core.c **** */
 128:Middlewares/ST/STM32_USB_Device_Library/Core/Src/usbd_core.c **** USBD_StatusTypeDef USBD_DeInit(USBD_HandleTypeDef *pdev)
 129:Middlewares/ST/STM32_USB_Device_Library/Core/Src/usbd_core.c **** {
 108              		.loc 1 129 1 is_stmt 1 view -0
 109              		.cfi_startproc
 110              		@ args = 0, pretend = 0, frame = 0
 111              		@ frame_needed = 0, uses_anonymous_args = 0
 112              		.loc 1 129 1 is_stmt 0 view .LVU25
 113 0000 10B5     		push	{r4, lr}
 114              	.LCFI1:
 115              		.cfi_def_cfa_offset 8
 116              		.cfi_offset 4, -8
 117              		.cfi_offset 14, -4
 118 0002 0400     		movs	r4, r0
 130:Middlewares/ST/STM32_USB_Device_Library/Core/Src/usbd_core.c ****   /* Set Default State */
 131:Middlewares/ST/STM32_USB_Device_Library/Core/Src/usbd_core.c ****   pdev->dev_state = USBD_STATE_DEFAULT;
 119              		.loc 1 131 3 is_stmt 1 view .LVU26
 120              		.loc 1 131 19 is_stmt 0 view .LVU27
 121 0004 A723     		movs	r3, #167
 122 0006 9B00     		lsls	r3, r3, #2
 123 0008 0122     		movs	r2, #1
 124 000a C254     		strb	r2, [r0, r3]
 132:Middlewares/ST/STM32_USB_Device_Library/Core/Src/usbd_core.c **** 
 133:Middlewares/ST/STM32_USB_Device_Library/Core/Src/usbd_core.c ****   /* Free Class Resources */
 134:Middlewares/ST/STM32_USB_Device_Library/Core/Src/usbd_core.c ****   pdev->pClass->DeInit(pdev, (uint8_t)pdev->dev_config);
 125              		.loc 1 134 3 is_stmt 1 view .LVU28
 126              		.loc 1 134 7 is_stmt 0 view .LVU29
 127 000c 1833     		adds	r3, r3, #24
 128 000e C358     		ldr	r3, [r0, r3]
 129              		.loc 1 134 15 view .LVU30
 130 0010 5B68     		ldr	r3, [r3, #4]
 131              		.loc 1 134 3 view .LVU31
 132 0012 0179     		ldrb	r1, [r0, #4]
 133 0014 9847     		blx	r3
 134              	.LVL6:
 135:Middlewares/ST/STM32_USB_Device_Library/Core/Src/usbd_core.c **** 
 136:Middlewares/ST/STM32_USB_Device_Library/Core/Src/usbd_core.c ****   /* Stop the low level driver  */
 137:Middlewares/ST/STM32_USB_Device_Library/Core/Src/usbd_core.c ****   USBD_LL_Stop(pdev);
 135              		.loc 1 137 3 is_stmt 1 view .LVU32
 136 0016 2000     		movs	r0, r4
 137 0018 FFF7FEFF 		bl	USBD_LL_Stop
 138              	.LVL7:
 138:Middlewares/ST/STM32_USB_Device_Library/Core/Src/usbd_core.c **** 
 139:Middlewares/ST/STM32_USB_Device_Library/Core/Src/usbd_core.c ****   /* Initialize low level driver */
 140:Middlewares/ST/STM32_USB_Device_Library/Core/Src/usbd_core.c ****   USBD_LL_DeInit(pdev);
 139              		.loc 1 140 3 view .LVU33
 140 001c 2000     		movs	r0, r4
 141 001e FFF7FEFF 		bl	USBD_LL_DeInit
 142              	.LVL8:
 141:Middlewares/ST/STM32_USB_Device_Library/Core/Src/usbd_core.c **** 
 142:Middlewares/ST/STM32_USB_Device_Library/Core/Src/usbd_core.c ****   return USBD_OK;
 143              		.loc 1 142 3 view .LVU34
 143:Middlewares/ST/STM32_USB_Device_Library/Core/Src/usbd_core.c **** }
ARM GAS  /tmp/ccDq1InM.s 			page 6


 144              		.loc 1 143 1 is_stmt 0 view .LVU35
 145 0022 0020     		movs	r0, #0
 146              		@ sp needed
 147              	.LVL9:
 148              		.loc 1 143 1 view .LVU36
 149 0024 10BD     		pop	{r4, pc}
 150              		.cfi_endproc
 151              	.LFE44:
 153              		.section	.text.USBD_RegisterClass,"ax",%progbits
 154              		.align	1
 155              		.global	USBD_RegisterClass
 156              		.syntax unified
 157              		.code	16
 158              		.thumb_func
 160              	USBD_RegisterClass:
 161              	.LVL10:
 162              	.LFB45:
 144:Middlewares/ST/STM32_USB_Device_Library/Core/Src/usbd_core.c **** 
 145:Middlewares/ST/STM32_USB_Device_Library/Core/Src/usbd_core.c **** /**
 146:Middlewares/ST/STM32_USB_Device_Library/Core/Src/usbd_core.c ****   * @brief  USBD_RegisterClass
 147:Middlewares/ST/STM32_USB_Device_Library/Core/Src/usbd_core.c ****   *         Link class driver to Device Core.
 148:Middlewares/ST/STM32_USB_Device_Library/Core/Src/usbd_core.c ****   * @param  pDevice : Device Handle
 149:Middlewares/ST/STM32_USB_Device_Library/Core/Src/usbd_core.c ****   * @param  pclass: Class handle
 150:Middlewares/ST/STM32_USB_Device_Library/Core/Src/usbd_core.c ****   * @retval USBD Status
 151:Middlewares/ST/STM32_USB_Device_Library/Core/Src/usbd_core.c ****   */
 152:Middlewares/ST/STM32_USB_Device_Library/Core/Src/usbd_core.c **** USBD_StatusTypeDef  USBD_RegisterClass(USBD_HandleTypeDef *pdev, USBD_ClassTypeDef *pclass)
 153:Middlewares/ST/STM32_USB_Device_Library/Core/Src/usbd_core.c **** {
 163              		.loc 1 153 1 is_stmt 1 view -0
 164              		.cfi_startproc
 165              		@ args = 0, pretend = 0, frame = 0
 166              		@ frame_needed = 0, uses_anonymous_args = 0
 167              		@ link register save eliminated.
 154:Middlewares/ST/STM32_USB_Device_Library/Core/Src/usbd_core.c ****   USBD_StatusTypeDef status = USBD_OK;
 168              		.loc 1 154 3 view .LVU38
 155:Middlewares/ST/STM32_USB_Device_Library/Core/Src/usbd_core.c ****   if (pclass != NULL)
 169              		.loc 1 155 3 view .LVU39
 170              		.loc 1 155 6 is_stmt 0 view .LVU40
 171 0000 0029     		cmp	r1, #0
 172 0002 04D0     		beq	.L9
 156:Middlewares/ST/STM32_USB_Device_Library/Core/Src/usbd_core.c ****   {
 157:Middlewares/ST/STM32_USB_Device_Library/Core/Src/usbd_core.c ****     /* link the class to the USB Device handle */
 158:Middlewares/ST/STM32_USB_Device_Library/Core/Src/usbd_core.c ****     pdev->pClass = pclass;
 173              		.loc 1 158 5 is_stmt 1 view .LVU41
 174              		.loc 1 158 18 is_stmt 0 view .LVU42
 175 0004 AD23     		movs	r3, #173
 176 0006 9B00     		lsls	r3, r3, #2
 177 0008 C150     		str	r1, [r0, r3]
 159:Middlewares/ST/STM32_USB_Device_Library/Core/Src/usbd_core.c ****     status = USBD_OK;
 178              		.loc 1 159 5 is_stmt 1 view .LVU43
 179              		.loc 1 159 12 is_stmt 0 view .LVU44
 180 000a 0020     		movs	r0, #0
 181              	.LVL11:
 182              	.L8:
 160:Middlewares/ST/STM32_USB_Device_Library/Core/Src/usbd_core.c ****   }
 161:Middlewares/ST/STM32_USB_Device_Library/Core/Src/usbd_core.c ****   else
 162:Middlewares/ST/STM32_USB_Device_Library/Core/Src/usbd_core.c ****   {
 163:Middlewares/ST/STM32_USB_Device_Library/Core/Src/usbd_core.c **** #if (USBD_DEBUG_LEVEL > 1U)
ARM GAS  /tmp/ccDq1InM.s 			page 7


 164:Middlewares/ST/STM32_USB_Device_Library/Core/Src/usbd_core.c ****     USBD_ErrLog("Invalid Class handle");
 165:Middlewares/ST/STM32_USB_Device_Library/Core/Src/usbd_core.c **** #endif
 166:Middlewares/ST/STM32_USB_Device_Library/Core/Src/usbd_core.c ****     status = USBD_FAIL;
 167:Middlewares/ST/STM32_USB_Device_Library/Core/Src/usbd_core.c ****   }
 168:Middlewares/ST/STM32_USB_Device_Library/Core/Src/usbd_core.c **** 
 169:Middlewares/ST/STM32_USB_Device_Library/Core/Src/usbd_core.c ****   return status;
 183              		.loc 1 169 3 is_stmt 1 view .LVU45
 170:Middlewares/ST/STM32_USB_Device_Library/Core/Src/usbd_core.c **** }
 184              		.loc 1 170 1 is_stmt 0 view .LVU46
 185              		@ sp needed
 186 000c 7047     		bx	lr
 187              	.LVL12:
 188              	.L9:
 166:Middlewares/ST/STM32_USB_Device_Library/Core/Src/usbd_core.c ****   }
 189              		.loc 1 166 12 view .LVU47
 190 000e 0220     		movs	r0, #2
 191              	.LVL13:
 166:Middlewares/ST/STM32_USB_Device_Library/Core/Src/usbd_core.c ****   }
 192              		.loc 1 166 12 view .LVU48
 193 0010 FCE7     		b	.L8
 194              		.cfi_endproc
 195              	.LFE45:
 197              		.section	.text.USBD_Start,"ax",%progbits
 198              		.align	1
 199              		.global	USBD_Start
 200              		.syntax unified
 201              		.code	16
 202              		.thumb_func
 204              	USBD_Start:
 205              	.LVL14:
 206              	.LFB46:
 171:Middlewares/ST/STM32_USB_Device_Library/Core/Src/usbd_core.c **** 
 172:Middlewares/ST/STM32_USB_Device_Library/Core/Src/usbd_core.c **** /**
 173:Middlewares/ST/STM32_USB_Device_Library/Core/Src/usbd_core.c ****   * @brief  USBD_Start
 174:Middlewares/ST/STM32_USB_Device_Library/Core/Src/usbd_core.c ****   *         Start the USB Device Core.
 175:Middlewares/ST/STM32_USB_Device_Library/Core/Src/usbd_core.c ****   * @param  pdev: Device Handle
 176:Middlewares/ST/STM32_USB_Device_Library/Core/Src/usbd_core.c ****   * @retval USBD Status
 177:Middlewares/ST/STM32_USB_Device_Library/Core/Src/usbd_core.c ****   */
 178:Middlewares/ST/STM32_USB_Device_Library/Core/Src/usbd_core.c **** USBD_StatusTypeDef  USBD_Start(USBD_HandleTypeDef *pdev)
 179:Middlewares/ST/STM32_USB_Device_Library/Core/Src/usbd_core.c **** {
 207              		.loc 1 179 1 is_stmt 1 view -0
 208              		.cfi_startproc
 209              		@ args = 0, pretend = 0, frame = 0
 210              		@ frame_needed = 0, uses_anonymous_args = 0
 211              		.loc 1 179 1 is_stmt 0 view .LVU50
 212 0000 10B5     		push	{r4, lr}
 213              	.LCFI2:
 214              		.cfi_def_cfa_offset 8
 215              		.cfi_offset 4, -8
 216              		.cfi_offset 14, -4
 180:Middlewares/ST/STM32_USB_Device_Library/Core/Src/usbd_core.c ****   /* Start the low level driver  */
 181:Middlewares/ST/STM32_USB_Device_Library/Core/Src/usbd_core.c ****   USBD_LL_Start(pdev);
 217              		.loc 1 181 3 is_stmt 1 view .LVU51
 218 0002 FFF7FEFF 		bl	USBD_LL_Start
 219              	.LVL15:
 182:Middlewares/ST/STM32_USB_Device_Library/Core/Src/usbd_core.c **** 
 183:Middlewares/ST/STM32_USB_Device_Library/Core/Src/usbd_core.c ****   return USBD_OK;
ARM GAS  /tmp/ccDq1InM.s 			page 8


 220              		.loc 1 183 3 view .LVU52
 184:Middlewares/ST/STM32_USB_Device_Library/Core/Src/usbd_core.c **** }
 221              		.loc 1 184 1 is_stmt 0 view .LVU53
 222 0006 0020     		movs	r0, #0
 223              		@ sp needed
 224 0008 10BD     		pop	{r4, pc}
 225              		.cfi_endproc
 226              	.LFE46:
 228              		.section	.text.USBD_Stop,"ax",%progbits
 229              		.align	1
 230              		.global	USBD_Stop
 231              		.syntax unified
 232              		.code	16
 233              		.thumb_func
 235              	USBD_Stop:
 236              	.LVL16:
 237              	.LFB47:
 185:Middlewares/ST/STM32_USB_Device_Library/Core/Src/usbd_core.c **** 
 186:Middlewares/ST/STM32_USB_Device_Library/Core/Src/usbd_core.c **** /**
 187:Middlewares/ST/STM32_USB_Device_Library/Core/Src/usbd_core.c ****   * @brief  USBD_Stop
 188:Middlewares/ST/STM32_USB_Device_Library/Core/Src/usbd_core.c ****   *         Stop the USB Device Core.
 189:Middlewares/ST/STM32_USB_Device_Library/Core/Src/usbd_core.c ****   * @param  pdev: Device Handle
 190:Middlewares/ST/STM32_USB_Device_Library/Core/Src/usbd_core.c ****   * @retval USBD Status
 191:Middlewares/ST/STM32_USB_Device_Library/Core/Src/usbd_core.c ****   */
 192:Middlewares/ST/STM32_USB_Device_Library/Core/Src/usbd_core.c **** USBD_StatusTypeDef  USBD_Stop(USBD_HandleTypeDef *pdev)
 193:Middlewares/ST/STM32_USB_Device_Library/Core/Src/usbd_core.c **** {
 238              		.loc 1 193 1 is_stmt 1 view -0
 239              		.cfi_startproc
 240              		@ args = 0, pretend = 0, frame = 0
 241              		@ frame_needed = 0, uses_anonymous_args = 0
 242              		.loc 1 193 1 is_stmt 0 view .LVU55
 243 0000 10B5     		push	{r4, lr}
 244              	.LCFI3:
 245              		.cfi_def_cfa_offset 8
 246              		.cfi_offset 4, -8
 247              		.cfi_offset 14, -4
 248 0002 0400     		movs	r4, r0
 194:Middlewares/ST/STM32_USB_Device_Library/Core/Src/usbd_core.c ****   /* Free Class Resources */
 195:Middlewares/ST/STM32_USB_Device_Library/Core/Src/usbd_core.c ****   pdev->pClass->DeInit(pdev, (uint8_t)pdev->dev_config);
 249              		.loc 1 195 3 is_stmt 1 view .LVU56
 250              		.loc 1 195 7 is_stmt 0 view .LVU57
 251 0004 AD23     		movs	r3, #173
 252 0006 9B00     		lsls	r3, r3, #2
 253 0008 C358     		ldr	r3, [r0, r3]
 254              		.loc 1 195 15 view .LVU58
 255 000a 5B68     		ldr	r3, [r3, #4]
 256              		.loc 1 195 3 view .LVU59
 257 000c 0179     		ldrb	r1, [r0, #4]
 258 000e 9847     		blx	r3
 259              	.LVL17:
 196:Middlewares/ST/STM32_USB_Device_Library/Core/Src/usbd_core.c **** 
 197:Middlewares/ST/STM32_USB_Device_Library/Core/Src/usbd_core.c ****   /* Stop the low level driver */
 198:Middlewares/ST/STM32_USB_Device_Library/Core/Src/usbd_core.c ****   USBD_LL_Stop(pdev);
 260              		.loc 1 198 3 is_stmt 1 view .LVU60
 261 0010 2000     		movs	r0, r4
 262 0012 FFF7FEFF 		bl	USBD_LL_Stop
 263              	.LVL18:
ARM GAS  /tmp/ccDq1InM.s 			page 9


 199:Middlewares/ST/STM32_USB_Device_Library/Core/Src/usbd_core.c **** 
 200:Middlewares/ST/STM32_USB_Device_Library/Core/Src/usbd_core.c ****   return USBD_OK;
 264              		.loc 1 200 3 view .LVU61
 201:Middlewares/ST/STM32_USB_Device_Library/Core/Src/usbd_core.c **** }
 265              		.loc 1 201 1 is_stmt 0 view .LVU62
 266 0016 0020     		movs	r0, #0
 267              		@ sp needed
 268              	.LVL19:
 269              		.loc 1 201 1 view .LVU63
 270 0018 10BD     		pop	{r4, pc}
 271              		.cfi_endproc
 272              	.LFE47:
 274              		.section	.text.USBD_RunTestMode,"ax",%progbits
 275              		.align	1
 276              		.global	USBD_RunTestMode
 277              		.syntax unified
 278              		.code	16
 279              		.thumb_func
 281              	USBD_RunTestMode:
 282              	.LVL20:
 283              	.LFB48:
 202:Middlewares/ST/STM32_USB_Device_Library/Core/Src/usbd_core.c **** 
 203:Middlewares/ST/STM32_USB_Device_Library/Core/Src/usbd_core.c **** /**
 204:Middlewares/ST/STM32_USB_Device_Library/Core/Src/usbd_core.c **** * @brief  USBD_RunTestMode
 205:Middlewares/ST/STM32_USB_Device_Library/Core/Src/usbd_core.c **** *         Launch test mode process
 206:Middlewares/ST/STM32_USB_Device_Library/Core/Src/usbd_core.c **** * @param  pdev: device instance
 207:Middlewares/ST/STM32_USB_Device_Library/Core/Src/usbd_core.c **** * @retval status
 208:Middlewares/ST/STM32_USB_Device_Library/Core/Src/usbd_core.c **** */
 209:Middlewares/ST/STM32_USB_Device_Library/Core/Src/usbd_core.c **** USBD_StatusTypeDef  USBD_RunTestMode(USBD_HandleTypeDef  *pdev)
 210:Middlewares/ST/STM32_USB_Device_Library/Core/Src/usbd_core.c **** {
 284              		.loc 1 210 1 is_stmt 1 view -0
 285              		.cfi_startproc
 286              		@ args = 0, pretend = 0, frame = 0
 287              		@ frame_needed = 0, uses_anonymous_args = 0
 288              		@ link register save eliminated.
 211:Middlewares/ST/STM32_USB_Device_Library/Core/Src/usbd_core.c ****   /* Prevent unused argument compilation warning */
 212:Middlewares/ST/STM32_USB_Device_Library/Core/Src/usbd_core.c ****   UNUSED(pdev);
 289              		.loc 1 212 3 view .LVU65
 213:Middlewares/ST/STM32_USB_Device_Library/Core/Src/usbd_core.c **** 
 214:Middlewares/ST/STM32_USB_Device_Library/Core/Src/usbd_core.c ****   return USBD_OK;
 290              		.loc 1 214 3 view .LVU66
 215:Middlewares/ST/STM32_USB_Device_Library/Core/Src/usbd_core.c **** }
 291              		.loc 1 215 1 is_stmt 0 view .LVU67
 292 0000 0020     		movs	r0, #0
 293              	.LVL21:
 294              		.loc 1 215 1 view .LVU68
 295              		@ sp needed
 296 0002 7047     		bx	lr
 297              		.cfi_endproc
 298              	.LFE48:
 300              		.section	.text.USBD_SetClassConfig,"ax",%progbits
 301              		.align	1
 302              		.global	USBD_SetClassConfig
 303              		.syntax unified
 304              		.code	16
 305              		.thumb_func
 307              	USBD_SetClassConfig:
ARM GAS  /tmp/ccDq1InM.s 			page 10


 308              	.LVL22:
 309              	.LFB49:
 216:Middlewares/ST/STM32_USB_Device_Library/Core/Src/usbd_core.c **** 
 217:Middlewares/ST/STM32_USB_Device_Library/Core/Src/usbd_core.c **** /**
 218:Middlewares/ST/STM32_USB_Device_Library/Core/Src/usbd_core.c **** * @brief  USBD_SetClassConfig
 219:Middlewares/ST/STM32_USB_Device_Library/Core/Src/usbd_core.c **** *        Configure device and start the interface
 220:Middlewares/ST/STM32_USB_Device_Library/Core/Src/usbd_core.c **** * @param  pdev: device instance
 221:Middlewares/ST/STM32_USB_Device_Library/Core/Src/usbd_core.c **** * @param  cfgidx: configuration index
 222:Middlewares/ST/STM32_USB_Device_Library/Core/Src/usbd_core.c **** * @retval status
 223:Middlewares/ST/STM32_USB_Device_Library/Core/Src/usbd_core.c **** */
 224:Middlewares/ST/STM32_USB_Device_Library/Core/Src/usbd_core.c **** 
 225:Middlewares/ST/STM32_USB_Device_Library/Core/Src/usbd_core.c **** USBD_StatusTypeDef USBD_SetClassConfig(USBD_HandleTypeDef  *pdev, uint8_t cfgidx)
 226:Middlewares/ST/STM32_USB_Device_Library/Core/Src/usbd_core.c **** {
 310              		.loc 1 226 1 is_stmt 1 view -0
 311              		.cfi_startproc
 312              		@ args = 0, pretend = 0, frame = 0
 313              		@ frame_needed = 0, uses_anonymous_args = 0
 314              		.loc 1 226 1 is_stmt 0 view .LVU70
 315 0000 10B5     		push	{r4, lr}
 316              	.LCFI4:
 317              		.cfi_def_cfa_offset 8
 318              		.cfi_offset 4, -8
 319              		.cfi_offset 14, -4
 227:Middlewares/ST/STM32_USB_Device_Library/Core/Src/usbd_core.c ****   USBD_StatusTypeDef ret = USBD_FAIL;
 320              		.loc 1 227 3 is_stmt 1 view .LVU71
 321              	.LVL23:
 228:Middlewares/ST/STM32_USB_Device_Library/Core/Src/usbd_core.c **** 
 229:Middlewares/ST/STM32_USB_Device_Library/Core/Src/usbd_core.c ****   if (pdev->pClass != NULL)
 322              		.loc 1 229 3 view .LVU72
 323              		.loc 1 229 11 is_stmt 0 view .LVU73
 324 0002 AD23     		movs	r3, #173
 325 0004 9B00     		lsls	r3, r3, #2
 326 0006 C358     		ldr	r3, [r0, r3]
 327              		.loc 1 229 6 view .LVU74
 328 0008 002B     		cmp	r3, #0
 329 000a 06D0     		beq	.L15
 230:Middlewares/ST/STM32_USB_Device_Library/Core/Src/usbd_core.c ****   {
 231:Middlewares/ST/STM32_USB_Device_Library/Core/Src/usbd_core.c ****     /* Set configuration  and Start the Class*/
 232:Middlewares/ST/STM32_USB_Device_Library/Core/Src/usbd_core.c ****     if (pdev->pClass->Init(pdev, cfgidx) == 0U)
 330              		.loc 1 232 5 is_stmt 1 view .LVU75
 331              		.loc 1 232 21 is_stmt 0 view .LVU76
 332 000c 1B68     		ldr	r3, [r3]
 333              		.loc 1 232 9 view .LVU77
 334 000e 9847     		blx	r3
 335              	.LVL24:
 336              		.loc 1 232 8 discriminator 1 view .LVU78
 337 0010 0028     		cmp	r0, #0
 338 0012 00D1     		bne	.L16
 339              	.L14:
 340              	.LVL25:
 233:Middlewares/ST/STM32_USB_Device_Library/Core/Src/usbd_core.c ****     {
 234:Middlewares/ST/STM32_USB_Device_Library/Core/Src/usbd_core.c ****       ret = USBD_OK;
 235:Middlewares/ST/STM32_USB_Device_Library/Core/Src/usbd_core.c ****     }
 236:Middlewares/ST/STM32_USB_Device_Library/Core/Src/usbd_core.c ****   }
 237:Middlewares/ST/STM32_USB_Device_Library/Core/Src/usbd_core.c **** 
 238:Middlewares/ST/STM32_USB_Device_Library/Core/Src/usbd_core.c ****   return ret;
 341              		.loc 1 238 3 is_stmt 1 view .LVU79
ARM GAS  /tmp/ccDq1InM.s 			page 11


 239:Middlewares/ST/STM32_USB_Device_Library/Core/Src/usbd_core.c **** }
 342              		.loc 1 239 1 is_stmt 0 view .LVU80
 343              		@ sp needed
 344 0014 10BD     		pop	{r4, pc}
 345              	.LVL26:
 346              	.L16:
 227:Middlewares/ST/STM32_USB_Device_Library/Core/Src/usbd_core.c **** 
 347              		.loc 1 227 22 view .LVU81
 348 0016 0220     		movs	r0, #2
 349 0018 FCE7     		b	.L14
 350              	.LVL27:
 351              	.L15:
 227:Middlewares/ST/STM32_USB_Device_Library/Core/Src/usbd_core.c **** 
 352              		.loc 1 227 22 view .LVU82
 353 001a 0220     		movs	r0, #2
 354              	.LVL28:
 227:Middlewares/ST/STM32_USB_Device_Library/Core/Src/usbd_core.c **** 
 355              		.loc 1 227 22 view .LVU83
 356 001c FAE7     		b	.L14
 357              		.cfi_endproc
 358              	.LFE49:
 360              		.section	.text.USBD_ClrClassConfig,"ax",%progbits
 361              		.align	1
 362              		.global	USBD_ClrClassConfig
 363              		.syntax unified
 364              		.code	16
 365              		.thumb_func
 367              	USBD_ClrClassConfig:
 368              	.LVL29:
 369              	.LFB50:
 240:Middlewares/ST/STM32_USB_Device_Library/Core/Src/usbd_core.c **** 
 241:Middlewares/ST/STM32_USB_Device_Library/Core/Src/usbd_core.c **** /**
 242:Middlewares/ST/STM32_USB_Device_Library/Core/Src/usbd_core.c **** * @brief  USBD_ClrClassConfig
 243:Middlewares/ST/STM32_USB_Device_Library/Core/Src/usbd_core.c **** *         Clear current configuration
 244:Middlewares/ST/STM32_USB_Device_Library/Core/Src/usbd_core.c **** * @param  pdev: device instance
 245:Middlewares/ST/STM32_USB_Device_Library/Core/Src/usbd_core.c **** * @param  cfgidx: configuration index
 246:Middlewares/ST/STM32_USB_Device_Library/Core/Src/usbd_core.c **** * @retval status: USBD_StatusTypeDef
 247:Middlewares/ST/STM32_USB_Device_Library/Core/Src/usbd_core.c **** */
 248:Middlewares/ST/STM32_USB_Device_Library/Core/Src/usbd_core.c **** USBD_StatusTypeDef USBD_ClrClassConfig(USBD_HandleTypeDef  *pdev, uint8_t cfgidx)
 249:Middlewares/ST/STM32_USB_Device_Library/Core/Src/usbd_core.c **** {
 370              		.loc 1 249 1 is_stmt 1 view -0
 371              		.cfi_startproc
 372              		@ args = 0, pretend = 0, frame = 0
 373              		@ frame_needed = 0, uses_anonymous_args = 0
 374              		.loc 1 249 1 is_stmt 0 view .LVU85
 375 0000 10B5     		push	{r4, lr}
 376              	.LCFI5:
 377              		.cfi_def_cfa_offset 8
 378              		.cfi_offset 4, -8
 379              		.cfi_offset 14, -4
 250:Middlewares/ST/STM32_USB_Device_Library/Core/Src/usbd_core.c ****   /* Clear configuration  and De-initialize the Class process*/
 251:Middlewares/ST/STM32_USB_Device_Library/Core/Src/usbd_core.c ****   pdev->pClass->DeInit(pdev, cfgidx);
 380              		.loc 1 251 3 is_stmt 1 view .LVU86
 381              		.loc 1 251 7 is_stmt 0 view .LVU87
 382 0002 AD23     		movs	r3, #173
 383 0004 9B00     		lsls	r3, r3, #2
 384 0006 C358     		ldr	r3, [r0, r3]
ARM GAS  /tmp/ccDq1InM.s 			page 12


 385              		.loc 1 251 15 view .LVU88
 386 0008 5B68     		ldr	r3, [r3, #4]
 387              		.loc 1 251 3 view .LVU89
 388 000a 9847     		blx	r3
 389              	.LVL30:
 252:Middlewares/ST/STM32_USB_Device_Library/Core/Src/usbd_core.c **** 
 253:Middlewares/ST/STM32_USB_Device_Library/Core/Src/usbd_core.c ****   return USBD_OK;
 390              		.loc 1 253 3 is_stmt 1 view .LVU90
 254:Middlewares/ST/STM32_USB_Device_Library/Core/Src/usbd_core.c **** }
 391              		.loc 1 254 1 is_stmt 0 view .LVU91
 392 000c 0020     		movs	r0, #0
 393              		@ sp needed
 394 000e 10BD     		pop	{r4, pc}
 395              		.cfi_endproc
 396              	.LFE50:
 398              		.section	.text.USBD_LL_SetupStage,"ax",%progbits
 399              		.align	1
 400              		.global	USBD_LL_SetupStage
 401              		.syntax unified
 402              		.code	16
 403              		.thumb_func
 405              	USBD_LL_SetupStage:
 406              	.LVL31:
 407              	.LFB51:
 255:Middlewares/ST/STM32_USB_Device_Library/Core/Src/usbd_core.c **** 
 256:Middlewares/ST/STM32_USB_Device_Library/Core/Src/usbd_core.c **** 
 257:Middlewares/ST/STM32_USB_Device_Library/Core/Src/usbd_core.c **** /**
 258:Middlewares/ST/STM32_USB_Device_Library/Core/Src/usbd_core.c **** * @brief  USBD_SetupStage
 259:Middlewares/ST/STM32_USB_Device_Library/Core/Src/usbd_core.c **** *         Handle the setup stage
 260:Middlewares/ST/STM32_USB_Device_Library/Core/Src/usbd_core.c **** * @param  pdev: device instance
 261:Middlewares/ST/STM32_USB_Device_Library/Core/Src/usbd_core.c **** * @retval status
 262:Middlewares/ST/STM32_USB_Device_Library/Core/Src/usbd_core.c **** */
 263:Middlewares/ST/STM32_USB_Device_Library/Core/Src/usbd_core.c **** USBD_StatusTypeDef USBD_LL_SetupStage(USBD_HandleTypeDef *pdev, uint8_t *psetup)
 264:Middlewares/ST/STM32_USB_Device_Library/Core/Src/usbd_core.c **** {
 408              		.loc 1 264 1 is_stmt 1 view -0
 409              		.cfi_startproc
 410              		@ args = 0, pretend = 0, frame = 0
 411              		@ frame_needed = 0, uses_anonymous_args = 0
 412              		.loc 1 264 1 is_stmt 0 view .LVU93
 413 0000 70B5     		push	{r4, r5, r6, lr}
 414              	.LCFI6:
 415              		.cfi_def_cfa_offset 16
 416              		.cfi_offset 4, -16
 417              		.cfi_offset 5, -12
 418              		.cfi_offset 6, -8
 419              		.cfi_offset 14, -4
 420 0002 0400     		movs	r4, r0
 265:Middlewares/ST/STM32_USB_Device_Library/Core/Src/usbd_core.c ****   USBD_ParseSetupRequest(&pdev->request, psetup);
 421              		.loc 1 265 3 is_stmt 1 view .LVU94
 422 0004 AA23     		movs	r3, #170
 423 0006 9B00     		lsls	r3, r3, #2
 424 0008 C518     		adds	r5, r0, r3
 425 000a 2800     		movs	r0, r5
 426              	.LVL32:
 427              		.loc 1 265 3 is_stmt 0 view .LVU95
 428 000c FFF7FEFF 		bl	USBD_ParseSetupRequest
 429              	.LVL33:
ARM GAS  /tmp/ccDq1InM.s 			page 13


 266:Middlewares/ST/STM32_USB_Device_Library/Core/Src/usbd_core.c **** 
 267:Middlewares/ST/STM32_USB_Device_Library/Core/Src/usbd_core.c ****   pdev->ep0_state = USBD_EP0_SETUP;
 430              		.loc 1 267 3 is_stmt 1 view .LVU96
 431              		.loc 1 267 19 is_stmt 0 view .LVU97
 432 0010 A523     		movs	r3, #165
 433 0012 9B00     		lsls	r3, r3, #2
 434 0014 0122     		movs	r2, #1
 435 0016 E250     		str	r2, [r4, r3]
 268:Middlewares/ST/STM32_USB_Device_Library/Core/Src/usbd_core.c **** 
 269:Middlewares/ST/STM32_USB_Device_Library/Core/Src/usbd_core.c ****   pdev->ep0_data_len = pdev->request.wLength;
 436              		.loc 1 269 3 is_stmt 1 view .LVU98
 437              		.loc 1 269 37 is_stmt 0 view .LVU99
 438 0018 114B     		ldr	r3, .L23
 439 001a E25A     		ldrh	r2, [r4, r3]
 440              		.loc 1 269 22 view .LVU100
 441 001c 163B     		subs	r3, r3, #22
 442 001e E250     		str	r2, [r4, r3]
 270:Middlewares/ST/STM32_USB_Device_Library/Core/Src/usbd_core.c **** 
 271:Middlewares/ST/STM32_USB_Device_Library/Core/Src/usbd_core.c ****   switch (pdev->request.bmRequest & 0x1FU)
 443              		.loc 1 271 3 is_stmt 1 view .LVU101
 444              		.loc 1 271 24 is_stmt 0 view .LVU102
 445 0020 1033     		adds	r3, r3, #16
 446 0022 E15C     		ldrb	r1, [r4, r3]
 447 0024 1F23     		movs	r3, #31
 448 0026 0B40     		ands	r3, r1
 449              		.loc 1 271 3 view .LVU103
 450 0028 012B     		cmp	r3, #1
 451 002a 09D0     		beq	.L19
 452 002c 022B     		cmp	r3, #2
 453 002e 0CD0     		beq	.L20
 454 0030 002B     		cmp	r3, #0
 455 0032 0FD1     		bne	.L21
 272:Middlewares/ST/STM32_USB_Device_Library/Core/Src/usbd_core.c ****   {
 273:Middlewares/ST/STM32_USB_Device_Library/Core/Src/usbd_core.c ****     case USB_REQ_RECIPIENT_DEVICE:
 274:Middlewares/ST/STM32_USB_Device_Library/Core/Src/usbd_core.c ****       USBD_StdDevReq(pdev, &pdev->request);
 456              		.loc 1 274 7 is_stmt 1 view .LVU104
 457 0034 2900     		movs	r1, r5
 458 0036 2000     		movs	r0, r4
 459 0038 FFF7FEFF 		bl	USBD_StdDevReq
 460              	.LVL34:
 275:Middlewares/ST/STM32_USB_Device_Library/Core/Src/usbd_core.c ****       break;
 461              		.loc 1 275 7 view .LVU105
 462              	.L22:
 276:Middlewares/ST/STM32_USB_Device_Library/Core/Src/usbd_core.c **** 
 277:Middlewares/ST/STM32_USB_Device_Library/Core/Src/usbd_core.c ****     case USB_REQ_RECIPIENT_INTERFACE:
 278:Middlewares/ST/STM32_USB_Device_Library/Core/Src/usbd_core.c ****       USBD_StdItfReq(pdev, &pdev->request);
 279:Middlewares/ST/STM32_USB_Device_Library/Core/Src/usbd_core.c ****       break;
 280:Middlewares/ST/STM32_USB_Device_Library/Core/Src/usbd_core.c **** 
 281:Middlewares/ST/STM32_USB_Device_Library/Core/Src/usbd_core.c ****     case USB_REQ_RECIPIENT_ENDPOINT:
 282:Middlewares/ST/STM32_USB_Device_Library/Core/Src/usbd_core.c ****       USBD_StdEPReq(pdev, &pdev->request);
 283:Middlewares/ST/STM32_USB_Device_Library/Core/Src/usbd_core.c ****       break;
 284:Middlewares/ST/STM32_USB_Device_Library/Core/Src/usbd_core.c **** 
 285:Middlewares/ST/STM32_USB_Device_Library/Core/Src/usbd_core.c ****     default:
 286:Middlewares/ST/STM32_USB_Device_Library/Core/Src/usbd_core.c ****       USBD_LL_StallEP(pdev, (pdev->request.bmRequest & 0x80U));
 287:Middlewares/ST/STM32_USB_Device_Library/Core/Src/usbd_core.c ****       break;
 288:Middlewares/ST/STM32_USB_Device_Library/Core/Src/usbd_core.c ****   }
 289:Middlewares/ST/STM32_USB_Device_Library/Core/Src/usbd_core.c **** 
ARM GAS  /tmp/ccDq1InM.s 			page 14


 290:Middlewares/ST/STM32_USB_Device_Library/Core/Src/usbd_core.c ****   return USBD_OK;
 463              		.loc 1 290 3 view .LVU106
 291:Middlewares/ST/STM32_USB_Device_Library/Core/Src/usbd_core.c **** }
 464              		.loc 1 291 1 is_stmt 0 view .LVU107
 465 003c 0020     		movs	r0, #0
 466              		@ sp needed
 467              	.LVL35:
 468              	.LVL36:
 469              		.loc 1 291 1 view .LVU108
 470 003e 70BD     		pop	{r4, r5, r6, pc}
 471              	.LVL37:
 472              	.L19:
 278:Middlewares/ST/STM32_USB_Device_Library/Core/Src/usbd_core.c ****       break;
 473              		.loc 1 278 7 is_stmt 1 view .LVU109
 474 0040 2900     		movs	r1, r5
 475 0042 2000     		movs	r0, r4
 476 0044 FFF7FEFF 		bl	USBD_StdItfReq
 477              	.LVL38:
 279:Middlewares/ST/STM32_USB_Device_Library/Core/Src/usbd_core.c **** 
 478              		.loc 1 279 7 view .LVU110
 479 0048 F8E7     		b	.L22
 480              	.L20:
 282:Middlewares/ST/STM32_USB_Device_Library/Core/Src/usbd_core.c ****       break;
 481              		.loc 1 282 7 view .LVU111
 482 004a 2900     		movs	r1, r5
 483 004c 2000     		movs	r0, r4
 484 004e FFF7FEFF 		bl	USBD_StdEPReq
 485              	.LVL39:
 283:Middlewares/ST/STM32_USB_Device_Library/Core/Src/usbd_core.c **** 
 486              		.loc 1 283 7 view .LVU112
 487 0052 F3E7     		b	.L22
 488              	.L21:
 286:Middlewares/ST/STM32_USB_Device_Library/Core/Src/usbd_core.c ****       break;
 489              		.loc 1 286 7 view .LVU113
 490 0054 7F23     		movs	r3, #127
 491 0056 9943     		bics	r1, r3
 492 0058 2000     		movs	r0, r4
 493 005a FFF7FEFF 		bl	USBD_LL_StallEP
 494              	.LVL40:
 287:Middlewares/ST/STM32_USB_Device_Library/Core/Src/usbd_core.c ****   }
 495              		.loc 1 287 7 view .LVU114
 496 005e EDE7     		b	.L22
 497              	.L24:
 498              		.align	2
 499              	.L23:
 500 0060 AE020000 		.word	686
 501              		.cfi_endproc
 502              	.LFE51:
 504              		.section	.text.USBD_LL_DataOutStage,"ax",%progbits
 505              		.align	1
 506              		.global	USBD_LL_DataOutStage
 507              		.syntax unified
 508              		.code	16
 509              		.thumb_func
 511              	USBD_LL_DataOutStage:
 512              	.LVL41:
 513              	.LFB52:
ARM GAS  /tmp/ccDq1InM.s 			page 15


 292:Middlewares/ST/STM32_USB_Device_Library/Core/Src/usbd_core.c **** 
 293:Middlewares/ST/STM32_USB_Device_Library/Core/Src/usbd_core.c **** /**
 294:Middlewares/ST/STM32_USB_Device_Library/Core/Src/usbd_core.c **** * @brief  USBD_DataOutStage
 295:Middlewares/ST/STM32_USB_Device_Library/Core/Src/usbd_core.c **** *         Handle data OUT stage
 296:Middlewares/ST/STM32_USB_Device_Library/Core/Src/usbd_core.c **** * @param  pdev: device instance
 297:Middlewares/ST/STM32_USB_Device_Library/Core/Src/usbd_core.c **** * @param  epnum: endpoint index
 298:Middlewares/ST/STM32_USB_Device_Library/Core/Src/usbd_core.c **** * @retval status
 299:Middlewares/ST/STM32_USB_Device_Library/Core/Src/usbd_core.c **** */
 300:Middlewares/ST/STM32_USB_Device_Library/Core/Src/usbd_core.c **** USBD_StatusTypeDef USBD_LL_DataOutStage(USBD_HandleTypeDef *pdev,
 301:Middlewares/ST/STM32_USB_Device_Library/Core/Src/usbd_core.c ****                                         uint8_t epnum, uint8_t *pdata)
 302:Middlewares/ST/STM32_USB_Device_Library/Core/Src/usbd_core.c **** {
 514              		.loc 1 302 1 view -0
 515              		.cfi_startproc
 516              		@ args = 0, pretend = 0, frame = 0
 517              		@ frame_needed = 0, uses_anonymous_args = 0
 518              		.loc 1 302 1 is_stmt 0 view .LVU116
 519 0000 70B5     		push	{r4, r5, r6, lr}
 520              	.LCFI7:
 521              		.cfi_def_cfa_offset 16
 522              		.cfi_offset 4, -16
 523              		.cfi_offset 5, -12
 524              		.cfi_offset 6, -8
 525              		.cfi_offset 14, -4
 526 0002 0500     		movs	r5, r0
 527 0004 0C00     		movs	r4, r1
 528 0006 1100     		movs	r1, r2
 529              	.LVL42:
 303:Middlewares/ST/STM32_USB_Device_Library/Core/Src/usbd_core.c ****   USBD_EndpointTypeDef *pep;
 530              		.loc 1 303 3 is_stmt 1 view .LVU117
 304:Middlewares/ST/STM32_USB_Device_Library/Core/Src/usbd_core.c **** 
 305:Middlewares/ST/STM32_USB_Device_Library/Core/Src/usbd_core.c ****   if (epnum == 0U)
 531              		.loc 1 305 3 view .LVU118
 532              		.loc 1 305 6 is_stmt 0 view .LVU119
 533 0008 002C     		cmp	r4, #0
 534 000a 38D1     		bne	.L26
 306:Middlewares/ST/STM32_USB_Device_Library/Core/Src/usbd_core.c ****   {
 307:Middlewares/ST/STM32_USB_Device_Library/Core/Src/usbd_core.c ****     pep = &pdev->ep_out[0];
 535              		.loc 1 307 5 is_stmt 1 view .LVU120
 536              	.LVL43:
 308:Middlewares/ST/STM32_USB_Device_Library/Core/Src/usbd_core.c **** 
 309:Middlewares/ST/STM32_USB_Device_Library/Core/Src/usbd_core.c ****     if (pdev->ep0_state == USBD_EP0_DATA_OUT)
 537              		.loc 1 309 5 view .LVU121
 538              		.loc 1 309 13 is_stmt 0 view .LVU122
 539 000c A523     		movs	r3, #165
 540 000e 9B00     		lsls	r3, r3, #2
 541 0010 C358     		ldr	r3, [r0, r3]
 542              		.loc 1 309 8 view .LVU123
 543 0012 032B     		cmp	r3, #3
 544 0014 03D0     		beq	.L36
 310:Middlewares/ST/STM32_USB_Device_Library/Core/Src/usbd_core.c ****     {
 311:Middlewares/ST/STM32_USB_Device_Library/Core/Src/usbd_core.c ****       if (pep->rem_length > pep->maxpacket)
 312:Middlewares/ST/STM32_USB_Device_Library/Core/Src/usbd_core.c ****       {
 313:Middlewares/ST/STM32_USB_Device_Library/Core/Src/usbd_core.c ****         pep->rem_length -= pep->maxpacket;
 314:Middlewares/ST/STM32_USB_Device_Library/Core/Src/usbd_core.c **** 
 315:Middlewares/ST/STM32_USB_Device_Library/Core/Src/usbd_core.c ****         USBD_CtlContinueRx(pdev, pdata,
 316:Middlewares/ST/STM32_USB_Device_Library/Core/Src/usbd_core.c ****                            (uint16_t)MIN(pep->rem_length, pep->maxpacket));
 317:Middlewares/ST/STM32_USB_Device_Library/Core/Src/usbd_core.c ****       }
ARM GAS  /tmp/ccDq1InM.s 			page 16


 318:Middlewares/ST/STM32_USB_Device_Library/Core/Src/usbd_core.c ****       else
 319:Middlewares/ST/STM32_USB_Device_Library/Core/Src/usbd_core.c ****       {
 320:Middlewares/ST/STM32_USB_Device_Library/Core/Src/usbd_core.c ****         if ((pdev->pClass->EP0_RxReady != NULL) &&
 321:Middlewares/ST/STM32_USB_Device_Library/Core/Src/usbd_core.c ****             (pdev->dev_state == USBD_STATE_CONFIGURED))
 322:Middlewares/ST/STM32_USB_Device_Library/Core/Src/usbd_core.c ****         {
 323:Middlewares/ST/STM32_USB_Device_Library/Core/Src/usbd_core.c ****           pdev->pClass->EP0_RxReady(pdev);
 324:Middlewares/ST/STM32_USB_Device_Library/Core/Src/usbd_core.c ****         }
 325:Middlewares/ST/STM32_USB_Device_Library/Core/Src/usbd_core.c ****         USBD_CtlSendStatus(pdev);
 326:Middlewares/ST/STM32_USB_Device_Library/Core/Src/usbd_core.c ****       }
 327:Middlewares/ST/STM32_USB_Device_Library/Core/Src/usbd_core.c ****     }
 328:Middlewares/ST/STM32_USB_Device_Library/Core/Src/usbd_core.c ****     else
 329:Middlewares/ST/STM32_USB_Device_Library/Core/Src/usbd_core.c ****     {
 330:Middlewares/ST/STM32_USB_Device_Library/Core/Src/usbd_core.c ****       if (pdev->ep0_state == USBD_EP0_STATUS_OUT)
 545              		.loc 1 330 7 is_stmt 1 view .LVU124
 546              		.loc 1 330 10 is_stmt 0 view .LVU125
 547 0016 052B     		cmp	r3, #5
 548 0018 28D0     		beq	.L37
 331:Middlewares/ST/STM32_USB_Device_Library/Core/Src/usbd_core.c ****       {
 332:Middlewares/ST/STM32_USB_Device_Library/Core/Src/usbd_core.c ****         /*
 333:Middlewares/ST/STM32_USB_Device_Library/Core/Src/usbd_core.c ****          * STATUS PHASE completed, update ep0_state to idle
 334:Middlewares/ST/STM32_USB_Device_Library/Core/Src/usbd_core.c ****          */
 335:Middlewares/ST/STM32_USB_Device_Library/Core/Src/usbd_core.c ****         pdev->ep0_state = USBD_EP0_IDLE;
 336:Middlewares/ST/STM32_USB_Device_Library/Core/Src/usbd_core.c ****         USBD_LL_StallEP(pdev, 0U);
 337:Middlewares/ST/STM32_USB_Device_Library/Core/Src/usbd_core.c ****       }
 338:Middlewares/ST/STM32_USB_Device_Library/Core/Src/usbd_core.c ****     }
 339:Middlewares/ST/STM32_USB_Device_Library/Core/Src/usbd_core.c ****   }
 340:Middlewares/ST/STM32_USB_Device_Library/Core/Src/usbd_core.c ****   else if ((pdev->pClass->DataOut != NULL) &&
 341:Middlewares/ST/STM32_USB_Device_Library/Core/Src/usbd_core.c ****            (pdev->dev_state == USBD_STATE_CONFIGURED))
 342:Middlewares/ST/STM32_USB_Device_Library/Core/Src/usbd_core.c ****   {
 343:Middlewares/ST/STM32_USB_Device_Library/Core/Src/usbd_core.c ****     pdev->pClass->DataOut(pdev, epnum);
 344:Middlewares/ST/STM32_USB_Device_Library/Core/Src/usbd_core.c ****   }
 345:Middlewares/ST/STM32_USB_Device_Library/Core/Src/usbd_core.c ****   else
 346:Middlewares/ST/STM32_USB_Device_Library/Core/Src/usbd_core.c ****   {
 347:Middlewares/ST/STM32_USB_Device_Library/Core/Src/usbd_core.c ****     /* should never be in this condition */
 348:Middlewares/ST/STM32_USB_Device_Library/Core/Src/usbd_core.c ****     return USBD_FAIL;
 349:Middlewares/ST/STM32_USB_Device_Library/Core/Src/usbd_core.c ****   }
 350:Middlewares/ST/STM32_USB_Device_Library/Core/Src/usbd_core.c **** 
 351:Middlewares/ST/STM32_USB_Device_Library/Core/Src/usbd_core.c ****   return USBD_OK;
 549              		.loc 1 351 10 view .LVU126
 550 001a 2000     		movs	r0, r4
 551              	.LVL44:
 552              		.loc 1 351 10 view .LVU127
 553 001c 3DE0     		b	.L31
 554              	.LVL45:
 555              	.L36:
 311:Middlewares/ST/STM32_USB_Device_Library/Core/Src/usbd_core.c ****       {
 556              		.loc 1 311 7 is_stmt 1 view .LVU128
 311:Middlewares/ST/STM32_USB_Device_Library/Core/Src/usbd_core.c ****       {
 557              		.loc 1 311 14 is_stmt 0 view .LVU129
 558 001e 0200     		movs	r2, r0
 559              	.LVL46:
 311:Middlewares/ST/STM32_USB_Device_Library/Core/Src/usbd_core.c ****       {
 560              		.loc 1 311 14 view .LVU130
 561 0020 5532     		adds	r2, r2, #85
 562 0022 FF32     		adds	r2, r2, #255
 563 0024 D368     		ldr	r3, [r2, #12]
 311:Middlewares/ST/STM32_USB_Device_Library/Core/Src/usbd_core.c ****       {
ARM GAS  /tmp/ccDq1InM.s 			page 17


 564              		.loc 1 311 32 view .LVU131
 565 0026 1269     		ldr	r2, [r2, #16]
 311:Middlewares/ST/STM32_USB_Device_Library/Core/Src/usbd_core.c ****       {
 566              		.loc 1 311 10 view .LVU132
 567 0028 9342     		cmp	r3, r2
 568 002a 0DD9     		bls	.L28
 313:Middlewares/ST/STM32_USB_Device_Library/Core/Src/usbd_core.c **** 
 569              		.loc 1 313 9 is_stmt 1 view .LVU133
 313:Middlewares/ST/STM32_USB_Device_Library/Core/Src/usbd_core.c **** 
 570              		.loc 1 313 25 is_stmt 0 view .LVU134
 571 002c 9B1A     		subs	r3, r3, r2
 572 002e 5530     		adds	r0, r0, #85
 573              	.LVL47:
 313:Middlewares/ST/STM32_USB_Device_Library/Core/Src/usbd_core.c **** 
 574              		.loc 1 313 25 view .LVU135
 575 0030 FF30     		adds	r0, r0, #255
 576 0032 C360     		str	r3, [r0, #12]
 315:Middlewares/ST/STM32_USB_Device_Library/Core/Src/usbd_core.c ****                            (uint16_t)MIN(pep->rem_length, pep->maxpacket));
 577              		.loc 1 315 9 is_stmt 1 view .LVU136
 578 0034 9A42     		cmp	r2, r3
 579 0036 05D9     		bls	.L29
 315:Middlewares/ST/STM32_USB_Device_Library/Core/Src/usbd_core.c ****                            (uint16_t)MIN(pep->rem_length, pep->maxpacket));
 580              		.loc 1 315 9 is_stmt 0 discriminator 1 view .LVU137
 581 0038 9AB2     		uxth	r2, r3
 582              	.L30:
 315:Middlewares/ST/STM32_USB_Device_Library/Core/Src/usbd_core.c ****                            (uint16_t)MIN(pep->rem_length, pep->maxpacket));
 583              		.loc 1 315 9 discriminator 4 view .LVU138
 584 003a 2800     		movs	r0, r5
 585 003c FFF7FEFF 		bl	USBD_CtlContinueRx
 586              	.LVL48:
 587              		.loc 1 351 10 view .LVU139
 588 0040 2000     		movs	r0, r4
 589 0042 2AE0     		b	.L31
 590              	.LVL49:
 591              	.L29:
 315:Middlewares/ST/STM32_USB_Device_Library/Core/Src/usbd_core.c ****                            (uint16_t)MIN(pep->rem_length, pep->maxpacket));
 592              		.loc 1 315 9 discriminator 2 view .LVU140
 593 0044 92B2     		uxth	r2, r2
 594 0046 F8E7     		b	.L30
 595              	.LVL50:
 596              	.L28:
 320:Middlewares/ST/STM32_USB_Device_Library/Core/Src/usbd_core.c ****             (pdev->dev_state == USBD_STATE_CONFIGURED))
 597              		.loc 1 320 9 is_stmt 1 view .LVU141
 320:Middlewares/ST/STM32_USB_Device_Library/Core/Src/usbd_core.c ****             (pdev->dev_state == USBD_STATE_CONFIGURED))
 598              		.loc 1 320 18 is_stmt 0 view .LVU142
 599 0048 AD23     		movs	r3, #173
 600 004a 9B00     		lsls	r3, r3, #2
 601 004c C358     		ldr	r3, [r0, r3]
 320:Middlewares/ST/STM32_USB_Device_Library/Core/Src/usbd_core.c ****             (pdev->dev_state == USBD_STATE_CONFIGURED))
 602              		.loc 1 320 26 view .LVU143
 603 004e 1B69     		ldr	r3, [r3, #16]
 320:Middlewares/ST/STM32_USB_Device_Library/Core/Src/usbd_core.c ****             (pdev->dev_state == USBD_STATE_CONFIGURED))
 604              		.loc 1 320 12 view .LVU144
 605 0050 002B     		cmp	r3, #0
 606 0052 04D0     		beq	.L32
 321:Middlewares/ST/STM32_USB_Device_Library/Core/Src/usbd_core.c ****         {
 607              		.loc 1 321 18 view .LVU145
ARM GAS  /tmp/ccDq1InM.s 			page 18


 608 0054 A722     		movs	r2, #167
 609 0056 9200     		lsls	r2, r2, #2
 610 0058 825C     		ldrb	r2, [r0, r2]
 320:Middlewares/ST/STM32_USB_Device_Library/Core/Src/usbd_core.c ****             (pdev->dev_state == USBD_STATE_CONFIGURED))
 611              		.loc 1 320 49 discriminator 1 view .LVU146
 612 005a 032A     		cmp	r2, #3
 613 005c 04D0     		beq	.L38
 614              	.LVL51:
 615              	.L32:
 325:Middlewares/ST/STM32_USB_Device_Library/Core/Src/usbd_core.c ****       }
 616              		.loc 1 325 9 is_stmt 1 view .LVU147
 617 005e 2800     		movs	r0, r5
 618 0060 FFF7FEFF 		bl	USBD_CtlSendStatus
 619              	.LVL52:
 620              		.loc 1 351 10 is_stmt 0 view .LVU148
 621 0064 2000     		movs	r0, r4
 622 0066 18E0     		b	.L31
 623              	.LVL53:
 624              	.L38:
 323:Middlewares/ST/STM32_USB_Device_Library/Core/Src/usbd_core.c ****         }
 625              		.loc 1 323 11 is_stmt 1 view .LVU149
 626 0068 9847     		blx	r3
 627              	.LVL54:
 323:Middlewares/ST/STM32_USB_Device_Library/Core/Src/usbd_core.c ****         }
 628              		.loc 1 323 11 is_stmt 0 view .LVU150
 629 006a F8E7     		b	.L32
 630              	.LVL55:
 631              	.L37:
 335:Middlewares/ST/STM32_USB_Device_Library/Core/Src/usbd_core.c ****         USBD_LL_StallEP(pdev, 0U);
 632              		.loc 1 335 9 is_stmt 1 view .LVU151
 335:Middlewares/ST/STM32_USB_Device_Library/Core/Src/usbd_core.c ****         USBD_LL_StallEP(pdev, 0U);
 633              		.loc 1 335 25 is_stmt 0 view .LVU152
 634 006c A523     		movs	r3, #165
 635 006e 9B00     		lsls	r3, r3, #2
 636 0070 0022     		movs	r2, #0
 637 0072 C250     		str	r2, [r0, r3]
 336:Middlewares/ST/STM32_USB_Device_Library/Core/Src/usbd_core.c ****       }
 638              		.loc 1 336 9 is_stmt 1 view .LVU153
 639 0074 0021     		movs	r1, #0
 640              	.LVL56:
 336:Middlewares/ST/STM32_USB_Device_Library/Core/Src/usbd_core.c ****       }
 641              		.loc 1 336 9 is_stmt 0 view .LVU154
 642 0076 FFF7FEFF 		bl	USBD_LL_StallEP
 643              	.LVL57:
 644              		.loc 1 351 10 view .LVU155
 645 007a 2000     		movs	r0, r4
 646 007c 0DE0     		b	.L31
 647              	.LVL58:
 648              	.L26:
 340:Middlewares/ST/STM32_USB_Device_Library/Core/Src/usbd_core.c ****            (pdev->dev_state == USBD_STATE_CONFIGURED))
 649              		.loc 1 340 8 is_stmt 1 view .LVU156
 340:Middlewares/ST/STM32_USB_Device_Library/Core/Src/usbd_core.c ****            (pdev->dev_state == USBD_STATE_CONFIGURED))
 650              		.loc 1 340 17 is_stmt 0 view .LVU157
 651 007e AD23     		movs	r3, #173
 652 0080 9B00     		lsls	r3, r3, #2
 653 0082 C358     		ldr	r3, [r0, r3]
 340:Middlewares/ST/STM32_USB_Device_Library/Core/Src/usbd_core.c ****            (pdev->dev_state == USBD_STATE_CONFIGURED))
ARM GAS  /tmp/ccDq1InM.s 			page 19


 654              		.loc 1 340 25 view .LVU158
 655 0084 9B69     		ldr	r3, [r3, #24]
 340:Middlewares/ST/STM32_USB_Device_Library/Core/Src/usbd_core.c ****            (pdev->dev_state == USBD_STATE_CONFIGURED))
 656              		.loc 1 340 11 view .LVU159
 657 0086 002B     		cmp	r3, #0
 658 0088 08D0     		beq	.L34
 341:Middlewares/ST/STM32_USB_Device_Library/Core/Src/usbd_core.c ****   {
 659              		.loc 1 341 17 view .LVU160
 660 008a A722     		movs	r2, #167
 661 008c 9200     		lsls	r2, r2, #2
 662 008e 825C     		ldrb	r2, [r0, r2]
 340:Middlewares/ST/STM32_USB_Device_Library/Core/Src/usbd_core.c ****            (pdev->dev_state == USBD_STATE_CONFIGURED))
 663              		.loc 1 340 44 discriminator 1 view .LVU161
 664 0090 032A     		cmp	r2, #3
 665 0092 05D1     		bne	.L35
 343:Middlewares/ST/STM32_USB_Device_Library/Core/Src/usbd_core.c ****   }
 666              		.loc 1 343 5 is_stmt 1 view .LVU162
 667 0094 2100     		movs	r1, r4
 668              	.LVL59:
 343:Middlewares/ST/STM32_USB_Device_Library/Core/Src/usbd_core.c ****   }
 669              		.loc 1 343 5 is_stmt 0 view .LVU163
 670 0096 9847     		blx	r3
 671              	.LVL60:
 672              		.loc 1 351 10 view .LVU164
 673 0098 0020     		movs	r0, #0
 674              	.L31:
 352:Middlewares/ST/STM32_USB_Device_Library/Core/Src/usbd_core.c **** }
 675              		.loc 1 352 1 view .LVU165
 676              		@ sp needed
 677              	.LVL61:
 678              	.LVL62:
 679              		.loc 1 352 1 view .LVU166
 680 009a 70BD     		pop	{r4, r5, r6, pc}
 681              	.LVL63:
 682              	.L34:
 348:Middlewares/ST/STM32_USB_Device_Library/Core/Src/usbd_core.c ****   }
 683              		.loc 1 348 12 view .LVU167
 684 009c 0220     		movs	r0, #2
 685              	.LVL64:
 348:Middlewares/ST/STM32_USB_Device_Library/Core/Src/usbd_core.c ****   }
 686              		.loc 1 348 12 view .LVU168
 687 009e FCE7     		b	.L31
 688              	.LVL65:
 689              	.L35:
 348:Middlewares/ST/STM32_USB_Device_Library/Core/Src/usbd_core.c ****   }
 690              		.loc 1 348 12 view .LVU169
 691 00a0 0220     		movs	r0, #2
 692              	.LVL66:
 348:Middlewares/ST/STM32_USB_Device_Library/Core/Src/usbd_core.c ****   }
 693              		.loc 1 348 12 view .LVU170
 694 00a2 FAE7     		b	.L31
 695              		.cfi_endproc
 696              	.LFE52:
 698              		.section	.text.USBD_LL_DataInStage,"ax",%progbits
 699              		.align	1
 700              		.global	USBD_LL_DataInStage
 701              		.syntax unified
ARM GAS  /tmp/ccDq1InM.s 			page 20


 702              		.code	16
 703              		.thumb_func
 705              	USBD_LL_DataInStage:
 706              	.LVL67:
 707              	.LFB53:
 353:Middlewares/ST/STM32_USB_Device_Library/Core/Src/usbd_core.c **** 
 354:Middlewares/ST/STM32_USB_Device_Library/Core/Src/usbd_core.c **** /**
 355:Middlewares/ST/STM32_USB_Device_Library/Core/Src/usbd_core.c **** * @brief  USBD_DataInStage
 356:Middlewares/ST/STM32_USB_Device_Library/Core/Src/usbd_core.c **** *         Handle data in stage
 357:Middlewares/ST/STM32_USB_Device_Library/Core/Src/usbd_core.c **** * @param  pdev: device instance
 358:Middlewares/ST/STM32_USB_Device_Library/Core/Src/usbd_core.c **** * @param  epnum: endpoint index
 359:Middlewares/ST/STM32_USB_Device_Library/Core/Src/usbd_core.c **** * @retval status
 360:Middlewares/ST/STM32_USB_Device_Library/Core/Src/usbd_core.c **** */
 361:Middlewares/ST/STM32_USB_Device_Library/Core/Src/usbd_core.c **** USBD_StatusTypeDef USBD_LL_DataInStage(USBD_HandleTypeDef *pdev,
 362:Middlewares/ST/STM32_USB_Device_Library/Core/Src/usbd_core.c ****                                        uint8_t epnum, uint8_t *pdata)
 363:Middlewares/ST/STM32_USB_Device_Library/Core/Src/usbd_core.c **** {
 708              		.loc 1 363 1 is_stmt 1 view -0
 709              		.cfi_startproc
 710              		@ args = 0, pretend = 0, frame = 0
 711              		@ frame_needed = 0, uses_anonymous_args = 0
 712              		.loc 1 363 1 is_stmt 0 view .LVU172
 713 0000 F8B5     		push	{r3, r4, r5, r6, r7, lr}
 714              	.LCFI8:
 715              		.cfi_def_cfa_offset 24
 716              		.cfi_offset 3, -24
 717              		.cfi_offset 4, -20
 718              		.cfi_offset 5, -16
 719              		.cfi_offset 6, -12
 720              		.cfi_offset 7, -8
 721              		.cfi_offset 14, -4
 722 0002 0500     		movs	r5, r0
 723 0004 0C00     		movs	r4, r1
 724 0006 1100     		movs	r1, r2
 725              	.LVL68:
 364:Middlewares/ST/STM32_USB_Device_Library/Core/Src/usbd_core.c ****   USBD_EndpointTypeDef *pep;
 726              		.loc 1 364 3 is_stmt 1 view .LVU173
 365:Middlewares/ST/STM32_USB_Device_Library/Core/Src/usbd_core.c **** 
 366:Middlewares/ST/STM32_USB_Device_Library/Core/Src/usbd_core.c ****   if (epnum == 0U)
 727              		.loc 1 366 3 view .LVU174
 728              		.loc 1 366 6 is_stmt 0 view .LVU175
 729 0008 002C     		cmp	r4, #0
 730 000a 5BD1     		bne	.L40
 367:Middlewares/ST/STM32_USB_Device_Library/Core/Src/usbd_core.c ****   {
 368:Middlewares/ST/STM32_USB_Device_Library/Core/Src/usbd_core.c ****     pep = &pdev->ep_in[0];
 731              		.loc 1 368 5 is_stmt 1 view .LVU176
 732              	.LVL69:
 369:Middlewares/ST/STM32_USB_Device_Library/Core/Src/usbd_core.c **** 
 370:Middlewares/ST/STM32_USB_Device_Library/Core/Src/usbd_core.c ****     if (pdev->ep0_state == USBD_EP0_DATA_IN)
 733              		.loc 1 370 5 view .LVU177
 734              		.loc 1 370 13 is_stmt 0 view .LVU178
 735 000c A523     		movs	r3, #165
 736 000e 9B00     		lsls	r3, r3, #2
 737 0010 C358     		ldr	r3, [r0, r3]
 738              		.loc 1 370 8 view .LVU179
 739 0012 022B     		cmp	r3, #2
 740 0014 0ED0     		beq	.L51
 371:Middlewares/ST/STM32_USB_Device_Library/Core/Src/usbd_core.c ****     {
ARM GAS  /tmp/ccDq1InM.s 			page 21


 372:Middlewares/ST/STM32_USB_Device_Library/Core/Src/usbd_core.c ****       if (pep->rem_length > pep->maxpacket)
 373:Middlewares/ST/STM32_USB_Device_Library/Core/Src/usbd_core.c ****       {
 374:Middlewares/ST/STM32_USB_Device_Library/Core/Src/usbd_core.c ****         pep->rem_length -= pep->maxpacket;
 375:Middlewares/ST/STM32_USB_Device_Library/Core/Src/usbd_core.c **** 
 376:Middlewares/ST/STM32_USB_Device_Library/Core/Src/usbd_core.c ****         USBD_CtlContinueSendData(pdev, pdata, (uint16_t)pep->rem_length);
 377:Middlewares/ST/STM32_USB_Device_Library/Core/Src/usbd_core.c **** 
 378:Middlewares/ST/STM32_USB_Device_Library/Core/Src/usbd_core.c ****         /* Prepare endpoint for premature end of transfer */
 379:Middlewares/ST/STM32_USB_Device_Library/Core/Src/usbd_core.c ****         USBD_LL_PrepareReceive(pdev, 0U, NULL, 0U);
 380:Middlewares/ST/STM32_USB_Device_Library/Core/Src/usbd_core.c ****       }
 381:Middlewares/ST/STM32_USB_Device_Library/Core/Src/usbd_core.c ****       else
 382:Middlewares/ST/STM32_USB_Device_Library/Core/Src/usbd_core.c ****       {
 383:Middlewares/ST/STM32_USB_Device_Library/Core/Src/usbd_core.c ****         /* last packet is MPS multiple, so send ZLP packet */
 384:Middlewares/ST/STM32_USB_Device_Library/Core/Src/usbd_core.c ****         if ((pep->total_length % pep->maxpacket == 0U) &&
 385:Middlewares/ST/STM32_USB_Device_Library/Core/Src/usbd_core.c ****             (pep->total_length >= pep->maxpacket) &&
 386:Middlewares/ST/STM32_USB_Device_Library/Core/Src/usbd_core.c ****             (pep->total_length < pdev->ep0_data_len))
 387:Middlewares/ST/STM32_USB_Device_Library/Core/Src/usbd_core.c ****         {
 388:Middlewares/ST/STM32_USB_Device_Library/Core/Src/usbd_core.c ****           USBD_CtlContinueSendData(pdev, NULL, 0U);
 389:Middlewares/ST/STM32_USB_Device_Library/Core/Src/usbd_core.c ****           pdev->ep0_data_len = 0U;
 390:Middlewares/ST/STM32_USB_Device_Library/Core/Src/usbd_core.c **** 
 391:Middlewares/ST/STM32_USB_Device_Library/Core/Src/usbd_core.c ****           /* Prepare endpoint for premature end of transfer */
 392:Middlewares/ST/STM32_USB_Device_Library/Core/Src/usbd_core.c ****           USBD_LL_PrepareReceive(pdev, 0U, NULL, 0U);
 393:Middlewares/ST/STM32_USB_Device_Library/Core/Src/usbd_core.c ****         }
 394:Middlewares/ST/STM32_USB_Device_Library/Core/Src/usbd_core.c ****         else
 395:Middlewares/ST/STM32_USB_Device_Library/Core/Src/usbd_core.c ****         {
 396:Middlewares/ST/STM32_USB_Device_Library/Core/Src/usbd_core.c ****           if ((pdev->pClass->EP0_TxSent != NULL) &&
 397:Middlewares/ST/STM32_USB_Device_Library/Core/Src/usbd_core.c ****               (pdev->dev_state == USBD_STATE_CONFIGURED))
 398:Middlewares/ST/STM32_USB_Device_Library/Core/Src/usbd_core.c ****           {
 399:Middlewares/ST/STM32_USB_Device_Library/Core/Src/usbd_core.c ****             pdev->pClass->EP0_TxSent(pdev);
 400:Middlewares/ST/STM32_USB_Device_Library/Core/Src/usbd_core.c ****           }
 401:Middlewares/ST/STM32_USB_Device_Library/Core/Src/usbd_core.c ****           USBD_LL_StallEP(pdev, 0x80U);
 402:Middlewares/ST/STM32_USB_Device_Library/Core/Src/usbd_core.c ****           USBD_CtlReceiveStatus(pdev);
 403:Middlewares/ST/STM32_USB_Device_Library/Core/Src/usbd_core.c ****         }
 404:Middlewares/ST/STM32_USB_Device_Library/Core/Src/usbd_core.c ****       }
 405:Middlewares/ST/STM32_USB_Device_Library/Core/Src/usbd_core.c ****     }
 406:Middlewares/ST/STM32_USB_Device_Library/Core/Src/usbd_core.c ****     else
 407:Middlewares/ST/STM32_USB_Device_Library/Core/Src/usbd_core.c ****     {
 408:Middlewares/ST/STM32_USB_Device_Library/Core/Src/usbd_core.c ****       if ((pdev->ep0_state == USBD_EP0_STATUS_IN) ||
 741              		.loc 1 408 7 is_stmt 1 view .LVU180
 742              		.loc 1 408 10 is_stmt 0 view .LVU181
 743 0016 042B     		cmp	r3, #4
 744 0018 01D0     		beq	.L46
 745              		.loc 1 408 51 discriminator 1 view .LVU182
 746 001a 002B     		cmp	r3, #0
 747 001c 03D1     		bne	.L43
 748              	.L46:
 409:Middlewares/ST/STM32_USB_Device_Library/Core/Src/usbd_core.c ****           (pdev->ep0_state == USBD_EP0_IDLE))
 410:Middlewares/ST/STM32_USB_Device_Library/Core/Src/usbd_core.c ****       {
 411:Middlewares/ST/STM32_USB_Device_Library/Core/Src/usbd_core.c ****         USBD_LL_StallEP(pdev, 0x80U);
 749              		.loc 1 411 9 is_stmt 1 view .LVU183
 750 001e 8021     		movs	r1, #128
 751 0020 2800     		movs	r0, r5
 752              	.LVL70:
 753              		.loc 1 411 9 is_stmt 0 view .LVU184
 754 0022 FFF7FEFF 		bl	USBD_LL_StallEP
 755              	.LVL71:
 756              	.L43:
 412:Middlewares/ST/STM32_USB_Device_Library/Core/Src/usbd_core.c ****       }
ARM GAS  /tmp/ccDq1InM.s 			page 22


 413:Middlewares/ST/STM32_USB_Device_Library/Core/Src/usbd_core.c ****     }
 414:Middlewares/ST/STM32_USB_Device_Library/Core/Src/usbd_core.c **** 
 415:Middlewares/ST/STM32_USB_Device_Library/Core/Src/usbd_core.c ****     if (pdev->dev_test_mode == 1U)
 757              		.loc 1 415 5 is_stmt 1 view .LVU185
 758              		.loc 1 415 13 is_stmt 0 view .LVU186
 759 0026 A823     		movs	r3, #168
 760 0028 9B00     		lsls	r3, r3, #2
 761 002a EB5C     		ldrb	r3, [r5, r3]
 762              		.loc 1 415 8 view .LVU187
 763 002c 012B     		cmp	r3, #1
 764 002e 43D0     		beq	.L52
 416:Middlewares/ST/STM32_USB_Device_Library/Core/Src/usbd_core.c ****     {
 417:Middlewares/ST/STM32_USB_Device_Library/Core/Src/usbd_core.c ****       USBD_RunTestMode(pdev);
 418:Middlewares/ST/STM32_USB_Device_Library/Core/Src/usbd_core.c ****       pdev->dev_test_mode = 0U;
 419:Middlewares/ST/STM32_USB_Device_Library/Core/Src/usbd_core.c ****     }
 420:Middlewares/ST/STM32_USB_Device_Library/Core/Src/usbd_core.c ****   }
 421:Middlewares/ST/STM32_USB_Device_Library/Core/Src/usbd_core.c ****   else if ((pdev->pClass->DataIn != NULL) &&
 422:Middlewares/ST/STM32_USB_Device_Library/Core/Src/usbd_core.c ****            (pdev->dev_state == USBD_STATE_CONFIGURED))
 423:Middlewares/ST/STM32_USB_Device_Library/Core/Src/usbd_core.c ****   {
 424:Middlewares/ST/STM32_USB_Device_Library/Core/Src/usbd_core.c ****     pdev->pClass->DataIn(pdev, epnum);
 425:Middlewares/ST/STM32_USB_Device_Library/Core/Src/usbd_core.c ****   }
 426:Middlewares/ST/STM32_USB_Device_Library/Core/Src/usbd_core.c ****   else
 427:Middlewares/ST/STM32_USB_Device_Library/Core/Src/usbd_core.c ****   {
 428:Middlewares/ST/STM32_USB_Device_Library/Core/Src/usbd_core.c ****     /* should never be in this condition */
 429:Middlewares/ST/STM32_USB_Device_Library/Core/Src/usbd_core.c ****     return USBD_FAIL;
 430:Middlewares/ST/STM32_USB_Device_Library/Core/Src/usbd_core.c ****   }
 431:Middlewares/ST/STM32_USB_Device_Library/Core/Src/usbd_core.c **** 
 432:Middlewares/ST/STM32_USB_Device_Library/Core/Src/usbd_core.c ****   return USBD_OK;
 765              		.loc 1 432 10 view .LVU188
 766 0030 2000     		movs	r0, r4
 767              	.LVL72:
 768              	.L47:
 433:Middlewares/ST/STM32_USB_Device_Library/Core/Src/usbd_core.c **** }
 769              		.loc 1 433 1 view .LVU189
 770              		@ sp needed
 771              	.LVL73:
 772              	.LVL74:
 773              		.loc 1 433 1 view .LVU190
 774 0032 F8BD     		pop	{r3, r4, r5, r6, r7, pc}
 775              	.LVL75:
 776              	.L51:
 372:Middlewares/ST/STM32_USB_Device_Library/Core/Src/usbd_core.c ****       {
 777              		.loc 1 372 7 is_stmt 1 view .LVU191
 372:Middlewares/ST/STM32_USB_Device_Library/Core/Src/usbd_core.c ****       {
 778              		.loc 1 372 14 is_stmt 0 view .LVU192
 779 0034 026A     		ldr	r2, [r0, #32]
 372:Middlewares/ST/STM32_USB_Device_Library/Core/Src/usbd_core.c ****       {
 780              		.loc 1 372 32 view .LVU193
 781 0036 466A     		ldr	r6, [r0, #36]
 372:Middlewares/ST/STM32_USB_Device_Library/Core/Src/usbd_core.c ****       {
 782              		.loc 1 372 10 view .LVU194
 783 0038 B242     		cmp	r2, r6
 784 003a 20D8     		bhi	.L53
 384:Middlewares/ST/STM32_USB_Device_Library/Core/Src/usbd_core.c ****             (pep->total_length >= pep->maxpacket) &&
 785              		.loc 1 384 9 is_stmt 1 view .LVU195
 384:Middlewares/ST/STM32_USB_Device_Library/Core/Src/usbd_core.c ****             (pep->total_length >= pep->maxpacket) &&
 786              		.loc 1 384 17 is_stmt 0 view .LVU196
ARM GAS  /tmp/ccDq1InM.s 			page 23


 787 003c C769     		ldr	r7, [r0, #28]
 384:Middlewares/ST/STM32_USB_Device_Library/Core/Src/usbd_core.c ****             (pep->total_length >= pep->maxpacket) &&
 788              		.loc 1 384 32 view .LVU197
 789 003e 3100     		movs	r1, r6
 790              	.LVL76:
 384:Middlewares/ST/STM32_USB_Device_Library/Core/Src/usbd_core.c ****             (pep->total_length >= pep->maxpacket) &&
 791              		.loc 1 384 32 view .LVU198
 792 0040 3800     		movs	r0, r7
 793              	.LVL77:
 384:Middlewares/ST/STM32_USB_Device_Library/Core/Src/usbd_core.c ****             (pep->total_length >= pep->maxpacket) &&
 794              		.loc 1 384 32 view .LVU199
 795 0042 FFF7FEFF 		bl	__aeabi_uidivmod
 796              	.LVL78:
 384:Middlewares/ST/STM32_USB_Device_Library/Core/Src/usbd_core.c ****             (pep->total_length >= pep->maxpacket) &&
 797              		.loc 1 384 12 view .LVU200
 798 0046 0029     		cmp	r1, #0
 799 0048 06D1     		bne	.L44
 384:Middlewares/ST/STM32_USB_Device_Library/Core/Src/usbd_core.c ****             (pep->total_length >= pep->maxpacket) &&
 800              		.loc 1 384 56 discriminator 1 view .LVU201
 801 004a BE42     		cmp	r6, r7
 802 004c 04D8     		bhi	.L44
 386:Middlewares/ST/STM32_USB_Device_Library/Core/Src/usbd_core.c ****         {
 803              		.loc 1 386 38 view .LVU202
 804 004e A623     		movs	r3, #166
 805 0050 9B00     		lsls	r3, r3, #2
 806 0052 EB58     		ldr	r3, [r5, r3]
 385:Middlewares/ST/STM32_USB_Device_Library/Core/Src/usbd_core.c ****             (pep->total_length < pdev->ep0_data_len))
 807              		.loc 1 385 51 view .LVU203
 808 0054 9F42     		cmp	r7, r3
 809 0056 1ED3     		bcc	.L54
 810              	.L44:
 396:Middlewares/ST/STM32_USB_Device_Library/Core/Src/usbd_core.c ****               (pdev->dev_state == USBD_STATE_CONFIGURED))
 811              		.loc 1 396 11 is_stmt 1 view .LVU204
 396:Middlewares/ST/STM32_USB_Device_Library/Core/Src/usbd_core.c ****               (pdev->dev_state == USBD_STATE_CONFIGURED))
 812              		.loc 1 396 20 is_stmt 0 view .LVU205
 813 0058 AD23     		movs	r3, #173
 814 005a 9B00     		lsls	r3, r3, #2
 815 005c EB58     		ldr	r3, [r5, r3]
 396:Middlewares/ST/STM32_USB_Device_Library/Core/Src/usbd_core.c ****               (pdev->dev_state == USBD_STATE_CONFIGURED))
 816              		.loc 1 396 28 view .LVU206
 817 005e DB68     		ldr	r3, [r3, #12]
 396:Middlewares/ST/STM32_USB_Device_Library/Core/Src/usbd_core.c ****               (pdev->dev_state == USBD_STATE_CONFIGURED))
 818              		.loc 1 396 14 view .LVU207
 819 0060 002B     		cmp	r3, #0
 820 0062 04D0     		beq	.L45
 397:Middlewares/ST/STM32_USB_Device_Library/Core/Src/usbd_core.c ****           {
 821              		.loc 1 397 20 view .LVU208
 822 0064 A722     		movs	r2, #167
 823 0066 9200     		lsls	r2, r2, #2
 824 0068 AA5C     		ldrb	r2, [r5, r2]
 396:Middlewares/ST/STM32_USB_Device_Library/Core/Src/usbd_core.c ****               (pdev->dev_state == USBD_STATE_CONFIGURED))
 825              		.loc 1 396 50 discriminator 1 view .LVU209
 826 006a 032A     		cmp	r2, #3
 827 006c 21D0     		beq	.L55
 828              	.L45:
 401:Middlewares/ST/STM32_USB_Device_Library/Core/Src/usbd_core.c ****           USBD_CtlReceiveStatus(pdev);
 829              		.loc 1 401 11 is_stmt 1 view .LVU210
ARM GAS  /tmp/ccDq1InM.s 			page 24


 830 006e 8021     		movs	r1, #128
 831 0070 2800     		movs	r0, r5
 832 0072 FFF7FEFF 		bl	USBD_LL_StallEP
 833              	.LVL79:
 402:Middlewares/ST/STM32_USB_Device_Library/Core/Src/usbd_core.c ****         }
 834              		.loc 1 402 11 view .LVU211
 835 0076 2800     		movs	r0, r5
 836 0078 FFF7FEFF 		bl	USBD_CtlReceiveStatus
 837              	.LVL80:
 838 007c D3E7     		b	.L43
 839              	.LVL81:
 840              	.L53:
 374:Middlewares/ST/STM32_USB_Device_Library/Core/Src/usbd_core.c **** 
 841              		.loc 1 374 9 view .LVU212
 374:Middlewares/ST/STM32_USB_Device_Library/Core/Src/usbd_core.c **** 
 842              		.loc 1 374 25 is_stmt 0 view .LVU213
 843 007e 921B     		subs	r2, r2, r6
 844 0080 0262     		str	r2, [r0, #32]
 376:Middlewares/ST/STM32_USB_Device_Library/Core/Src/usbd_core.c **** 
 845              		.loc 1 376 9 is_stmt 1 view .LVU214
 846 0082 92B2     		uxth	r2, r2
 847 0084 FFF7FEFF 		bl	USBD_CtlContinueSendData
 848              	.LVL82:
 379:Middlewares/ST/STM32_USB_Device_Library/Core/Src/usbd_core.c ****       }
 849              		.loc 1 379 9 view .LVU215
 850 0088 0023     		movs	r3, #0
 851 008a 0022     		movs	r2, #0
 852 008c 0021     		movs	r1, #0
 853 008e 2800     		movs	r0, r5
 854 0090 FFF7FEFF 		bl	USBD_LL_PrepareReceive
 855              	.LVL83:
 856 0094 C7E7     		b	.L43
 857              	.L54:
 388:Middlewares/ST/STM32_USB_Device_Library/Core/Src/usbd_core.c ****           pdev->ep0_data_len = 0U;
 858              		.loc 1 388 11 view .LVU216
 859 0096 0022     		movs	r2, #0
 860 0098 2800     		movs	r0, r5
 861 009a FFF7FEFF 		bl	USBD_CtlContinueSendData
 862              	.LVL84:
 389:Middlewares/ST/STM32_USB_Device_Library/Core/Src/usbd_core.c **** 
 863              		.loc 1 389 11 view .LVU217
 389:Middlewares/ST/STM32_USB_Device_Library/Core/Src/usbd_core.c **** 
 864              		.loc 1 389 30 is_stmt 0 view .LVU218
 865 009e A623     		movs	r3, #166
 866 00a0 9B00     		lsls	r3, r3, #2
 867 00a2 0022     		movs	r2, #0
 868 00a4 EA50     		str	r2, [r5, r3]
 392:Middlewares/ST/STM32_USB_Device_Library/Core/Src/usbd_core.c ****         }
 869              		.loc 1 392 11 is_stmt 1 view .LVU219
 870 00a6 0023     		movs	r3, #0
 871 00a8 0021     		movs	r1, #0
 872 00aa 2800     		movs	r0, r5
 873 00ac FFF7FEFF 		bl	USBD_LL_PrepareReceive
 874              	.LVL85:
 875 00b0 B9E7     		b	.L43
 876              	.L55:
 399:Middlewares/ST/STM32_USB_Device_Library/Core/Src/usbd_core.c ****           }
ARM GAS  /tmp/ccDq1InM.s 			page 25


 877              		.loc 1 399 13 view .LVU220
 878 00b2 2800     		movs	r0, r5
 879 00b4 9847     		blx	r3
 880              	.LVL86:
 881 00b6 DAE7     		b	.L45
 882              	.L52:
 417:Middlewares/ST/STM32_USB_Device_Library/Core/Src/usbd_core.c ****       pdev->dev_test_mode = 0U;
 883              		.loc 1 417 7 view .LVU221
 418:Middlewares/ST/STM32_USB_Device_Library/Core/Src/usbd_core.c ****     }
 884              		.loc 1 418 7 view .LVU222
 418:Middlewares/ST/STM32_USB_Device_Library/Core/Src/usbd_core.c ****     }
 885              		.loc 1 418 27 is_stmt 0 view .LVU223
 886 00b8 A823     		movs	r3, #168
 887 00ba 9B00     		lsls	r3, r3, #2
 888 00bc 0022     		movs	r2, #0
 889 00be EA54     		strb	r2, [r5, r3]
 432:Middlewares/ST/STM32_USB_Device_Library/Core/Src/usbd_core.c **** }
 890              		.loc 1 432 10 view .LVU224
 891 00c0 2000     		movs	r0, r4
 892 00c2 B6E7     		b	.L47
 893              	.LVL87:
 894              	.L40:
 421:Middlewares/ST/STM32_USB_Device_Library/Core/Src/usbd_core.c ****            (pdev->dev_state == USBD_STATE_CONFIGURED))
 895              		.loc 1 421 8 is_stmt 1 view .LVU225
 421:Middlewares/ST/STM32_USB_Device_Library/Core/Src/usbd_core.c ****            (pdev->dev_state == USBD_STATE_CONFIGURED))
 896              		.loc 1 421 17 is_stmt 0 view .LVU226
 897 00c4 AD23     		movs	r3, #173
 898 00c6 9B00     		lsls	r3, r3, #2
 899 00c8 C358     		ldr	r3, [r0, r3]
 421:Middlewares/ST/STM32_USB_Device_Library/Core/Src/usbd_core.c ****            (pdev->dev_state == USBD_STATE_CONFIGURED))
 900              		.loc 1 421 25 view .LVU227
 901 00ca 5B69     		ldr	r3, [r3, #20]
 421:Middlewares/ST/STM32_USB_Device_Library/Core/Src/usbd_core.c ****            (pdev->dev_state == USBD_STATE_CONFIGURED))
 902              		.loc 1 421 11 view .LVU228
 903 00cc 002B     		cmp	r3, #0
 904 00ce 08D0     		beq	.L49
 422:Middlewares/ST/STM32_USB_Device_Library/Core/Src/usbd_core.c ****   {
 905              		.loc 1 422 17 view .LVU229
 906 00d0 A722     		movs	r2, #167
 907 00d2 9200     		lsls	r2, r2, #2
 908 00d4 825C     		ldrb	r2, [r0, r2]
 421:Middlewares/ST/STM32_USB_Device_Library/Core/Src/usbd_core.c ****            (pdev->dev_state == USBD_STATE_CONFIGURED))
 909              		.loc 1 421 43 discriminator 1 view .LVU230
 910 00d6 032A     		cmp	r2, #3
 911 00d8 05D1     		bne	.L50
 424:Middlewares/ST/STM32_USB_Device_Library/Core/Src/usbd_core.c ****   }
 912              		.loc 1 424 5 is_stmt 1 view .LVU231
 913 00da 2100     		movs	r1, r4
 914              	.LVL88:
 424:Middlewares/ST/STM32_USB_Device_Library/Core/Src/usbd_core.c ****   }
 915              		.loc 1 424 5 is_stmt 0 view .LVU232
 916 00dc 9847     		blx	r3
 917              	.LVL89:
 432:Middlewares/ST/STM32_USB_Device_Library/Core/Src/usbd_core.c **** }
 918              		.loc 1 432 10 view .LVU233
 919 00de 0020     		movs	r0, #0
 424:Middlewares/ST/STM32_USB_Device_Library/Core/Src/usbd_core.c ****   }
ARM GAS  /tmp/ccDq1InM.s 			page 26


 920              		.loc 1 424 5 view .LVU234
 921 00e0 A7E7     		b	.L47
 922              	.LVL90:
 923              	.L49:
 429:Middlewares/ST/STM32_USB_Device_Library/Core/Src/usbd_core.c ****   }
 924              		.loc 1 429 12 view .LVU235
 925 00e2 0220     		movs	r0, #2
 926              	.LVL91:
 429:Middlewares/ST/STM32_USB_Device_Library/Core/Src/usbd_core.c ****   }
 927              		.loc 1 429 12 view .LVU236
 928 00e4 A5E7     		b	.L47
 929              	.LVL92:
 930              	.L50:
 429:Middlewares/ST/STM32_USB_Device_Library/Core/Src/usbd_core.c ****   }
 931              		.loc 1 429 12 view .LVU237
 932 00e6 0220     		movs	r0, #2
 933              	.LVL93:
 429:Middlewares/ST/STM32_USB_Device_Library/Core/Src/usbd_core.c ****   }
 934              		.loc 1 429 12 view .LVU238
 935 00e8 A3E7     		b	.L47
 936              		.cfi_endproc
 937              	.LFE53:
 939              		.section	.text.USBD_LL_Reset,"ax",%progbits
 940              		.align	1
 941              		.global	USBD_LL_Reset
 942              		.syntax unified
 943              		.code	16
 944              		.thumb_func
 946              	USBD_LL_Reset:
 947              	.LVL94:
 948              	.LFB54:
 434:Middlewares/ST/STM32_USB_Device_Library/Core/Src/usbd_core.c **** 
 435:Middlewares/ST/STM32_USB_Device_Library/Core/Src/usbd_core.c **** /**
 436:Middlewares/ST/STM32_USB_Device_Library/Core/Src/usbd_core.c **** * @brief  USBD_LL_Reset
 437:Middlewares/ST/STM32_USB_Device_Library/Core/Src/usbd_core.c **** *         Handle Reset event
 438:Middlewares/ST/STM32_USB_Device_Library/Core/Src/usbd_core.c **** * @param  pdev: device instance
 439:Middlewares/ST/STM32_USB_Device_Library/Core/Src/usbd_core.c **** * @retval status
 440:Middlewares/ST/STM32_USB_Device_Library/Core/Src/usbd_core.c **** */
 441:Middlewares/ST/STM32_USB_Device_Library/Core/Src/usbd_core.c **** 
 442:Middlewares/ST/STM32_USB_Device_Library/Core/Src/usbd_core.c **** USBD_StatusTypeDef USBD_LL_Reset(USBD_HandleTypeDef *pdev)
 443:Middlewares/ST/STM32_USB_Device_Library/Core/Src/usbd_core.c **** {
 949              		.loc 1 443 1 is_stmt 1 view -0
 950              		.cfi_startproc
 951              		@ args = 0, pretend = 0, frame = 0
 952              		@ frame_needed = 0, uses_anonymous_args = 0
 953              		.loc 1 443 1 is_stmt 0 view .LVU240
 954 0000 70B5     		push	{r4, r5, r6, lr}
 955              	.LCFI9:
 956              		.cfi_def_cfa_offset 16
 957              		.cfi_offset 4, -16
 958              		.cfi_offset 5, -12
 959              		.cfi_offset 6, -8
 960              		.cfi_offset 14, -4
 961 0002 0400     		movs	r4, r0
 444:Middlewares/ST/STM32_USB_Device_Library/Core/Src/usbd_core.c ****   /* Open EP0 OUT */
 445:Middlewares/ST/STM32_USB_Device_Library/Core/Src/usbd_core.c ****   USBD_LL_OpenEP(pdev, 0x00U, USBD_EP_TYPE_CTRL, USB_MAX_EP0_SIZE);
 962              		.loc 1 445 3 is_stmt 1 view .LVU241
ARM GAS  /tmp/ccDq1InM.s 			page 27


 963 0004 4023     		movs	r3, #64
 964 0006 0022     		movs	r2, #0
 965 0008 0021     		movs	r1, #0
 966 000a FFF7FEFF 		bl	USBD_LL_OpenEP
 967              	.LVL95:
 446:Middlewares/ST/STM32_USB_Device_Library/Core/Src/usbd_core.c ****   pdev->ep_out[0x00U & 0xFU].is_used = 1U;
 968              		.loc 1 446 3 view .LVU242
 969              		.loc 1 446 38 is_stmt 0 view .LVU243
 970 000e 0125     		movs	r5, #1
 971 0010 AC23     		movs	r3, #172
 972 0012 5B00     		lsls	r3, r3, #1
 973 0014 E550     		str	r5, [r4, r3]
 447:Middlewares/ST/STM32_USB_Device_Library/Core/Src/usbd_core.c **** 
 448:Middlewares/ST/STM32_USB_Device_Library/Core/Src/usbd_core.c ****   pdev->ep_out[0].maxpacket = USB_MAX_EP0_SIZE;
 974              		.loc 1 448 3 is_stmt 1 view .LVU244
 975              		.loc 1 448 29 is_stmt 0 view .LVU245
 976 0016 4026     		movs	r6, #64
 977 0018 0C33     		adds	r3, r3, #12
 978 001a E650     		str	r6, [r4, r3]
 449:Middlewares/ST/STM32_USB_Device_Library/Core/Src/usbd_core.c **** 
 450:Middlewares/ST/STM32_USB_Device_Library/Core/Src/usbd_core.c ****   /* Open EP0 IN */
 451:Middlewares/ST/STM32_USB_Device_Library/Core/Src/usbd_core.c ****   USBD_LL_OpenEP(pdev, 0x80U, USBD_EP_TYPE_CTRL, USB_MAX_EP0_SIZE);
 979              		.loc 1 451 3 is_stmt 1 view .LVU246
 980 001c 253B     		subs	r3, r3, #37
 981 001e FF3B     		subs	r3, r3, #255
 982 0020 0022     		movs	r2, #0
 983 0022 8021     		movs	r1, #128
 984 0024 2000     		movs	r0, r4
 985 0026 FFF7FEFF 		bl	USBD_LL_OpenEP
 986              	.LVL96:
 452:Middlewares/ST/STM32_USB_Device_Library/Core/Src/usbd_core.c ****   pdev->ep_in[0x80U & 0xFU].is_used = 1U;
 987              		.loc 1 452 3 view .LVU247
 988              		.loc 1 452 37 is_stmt 0 view .LVU248
 989 002a A561     		str	r5, [r4, #24]
 453:Middlewares/ST/STM32_USB_Device_Library/Core/Src/usbd_core.c **** 
 454:Middlewares/ST/STM32_USB_Device_Library/Core/Src/usbd_core.c ****   pdev->ep_in[0].maxpacket = USB_MAX_EP0_SIZE;
 990              		.loc 1 454 3 is_stmt 1 view .LVU249
 991              		.loc 1 454 28 is_stmt 0 view .LVU250
 992 002c 6662     		str	r6, [r4, #36]
 455:Middlewares/ST/STM32_USB_Device_Library/Core/Src/usbd_core.c **** 
 456:Middlewares/ST/STM32_USB_Device_Library/Core/Src/usbd_core.c ****   /* Upon Reset call user call back */
 457:Middlewares/ST/STM32_USB_Device_Library/Core/Src/usbd_core.c ****   pdev->dev_state = USBD_STATE_DEFAULT;
 993              		.loc 1 457 3 is_stmt 1 view .LVU251
 994              		.loc 1 457 19 is_stmt 0 view .LVU252
 995 002e A723     		movs	r3, #167
 996 0030 9B00     		lsls	r3, r3, #2
 997 0032 E554     		strb	r5, [r4, r3]
 458:Middlewares/ST/STM32_USB_Device_Library/Core/Src/usbd_core.c ****   pdev->ep0_state = USBD_EP0_IDLE;
 998              		.loc 1 458 3 is_stmt 1 view .LVU253
 999              		.loc 1 458 19 is_stmt 0 view .LVU254
 1000 0034 0023     		movs	r3, #0
 1001 0036 A522     		movs	r2, #165
 1002 0038 9200     		lsls	r2, r2, #2
 1003 003a A350     		str	r3, [r4, r2]
 459:Middlewares/ST/STM32_USB_Device_Library/Core/Src/usbd_core.c ****   pdev->dev_config = 0U;
 1004              		.loc 1 459 3 is_stmt 1 view .LVU255
 1005              		.loc 1 459 20 is_stmt 0 view .LVU256
ARM GAS  /tmp/ccDq1InM.s 			page 28


 1006 003c 6360     		str	r3, [r4, #4]
 460:Middlewares/ST/STM32_USB_Device_Library/Core/Src/usbd_core.c ****   pdev->dev_remote_wakeup = 0U;
 1007              		.loc 1 460 3 is_stmt 1 view .LVU257
 1008              		.loc 1 460 27 is_stmt 0 view .LVU258
 1009 003e 1032     		adds	r2, r2, #16
 1010 0040 A350     		str	r3, [r4, r2]
 461:Middlewares/ST/STM32_USB_Device_Library/Core/Src/usbd_core.c **** 
 462:Middlewares/ST/STM32_USB_Device_Library/Core/Src/usbd_core.c ****   if (pdev->pClassData)
 1011              		.loc 1 462 3 is_stmt 1 view .LVU259
 1012              		.loc 1 462 11 is_stmt 0 view .LVU260
 1013 0042 AE23     		movs	r3, #174
 1014 0044 9B00     		lsls	r3, r3, #2
 1015 0046 E358     		ldr	r3, [r4, r3]
 1016              		.loc 1 462 6 view .LVU261
 1017 0048 002B     		cmp	r3, #0
 1018 004a 06D0     		beq	.L57
 463:Middlewares/ST/STM32_USB_Device_Library/Core/Src/usbd_core.c ****   {
 464:Middlewares/ST/STM32_USB_Device_Library/Core/Src/usbd_core.c ****     pdev->pClass->DeInit(pdev, (uint8_t)pdev->dev_config);
 1019              		.loc 1 464 5 is_stmt 1 view .LVU262
 1020              		.loc 1 464 9 is_stmt 0 view .LVU263
 1021 004c AD23     		movs	r3, #173
 1022 004e 9B00     		lsls	r3, r3, #2
 1023 0050 E358     		ldr	r3, [r4, r3]
 1024              		.loc 1 464 17 view .LVU264
 1025 0052 5B68     		ldr	r3, [r3, #4]
 1026              		.loc 1 464 5 view .LVU265
 1027 0054 0021     		movs	r1, #0
 1028 0056 2000     		movs	r0, r4
 1029 0058 9847     		blx	r3
 1030              	.LVL97:
 1031              	.L57:
 465:Middlewares/ST/STM32_USB_Device_Library/Core/Src/usbd_core.c ****   }
 466:Middlewares/ST/STM32_USB_Device_Library/Core/Src/usbd_core.c **** 
 467:Middlewares/ST/STM32_USB_Device_Library/Core/Src/usbd_core.c ****   return USBD_OK;
 1032              		.loc 1 467 3 is_stmt 1 view .LVU266
 468:Middlewares/ST/STM32_USB_Device_Library/Core/Src/usbd_core.c **** }
 1033              		.loc 1 468 1 is_stmt 0 view .LVU267
 1034 005a 0020     		movs	r0, #0
 1035              		@ sp needed
 1036              	.LVL98:
 1037              		.loc 1 468 1 view .LVU268
 1038 005c 70BD     		pop	{r4, r5, r6, pc}
 1039              		.cfi_endproc
 1040              	.LFE54:
 1042              		.section	.text.USBD_LL_SetSpeed,"ax",%progbits
 1043              		.align	1
 1044              		.global	USBD_LL_SetSpeed
 1045              		.syntax unified
 1046              		.code	16
 1047              		.thumb_func
 1049              	USBD_LL_SetSpeed:
 1050              	.LVL99:
 1051              	.LFB55:
 469:Middlewares/ST/STM32_USB_Device_Library/Core/Src/usbd_core.c **** 
 470:Middlewares/ST/STM32_USB_Device_Library/Core/Src/usbd_core.c **** /**
 471:Middlewares/ST/STM32_USB_Device_Library/Core/Src/usbd_core.c **** * @brief  USBD_LL_Reset
 472:Middlewares/ST/STM32_USB_Device_Library/Core/Src/usbd_core.c **** *         Handle Reset event
ARM GAS  /tmp/ccDq1InM.s 			page 29


 473:Middlewares/ST/STM32_USB_Device_Library/Core/Src/usbd_core.c **** * @param  pdev: device instance
 474:Middlewares/ST/STM32_USB_Device_Library/Core/Src/usbd_core.c **** * @retval status
 475:Middlewares/ST/STM32_USB_Device_Library/Core/Src/usbd_core.c **** */
 476:Middlewares/ST/STM32_USB_Device_Library/Core/Src/usbd_core.c **** USBD_StatusTypeDef USBD_LL_SetSpeed(USBD_HandleTypeDef *pdev,
 477:Middlewares/ST/STM32_USB_Device_Library/Core/Src/usbd_core.c ****                                     USBD_SpeedTypeDef speed)
 478:Middlewares/ST/STM32_USB_Device_Library/Core/Src/usbd_core.c **** {
 1052              		.loc 1 478 1 is_stmt 1 view -0
 1053              		.cfi_startproc
 1054              		@ args = 0, pretend = 0, frame = 0
 1055              		@ frame_needed = 0, uses_anonymous_args = 0
 1056              		@ link register save eliminated.
 479:Middlewares/ST/STM32_USB_Device_Library/Core/Src/usbd_core.c ****   pdev->dev_speed = speed;
 1057              		.loc 1 479 3 view .LVU270
 1058              		.loc 1 479 19 is_stmt 0 view .LVU271
 1059 0000 0174     		strb	r1, [r0, #16]
 480:Middlewares/ST/STM32_USB_Device_Library/Core/Src/usbd_core.c **** 
 481:Middlewares/ST/STM32_USB_Device_Library/Core/Src/usbd_core.c ****   return USBD_OK;
 1060              		.loc 1 481 3 is_stmt 1 view .LVU272
 482:Middlewares/ST/STM32_USB_Device_Library/Core/Src/usbd_core.c **** }
 1061              		.loc 1 482 1 is_stmt 0 view .LVU273
 1062 0002 0020     		movs	r0, #0
 1063              	.LVL100:
 1064              		.loc 1 482 1 view .LVU274
 1065              		@ sp needed
 1066 0004 7047     		bx	lr
 1067              		.cfi_endproc
 1068              	.LFE55:
 1070              		.section	.text.USBD_LL_Suspend,"ax",%progbits
 1071              		.align	1
 1072              		.global	USBD_LL_Suspend
 1073              		.syntax unified
 1074              		.code	16
 1075              		.thumb_func
 1077              	USBD_LL_Suspend:
 1078              	.LVL101:
 1079              	.LFB56:
 483:Middlewares/ST/STM32_USB_Device_Library/Core/Src/usbd_core.c **** 
 484:Middlewares/ST/STM32_USB_Device_Library/Core/Src/usbd_core.c **** /**
 485:Middlewares/ST/STM32_USB_Device_Library/Core/Src/usbd_core.c **** * @brief  USBD_Suspend
 486:Middlewares/ST/STM32_USB_Device_Library/Core/Src/usbd_core.c **** *         Handle Suspend event
 487:Middlewares/ST/STM32_USB_Device_Library/Core/Src/usbd_core.c **** * @param  pdev: device instance
 488:Middlewares/ST/STM32_USB_Device_Library/Core/Src/usbd_core.c **** * @retval status
 489:Middlewares/ST/STM32_USB_Device_Library/Core/Src/usbd_core.c **** */
 490:Middlewares/ST/STM32_USB_Device_Library/Core/Src/usbd_core.c **** 
 491:Middlewares/ST/STM32_USB_Device_Library/Core/Src/usbd_core.c **** USBD_StatusTypeDef USBD_LL_Suspend(USBD_HandleTypeDef *pdev)
 492:Middlewares/ST/STM32_USB_Device_Library/Core/Src/usbd_core.c **** {
 1080              		.loc 1 492 1 is_stmt 1 view -0
 1081              		.cfi_startproc
 1082              		@ args = 0, pretend = 0, frame = 0
 1083              		@ frame_needed = 0, uses_anonymous_args = 0
 1084              		@ link register save eliminated.
 493:Middlewares/ST/STM32_USB_Device_Library/Core/Src/usbd_core.c ****   pdev->dev_old_state =  pdev->dev_state;
 1085              		.loc 1 493 3 view .LVU276
 1086              		.loc 1 493 30 is_stmt 0 view .LVU277
 1087 0000 A723     		movs	r3, #167
 1088 0002 9B00     		lsls	r3, r3, #2
 1089 0004 C15C     		ldrb	r1, [r0, r3]
ARM GAS  /tmp/ccDq1InM.s 			page 30


 1090              		.loc 1 493 23 view .LVU278
 1091 0006 034A     		ldr	r2, .L60
 1092 0008 8154     		strb	r1, [r0, r2]
 494:Middlewares/ST/STM32_USB_Device_Library/Core/Src/usbd_core.c ****   pdev->dev_state  = USBD_STATE_SUSPENDED;
 1093              		.loc 1 494 3 is_stmt 1 view .LVU279
 1094              		.loc 1 494 20 is_stmt 0 view .LVU280
 1095 000a 0422     		movs	r2, #4
 1096 000c C254     		strb	r2, [r0, r3]
 495:Middlewares/ST/STM32_USB_Device_Library/Core/Src/usbd_core.c **** 
 496:Middlewares/ST/STM32_USB_Device_Library/Core/Src/usbd_core.c ****   return USBD_OK;
 1097              		.loc 1 496 3 is_stmt 1 view .LVU281
 497:Middlewares/ST/STM32_USB_Device_Library/Core/Src/usbd_core.c **** }
 1098              		.loc 1 497 1 is_stmt 0 view .LVU282
 1099 000e 0020     		movs	r0, #0
 1100              	.LVL102:
 1101              		.loc 1 497 1 view .LVU283
 1102              		@ sp needed
 1103 0010 7047     		bx	lr
 1104              	.L61:
 1105 0012 C046     		.align	2
 1106              	.L60:
 1107 0014 9D020000 		.word	669
 1108              		.cfi_endproc
 1109              	.LFE56:
 1111              		.section	.text.USBD_LL_Resume,"ax",%progbits
 1112              		.align	1
 1113              		.global	USBD_LL_Resume
 1114              		.syntax unified
 1115              		.code	16
 1116              		.thumb_func
 1118              	USBD_LL_Resume:
 1119              	.LVL103:
 1120              	.LFB57:
 498:Middlewares/ST/STM32_USB_Device_Library/Core/Src/usbd_core.c **** 
 499:Middlewares/ST/STM32_USB_Device_Library/Core/Src/usbd_core.c **** /**
 500:Middlewares/ST/STM32_USB_Device_Library/Core/Src/usbd_core.c **** * @brief  USBD_Resume
 501:Middlewares/ST/STM32_USB_Device_Library/Core/Src/usbd_core.c **** *         Handle Resume event
 502:Middlewares/ST/STM32_USB_Device_Library/Core/Src/usbd_core.c **** * @param  pdev: device instance
 503:Middlewares/ST/STM32_USB_Device_Library/Core/Src/usbd_core.c **** * @retval status
 504:Middlewares/ST/STM32_USB_Device_Library/Core/Src/usbd_core.c **** */
 505:Middlewares/ST/STM32_USB_Device_Library/Core/Src/usbd_core.c **** 
 506:Middlewares/ST/STM32_USB_Device_Library/Core/Src/usbd_core.c **** USBD_StatusTypeDef USBD_LL_Resume(USBD_HandleTypeDef *pdev)
 507:Middlewares/ST/STM32_USB_Device_Library/Core/Src/usbd_core.c **** {
 1121              		.loc 1 507 1 is_stmt 1 view -0
 1122              		.cfi_startproc
 1123              		@ args = 0, pretend = 0, frame = 0
 1124              		@ frame_needed = 0, uses_anonymous_args = 0
 1125              		@ link register save eliminated.
 508:Middlewares/ST/STM32_USB_Device_Library/Core/Src/usbd_core.c ****   if (pdev->dev_state == USBD_STATE_SUSPENDED)
 1126              		.loc 1 508 3 view .LVU285
 1127              		.loc 1 508 11 is_stmt 0 view .LVU286
 1128 0000 A723     		movs	r3, #167
 1129 0002 9B00     		lsls	r3, r3, #2
 1130 0004 C35C     		ldrb	r3, [r0, r3]
 1131              		.loc 1 508 6 view .LVU287
 1132 0006 042B     		cmp	r3, #4
 1133 0008 01D0     		beq	.L64
ARM GAS  /tmp/ccDq1InM.s 			page 31


 1134              	.L63:
 509:Middlewares/ST/STM32_USB_Device_Library/Core/Src/usbd_core.c ****   {
 510:Middlewares/ST/STM32_USB_Device_Library/Core/Src/usbd_core.c ****     pdev->dev_state = pdev->dev_old_state;
 511:Middlewares/ST/STM32_USB_Device_Library/Core/Src/usbd_core.c ****   }
 512:Middlewares/ST/STM32_USB_Device_Library/Core/Src/usbd_core.c **** 
 513:Middlewares/ST/STM32_USB_Device_Library/Core/Src/usbd_core.c ****   return USBD_OK;
 1135              		.loc 1 513 3 is_stmt 1 view .LVU288
 514:Middlewares/ST/STM32_USB_Device_Library/Core/Src/usbd_core.c **** }
 1136              		.loc 1 514 1 is_stmt 0 view .LVU289
 1137 000a 0020     		movs	r0, #0
 1138              	.LVL104:
 1139              		.loc 1 514 1 view .LVU290
 1140              		@ sp needed
 1141 000c 7047     		bx	lr
 1142              	.LVL105:
 1143              	.L64:
 510:Middlewares/ST/STM32_USB_Device_Library/Core/Src/usbd_core.c ****   }
 1144              		.loc 1 510 5 is_stmt 1 view .LVU291
 510:Middlewares/ST/STM32_USB_Device_Library/Core/Src/usbd_core.c ****   }
 1145              		.loc 1 510 27 is_stmt 0 view .LVU292
 1146 000e 024B     		ldr	r3, .L65
 1147 0010 C25C     		ldrb	r2, [r0, r3]
 510:Middlewares/ST/STM32_USB_Device_Library/Core/Src/usbd_core.c ****   }
 1148              		.loc 1 510 21 view .LVU293
 1149 0012 013B     		subs	r3, r3, #1
 1150 0014 C254     		strb	r2, [r0, r3]
 1151 0016 F8E7     		b	.L63
 1152              	.L66:
 1153              		.align	2
 1154              	.L65:
 1155 0018 9D020000 		.word	669
 1156              		.cfi_endproc
 1157              	.LFE57:
 1159              		.section	.text.USBD_LL_SOF,"ax",%progbits
 1160              		.align	1
 1161              		.global	USBD_LL_SOF
 1162              		.syntax unified
 1163              		.code	16
 1164              		.thumb_func
 1166              	USBD_LL_SOF:
 1167              	.LVL106:
 1168              	.LFB58:
 515:Middlewares/ST/STM32_USB_Device_Library/Core/Src/usbd_core.c **** 
 516:Middlewares/ST/STM32_USB_Device_Library/Core/Src/usbd_core.c **** /**
 517:Middlewares/ST/STM32_USB_Device_Library/Core/Src/usbd_core.c **** * @brief  USBD_SOF
 518:Middlewares/ST/STM32_USB_Device_Library/Core/Src/usbd_core.c **** *         Handle SOF event
 519:Middlewares/ST/STM32_USB_Device_Library/Core/Src/usbd_core.c **** * @param  pdev: device instance
 520:Middlewares/ST/STM32_USB_Device_Library/Core/Src/usbd_core.c **** * @retval status
 521:Middlewares/ST/STM32_USB_Device_Library/Core/Src/usbd_core.c **** */
 522:Middlewares/ST/STM32_USB_Device_Library/Core/Src/usbd_core.c **** 
 523:Middlewares/ST/STM32_USB_Device_Library/Core/Src/usbd_core.c **** USBD_StatusTypeDef USBD_LL_SOF(USBD_HandleTypeDef *pdev)
 524:Middlewares/ST/STM32_USB_Device_Library/Core/Src/usbd_core.c **** {
 1169              		.loc 1 524 1 is_stmt 1 view -0
 1170              		.cfi_startproc
 1171              		@ args = 0, pretend = 0, frame = 0
 1172              		@ frame_needed = 0, uses_anonymous_args = 0
 1173              		.loc 1 524 1 is_stmt 0 view .LVU295
ARM GAS  /tmp/ccDq1InM.s 			page 32


 1174 0000 10B5     		push	{r4, lr}
 1175              	.LCFI10:
 1176              		.cfi_def_cfa_offset 8
 1177              		.cfi_offset 4, -8
 1178              		.cfi_offset 14, -4
 525:Middlewares/ST/STM32_USB_Device_Library/Core/Src/usbd_core.c ****   if (pdev->dev_state == USBD_STATE_CONFIGURED)
 1179              		.loc 1 525 3 is_stmt 1 view .LVU296
 1180              		.loc 1 525 11 is_stmt 0 view .LVU297
 1181 0002 A723     		movs	r3, #167
 1182 0004 9B00     		lsls	r3, r3, #2
 1183 0006 C35C     		ldrb	r3, [r0, r3]
 1184              		.loc 1 525 6 view .LVU298
 1185 0008 032B     		cmp	r3, #3
 1186 000a 01D0     		beq	.L69
 1187              	.LVL107:
 1188              	.L68:
 526:Middlewares/ST/STM32_USB_Device_Library/Core/Src/usbd_core.c ****   {
 527:Middlewares/ST/STM32_USB_Device_Library/Core/Src/usbd_core.c ****     if (pdev->pClass->SOF != NULL)
 528:Middlewares/ST/STM32_USB_Device_Library/Core/Src/usbd_core.c ****     {
 529:Middlewares/ST/STM32_USB_Device_Library/Core/Src/usbd_core.c ****       pdev->pClass->SOF(pdev);
 530:Middlewares/ST/STM32_USB_Device_Library/Core/Src/usbd_core.c ****     }
 531:Middlewares/ST/STM32_USB_Device_Library/Core/Src/usbd_core.c ****   }
 532:Middlewares/ST/STM32_USB_Device_Library/Core/Src/usbd_core.c **** 
 533:Middlewares/ST/STM32_USB_Device_Library/Core/Src/usbd_core.c ****   return USBD_OK;
 1189              		.loc 1 533 3 is_stmt 1 view .LVU299
 534:Middlewares/ST/STM32_USB_Device_Library/Core/Src/usbd_core.c **** }
 1190              		.loc 1 534 1 is_stmt 0 view .LVU300
 1191 000c 0020     		movs	r0, #0
 1192              		@ sp needed
 1193 000e 10BD     		pop	{r4, pc}
 1194              	.LVL108:
 1195              	.L69:
 527:Middlewares/ST/STM32_USB_Device_Library/Core/Src/usbd_core.c ****     {
 1196              		.loc 1 527 5 is_stmt 1 view .LVU301
 527:Middlewares/ST/STM32_USB_Device_Library/Core/Src/usbd_core.c ****     {
 1197              		.loc 1 527 13 is_stmt 0 view .LVU302
 1198 0010 AD23     		movs	r3, #173
 1199 0012 9B00     		lsls	r3, r3, #2
 1200 0014 C358     		ldr	r3, [r0, r3]
 527:Middlewares/ST/STM32_USB_Device_Library/Core/Src/usbd_core.c ****     {
 1201              		.loc 1 527 21 view .LVU303
 1202 0016 DB69     		ldr	r3, [r3, #28]
 527:Middlewares/ST/STM32_USB_Device_Library/Core/Src/usbd_core.c ****     {
 1203              		.loc 1 527 8 view .LVU304
 1204 0018 002B     		cmp	r3, #0
 1205 001a F7D0     		beq	.L68
 529:Middlewares/ST/STM32_USB_Device_Library/Core/Src/usbd_core.c ****     }
 1206              		.loc 1 529 7 is_stmt 1 view .LVU305
 1207 001c 9847     		blx	r3
 1208              	.LVL109:
 529:Middlewares/ST/STM32_USB_Device_Library/Core/Src/usbd_core.c ****     }
 1209              		.loc 1 529 7 is_stmt 0 view .LVU306
 1210 001e F5E7     		b	.L68
 1211              		.cfi_endproc
 1212              	.LFE58:
 1214              		.section	.text.USBD_LL_IsoINIncomplete,"ax",%progbits
 1215              		.align	1
ARM GAS  /tmp/ccDq1InM.s 			page 33


 1216              		.global	USBD_LL_IsoINIncomplete
 1217              		.syntax unified
 1218              		.code	16
 1219              		.thumb_func
 1221              	USBD_LL_IsoINIncomplete:
 1222              	.LVL110:
 1223              	.LFB59:
 535:Middlewares/ST/STM32_USB_Device_Library/Core/Src/usbd_core.c **** 
 536:Middlewares/ST/STM32_USB_Device_Library/Core/Src/usbd_core.c **** /**
 537:Middlewares/ST/STM32_USB_Device_Library/Core/Src/usbd_core.c **** * @brief  USBD_IsoINIncomplete
 538:Middlewares/ST/STM32_USB_Device_Library/Core/Src/usbd_core.c **** *         Handle iso in incomplete event
 539:Middlewares/ST/STM32_USB_Device_Library/Core/Src/usbd_core.c **** * @param  pdev: device instance
 540:Middlewares/ST/STM32_USB_Device_Library/Core/Src/usbd_core.c **** * @retval status
 541:Middlewares/ST/STM32_USB_Device_Library/Core/Src/usbd_core.c **** */
 542:Middlewares/ST/STM32_USB_Device_Library/Core/Src/usbd_core.c **** USBD_StatusTypeDef USBD_LL_IsoINIncomplete(USBD_HandleTypeDef *pdev,
 543:Middlewares/ST/STM32_USB_Device_Library/Core/Src/usbd_core.c ****                                            uint8_t epnum)
 544:Middlewares/ST/STM32_USB_Device_Library/Core/Src/usbd_core.c **** {
 1224              		.loc 1 544 1 is_stmt 1 view -0
 1225              		.cfi_startproc
 1226              		@ args = 0, pretend = 0, frame = 0
 1227              		@ frame_needed = 0, uses_anonymous_args = 0
 1228              		@ link register save eliminated.
 545:Middlewares/ST/STM32_USB_Device_Library/Core/Src/usbd_core.c ****   /* Prevent unused arguments compilation warning */
 546:Middlewares/ST/STM32_USB_Device_Library/Core/Src/usbd_core.c ****   UNUSED(pdev);
 1229              		.loc 1 546 3 view .LVU308
 547:Middlewares/ST/STM32_USB_Device_Library/Core/Src/usbd_core.c ****   UNUSED(epnum);
 1230              		.loc 1 547 3 view .LVU309
 548:Middlewares/ST/STM32_USB_Device_Library/Core/Src/usbd_core.c **** 
 549:Middlewares/ST/STM32_USB_Device_Library/Core/Src/usbd_core.c ****   return USBD_OK;
 1231              		.loc 1 549 3 view .LVU310
 550:Middlewares/ST/STM32_USB_Device_Library/Core/Src/usbd_core.c **** }
 1232              		.loc 1 550 1 is_stmt 0 view .LVU311
 1233 0000 0020     		movs	r0, #0
 1234              	.LVL111:
 1235              		.loc 1 550 1 view .LVU312
 1236              		@ sp needed
 1237 0002 7047     		bx	lr
 1238              		.cfi_endproc
 1239              	.LFE59:
 1241              		.section	.text.USBD_LL_IsoOUTIncomplete,"ax",%progbits
 1242              		.align	1
 1243              		.global	USBD_LL_IsoOUTIncomplete
 1244              		.syntax unified
 1245              		.code	16
 1246              		.thumb_func
 1248              	USBD_LL_IsoOUTIncomplete:
 1249              	.LVL112:
 1250              	.LFB60:
 551:Middlewares/ST/STM32_USB_Device_Library/Core/Src/usbd_core.c **** 
 552:Middlewares/ST/STM32_USB_Device_Library/Core/Src/usbd_core.c **** /**
 553:Middlewares/ST/STM32_USB_Device_Library/Core/Src/usbd_core.c **** * @brief  USBD_IsoOUTIncomplete
 554:Middlewares/ST/STM32_USB_Device_Library/Core/Src/usbd_core.c **** *         Handle iso out incomplete event
 555:Middlewares/ST/STM32_USB_Device_Library/Core/Src/usbd_core.c **** * @param  pdev: device instance
 556:Middlewares/ST/STM32_USB_Device_Library/Core/Src/usbd_core.c **** * @retval status
 557:Middlewares/ST/STM32_USB_Device_Library/Core/Src/usbd_core.c **** */
 558:Middlewares/ST/STM32_USB_Device_Library/Core/Src/usbd_core.c **** USBD_StatusTypeDef USBD_LL_IsoOUTIncomplete(USBD_HandleTypeDef *pdev,
 559:Middlewares/ST/STM32_USB_Device_Library/Core/Src/usbd_core.c ****                                             uint8_t epnum)
ARM GAS  /tmp/ccDq1InM.s 			page 34


 560:Middlewares/ST/STM32_USB_Device_Library/Core/Src/usbd_core.c **** {
 1251              		.loc 1 560 1 is_stmt 1 view -0
 1252              		.cfi_startproc
 1253              		@ args = 0, pretend = 0, frame = 0
 1254              		@ frame_needed = 0, uses_anonymous_args = 0
 1255              		@ link register save eliminated.
 561:Middlewares/ST/STM32_USB_Device_Library/Core/Src/usbd_core.c ****   /* Prevent unused arguments compilation warning */
 562:Middlewares/ST/STM32_USB_Device_Library/Core/Src/usbd_core.c ****   UNUSED(pdev);
 1256              		.loc 1 562 3 view .LVU314
 563:Middlewares/ST/STM32_USB_Device_Library/Core/Src/usbd_core.c ****   UNUSED(epnum);
 1257              		.loc 1 563 3 view .LVU315
 564:Middlewares/ST/STM32_USB_Device_Library/Core/Src/usbd_core.c **** 
 565:Middlewares/ST/STM32_USB_Device_Library/Core/Src/usbd_core.c ****   return USBD_OK;
 1258              		.loc 1 565 3 view .LVU316
 566:Middlewares/ST/STM32_USB_Device_Library/Core/Src/usbd_core.c **** }
 1259              		.loc 1 566 1 is_stmt 0 view .LVU317
 1260 0000 0020     		movs	r0, #0
 1261              	.LVL113:
 1262              		.loc 1 566 1 view .LVU318
 1263              		@ sp needed
 1264 0002 7047     		bx	lr
 1265              		.cfi_endproc
 1266              	.LFE60:
 1268              		.section	.text.USBD_LL_DevConnected,"ax",%progbits
 1269              		.align	1
 1270              		.global	USBD_LL_DevConnected
 1271              		.syntax unified
 1272              		.code	16
 1273              		.thumb_func
 1275              	USBD_LL_DevConnected:
 1276              	.LVL114:
 1277              	.LFB61:
 567:Middlewares/ST/STM32_USB_Device_Library/Core/Src/usbd_core.c **** 
 568:Middlewares/ST/STM32_USB_Device_Library/Core/Src/usbd_core.c **** /**
 569:Middlewares/ST/STM32_USB_Device_Library/Core/Src/usbd_core.c **** * @brief  USBD_DevConnected
 570:Middlewares/ST/STM32_USB_Device_Library/Core/Src/usbd_core.c **** *         Handle device connection event
 571:Middlewares/ST/STM32_USB_Device_Library/Core/Src/usbd_core.c **** * @param  pdev: device instance
 572:Middlewares/ST/STM32_USB_Device_Library/Core/Src/usbd_core.c **** * @retval status
 573:Middlewares/ST/STM32_USB_Device_Library/Core/Src/usbd_core.c **** */
 574:Middlewares/ST/STM32_USB_Device_Library/Core/Src/usbd_core.c **** USBD_StatusTypeDef USBD_LL_DevConnected(USBD_HandleTypeDef *pdev)
 575:Middlewares/ST/STM32_USB_Device_Library/Core/Src/usbd_core.c **** {
 1278              		.loc 1 575 1 is_stmt 1 view -0
 1279              		.cfi_startproc
 1280              		@ args = 0, pretend = 0, frame = 0
 1281              		@ frame_needed = 0, uses_anonymous_args = 0
 1282              		@ link register save eliminated.
 576:Middlewares/ST/STM32_USB_Device_Library/Core/Src/usbd_core.c ****   /* Prevent unused argument compilation warning */
 577:Middlewares/ST/STM32_USB_Device_Library/Core/Src/usbd_core.c ****   UNUSED(pdev);
 1283              		.loc 1 577 3 view .LVU320
 578:Middlewares/ST/STM32_USB_Device_Library/Core/Src/usbd_core.c **** 
 579:Middlewares/ST/STM32_USB_Device_Library/Core/Src/usbd_core.c ****   return USBD_OK;
 1284              		.loc 1 579 3 view .LVU321
 580:Middlewares/ST/STM32_USB_Device_Library/Core/Src/usbd_core.c **** }
 1285              		.loc 1 580 1 is_stmt 0 view .LVU322
 1286 0000 0020     		movs	r0, #0
 1287              	.LVL115:
 1288              		.loc 1 580 1 view .LVU323
ARM GAS  /tmp/ccDq1InM.s 			page 35


 1289              		@ sp needed
 1290 0002 7047     		bx	lr
 1291              		.cfi_endproc
 1292              	.LFE61:
 1294              		.section	.text.USBD_LL_DevDisconnected,"ax",%progbits
 1295              		.align	1
 1296              		.global	USBD_LL_DevDisconnected
 1297              		.syntax unified
 1298              		.code	16
 1299              		.thumb_func
 1301              	USBD_LL_DevDisconnected:
 1302              	.LVL116:
 1303              	.LFB62:
 581:Middlewares/ST/STM32_USB_Device_Library/Core/Src/usbd_core.c **** 
 582:Middlewares/ST/STM32_USB_Device_Library/Core/Src/usbd_core.c **** /**
 583:Middlewares/ST/STM32_USB_Device_Library/Core/Src/usbd_core.c **** * @brief  USBD_DevDisconnected
 584:Middlewares/ST/STM32_USB_Device_Library/Core/Src/usbd_core.c **** *         Handle device disconnection event
 585:Middlewares/ST/STM32_USB_Device_Library/Core/Src/usbd_core.c **** * @param  pdev: device instance
 586:Middlewares/ST/STM32_USB_Device_Library/Core/Src/usbd_core.c **** * @retval status
 587:Middlewares/ST/STM32_USB_Device_Library/Core/Src/usbd_core.c **** */
 588:Middlewares/ST/STM32_USB_Device_Library/Core/Src/usbd_core.c **** USBD_StatusTypeDef USBD_LL_DevDisconnected(USBD_HandleTypeDef *pdev)
 589:Middlewares/ST/STM32_USB_Device_Library/Core/Src/usbd_core.c **** {
 1304              		.loc 1 589 1 is_stmt 1 view -0
 1305              		.cfi_startproc
 1306              		@ args = 0, pretend = 0, frame = 0
 1307              		@ frame_needed = 0, uses_anonymous_args = 0
 1308              		.loc 1 589 1 is_stmt 0 view .LVU325
 1309 0000 10B5     		push	{r4, lr}
 1310              	.LCFI11:
 1311              		.cfi_def_cfa_offset 8
 1312              		.cfi_offset 4, -8
 1313              		.cfi_offset 14, -4
 590:Middlewares/ST/STM32_USB_Device_Library/Core/Src/usbd_core.c ****   /* Free Class Resources */
 591:Middlewares/ST/STM32_USB_Device_Library/Core/Src/usbd_core.c ****   pdev->dev_state = USBD_STATE_DEFAULT;
 1314              		.loc 1 591 3 is_stmt 1 view .LVU326
 1315              		.loc 1 591 19 is_stmt 0 view .LVU327
 1316 0002 A723     		movs	r3, #167
 1317 0004 9B00     		lsls	r3, r3, #2
 1318 0006 0122     		movs	r2, #1
 1319 0008 C254     		strb	r2, [r0, r3]
 592:Middlewares/ST/STM32_USB_Device_Library/Core/Src/usbd_core.c ****   pdev->pClass->DeInit(pdev, (uint8_t)pdev->dev_config);
 1320              		.loc 1 592 3 is_stmt 1 view .LVU328
 1321              		.loc 1 592 7 is_stmt 0 view .LVU329
 1322 000a 1833     		adds	r3, r3, #24
 1323 000c C358     		ldr	r3, [r0, r3]
 1324              		.loc 1 592 15 view .LVU330
 1325 000e 5B68     		ldr	r3, [r3, #4]
 1326              		.loc 1 592 3 view .LVU331
 1327 0010 0179     		ldrb	r1, [r0, #4]
 1328 0012 9847     		blx	r3
 1329              	.LVL117:
 593:Middlewares/ST/STM32_USB_Device_Library/Core/Src/usbd_core.c **** 
 594:Middlewares/ST/STM32_USB_Device_Library/Core/Src/usbd_core.c ****   return USBD_OK;
 1330              		.loc 1 594 3 is_stmt 1 view .LVU332
 595:Middlewares/ST/STM32_USB_Device_Library/Core/Src/usbd_core.c **** }
 1331              		.loc 1 595 1 is_stmt 0 view .LVU333
 1332 0014 0020     		movs	r0, #0
ARM GAS  /tmp/ccDq1InM.s 			page 36


 1333              		@ sp needed
 1334 0016 10BD     		pop	{r4, pc}
 1335              		.cfi_endproc
 1336              	.LFE62:
 1338              		.text
 1339              	.Letext0:
 1340              		.file 2 "/usr/arm-none-eabi/include/machine/_default_types.h"
 1341              		.file 3 "/usr/arm-none-eabi/include/sys/_stdint.h"
 1342              		.file 4 "Middlewares/ST/STM32_USB_Device_Library/Core/Inc/usbd_def.h"
 1343              		.file 5 "Middlewares/ST/STM32_USB_Device_Library/Core/Inc/usbd_core.h"
 1344              		.file 6 "Middlewares/ST/STM32_USB_Device_Library/Core/Inc/usbd_ioreq.h"
 1345              		.file 7 "Middlewares/ST/STM32_USB_Device_Library/Core/Inc/usbd_ctlreq.h"
ARM GAS  /tmp/ccDq1InM.s 			page 37

