ARM GAS  /tmp/ccnpnYGN.s 			page 1


   1              		.cpu cortex-m0
   2              		.arch armv6s-m
   3              		.fpu softvfp
   4              		.eabi_attribute 20, 1
   5              		.eabi_attribute 21, 1
   6              		.eabi_attribute 23, 3
   7              		.eabi_attribute 24, 1
   8              		.eabi_attribute 25, 1
   9              		.eabi_attribute 26, 1
  10              		.eabi_attribute 30, 1
  11              		.eabi_attribute 34, 0
  12              		.eabi_attribute 18, 4
  13              		.file	"usbd_conf.c"
  14              		.text
  15              	.Ltext0:
  16              		.cfi_sections	.debug_frame
  17              		.file 1 "USB_DEVICE/Target/usbd_conf.c"
  18              		.section	.text.USBD_Get_USB_Status,"ax",%progbits
  19              		.align	1
  20              		.syntax unified
  21              		.code	16
  22              		.thumb_func
  24              	USBD_Get_USB_Status:
  25              	.LVL0:
  26              	.LFB74:
   1:USB_DEVICE/Target/usbd_conf.c **** /* USER CODE BEGIN Header */
   2:USB_DEVICE/Target/usbd_conf.c **** /**
   3:USB_DEVICE/Target/usbd_conf.c ****   ******************************************************************************
   4:USB_DEVICE/Target/usbd_conf.c ****   * @file           : Target/usbd_conf.c
   5:USB_DEVICE/Target/usbd_conf.c ****   * @version        : v2.0_Cube
   6:USB_DEVICE/Target/usbd_conf.c ****   * @brief          : This file implements the board support package for the USB device library
   7:USB_DEVICE/Target/usbd_conf.c ****   ******************************************************************************
   8:USB_DEVICE/Target/usbd_conf.c ****   * @attention
   9:USB_DEVICE/Target/usbd_conf.c ****   *
  10:USB_DEVICE/Target/usbd_conf.c ****   * Copyright (c) 2026 STMicroelectronics.
  11:USB_DEVICE/Target/usbd_conf.c ****   * All rights reserved.
  12:USB_DEVICE/Target/usbd_conf.c ****   *
  13:USB_DEVICE/Target/usbd_conf.c ****   * This software is licensed under terms that can be found in the LICENSE file
  14:USB_DEVICE/Target/usbd_conf.c ****   * in the root directory of this software component.
  15:USB_DEVICE/Target/usbd_conf.c ****   * If no LICENSE file comes with this software, it is provided AS-IS.
  16:USB_DEVICE/Target/usbd_conf.c ****   *
  17:USB_DEVICE/Target/usbd_conf.c ****   ******************************************************************************
  18:USB_DEVICE/Target/usbd_conf.c ****   */
  19:USB_DEVICE/Target/usbd_conf.c **** /* USER CODE END Header */
  20:USB_DEVICE/Target/usbd_conf.c **** 
  21:USB_DEVICE/Target/usbd_conf.c **** /* Includes ------------------------------------------------------------------*/
  22:USB_DEVICE/Target/usbd_conf.c **** #include "stm32f0xx.h"
  23:USB_DEVICE/Target/usbd_conf.c **** #include "stm32f0xx_hal.h"
  24:USB_DEVICE/Target/usbd_conf.c **** #include "usbd_def.h"
  25:USB_DEVICE/Target/usbd_conf.c **** #include "usbd_core.h"
  26:USB_DEVICE/Target/usbd_conf.c **** #include "usbd_cdc.h"
  27:USB_DEVICE/Target/usbd_conf.c **** 
  28:USB_DEVICE/Target/usbd_conf.c **** /* USER CODE BEGIN Includes */
  29:USB_DEVICE/Target/usbd_conf.c **** 
  30:USB_DEVICE/Target/usbd_conf.c **** /* USER CODE END Includes */
  31:USB_DEVICE/Target/usbd_conf.c **** 
  32:USB_DEVICE/Target/usbd_conf.c **** /* Private typedef -----------------------------------------------------------*/
ARM GAS  /tmp/ccnpnYGN.s 			page 2


  33:USB_DEVICE/Target/usbd_conf.c **** /* Private define ------------------------------------------------------------*/
  34:USB_DEVICE/Target/usbd_conf.c **** /* Private macro -------------------------------------------------------------*/
  35:USB_DEVICE/Target/usbd_conf.c **** 
  36:USB_DEVICE/Target/usbd_conf.c **** /* USER CODE BEGIN PV */
  37:USB_DEVICE/Target/usbd_conf.c **** /* Private variables ---------------------------------------------------------*/
  38:USB_DEVICE/Target/usbd_conf.c **** 
  39:USB_DEVICE/Target/usbd_conf.c **** /* USER CODE END PV */
  40:USB_DEVICE/Target/usbd_conf.c **** 
  41:USB_DEVICE/Target/usbd_conf.c **** PCD_HandleTypeDef hpcd_USB_FS;
  42:USB_DEVICE/Target/usbd_conf.c **** void Error_Handler(void);
  43:USB_DEVICE/Target/usbd_conf.c **** 
  44:USB_DEVICE/Target/usbd_conf.c **** /* USER CODE BEGIN 0 */
  45:USB_DEVICE/Target/usbd_conf.c **** 
  46:USB_DEVICE/Target/usbd_conf.c **** /* USER CODE END 0 */
  47:USB_DEVICE/Target/usbd_conf.c **** 
  48:USB_DEVICE/Target/usbd_conf.c **** /* USER CODE BEGIN PFP */
  49:USB_DEVICE/Target/usbd_conf.c **** /* Private function prototypes -----------------------------------------------*/
  50:USB_DEVICE/Target/usbd_conf.c **** 
  51:USB_DEVICE/Target/usbd_conf.c **** /* USER CODE END PFP */
  52:USB_DEVICE/Target/usbd_conf.c **** 
  53:USB_DEVICE/Target/usbd_conf.c **** /* Private functions ---------------------------------------------------------*/
  54:USB_DEVICE/Target/usbd_conf.c **** static USBD_StatusTypeDef USBD_Get_USB_Status(HAL_StatusTypeDef hal_status);
  55:USB_DEVICE/Target/usbd_conf.c **** /* USER CODE BEGIN 1 */
  56:USB_DEVICE/Target/usbd_conf.c **** static void SystemClockConfig_Resume(void);
  57:USB_DEVICE/Target/usbd_conf.c **** /* USER CODE END 1 */
  58:USB_DEVICE/Target/usbd_conf.c **** extern void SystemClock_Config(void);
  59:USB_DEVICE/Target/usbd_conf.c **** 
  60:USB_DEVICE/Target/usbd_conf.c **** /*******************************************************************************
  61:USB_DEVICE/Target/usbd_conf.c ****                        LL Driver Callbacks (PCD -> USB Device Library)
  62:USB_DEVICE/Target/usbd_conf.c **** *******************************************************************************/
  63:USB_DEVICE/Target/usbd_conf.c **** /* MSP Init */
  64:USB_DEVICE/Target/usbd_conf.c **** 
  65:USB_DEVICE/Target/usbd_conf.c **** void HAL_PCD_MspInit(PCD_HandleTypeDef* pcdHandle)
  66:USB_DEVICE/Target/usbd_conf.c **** {
  67:USB_DEVICE/Target/usbd_conf.c ****   if(pcdHandle->Instance==USB)
  68:USB_DEVICE/Target/usbd_conf.c ****   {
  69:USB_DEVICE/Target/usbd_conf.c ****   /* USER CODE BEGIN USB_MspInit 0 */
  70:USB_DEVICE/Target/usbd_conf.c **** 
  71:USB_DEVICE/Target/usbd_conf.c ****   /* USER CODE END USB_MspInit 0 */
  72:USB_DEVICE/Target/usbd_conf.c ****     /* Peripheral clock enable */
  73:USB_DEVICE/Target/usbd_conf.c ****     __HAL_RCC_USB_CLK_ENABLE();
  74:USB_DEVICE/Target/usbd_conf.c **** 
  75:USB_DEVICE/Target/usbd_conf.c ****     /* Peripheral interrupt init */
  76:USB_DEVICE/Target/usbd_conf.c ****     HAL_NVIC_SetPriority(USB_IRQn, 0, 0);
  77:USB_DEVICE/Target/usbd_conf.c ****     HAL_NVIC_EnableIRQ(USB_IRQn);
  78:USB_DEVICE/Target/usbd_conf.c ****   /* USER CODE BEGIN USB_MspInit 1 */
  79:USB_DEVICE/Target/usbd_conf.c **** 
  80:USB_DEVICE/Target/usbd_conf.c ****   /* USER CODE END USB_MspInit 1 */
  81:USB_DEVICE/Target/usbd_conf.c ****   }
  82:USB_DEVICE/Target/usbd_conf.c **** }
  83:USB_DEVICE/Target/usbd_conf.c **** 
  84:USB_DEVICE/Target/usbd_conf.c **** void HAL_PCD_MspDeInit(PCD_HandleTypeDef* pcdHandle)
  85:USB_DEVICE/Target/usbd_conf.c **** {
  86:USB_DEVICE/Target/usbd_conf.c ****   if(pcdHandle->Instance==USB)
  87:USB_DEVICE/Target/usbd_conf.c ****   {
  88:USB_DEVICE/Target/usbd_conf.c ****   /* USER CODE BEGIN USB_MspDeInit 0 */
  89:USB_DEVICE/Target/usbd_conf.c **** 
ARM GAS  /tmp/ccnpnYGN.s 			page 3


  90:USB_DEVICE/Target/usbd_conf.c ****   /* USER CODE END USB_MspDeInit 0 */
  91:USB_DEVICE/Target/usbd_conf.c ****     /* Peripheral clock disable */
  92:USB_DEVICE/Target/usbd_conf.c ****     __HAL_RCC_USB_CLK_DISABLE();
  93:USB_DEVICE/Target/usbd_conf.c **** 
  94:USB_DEVICE/Target/usbd_conf.c ****     /* Peripheral interrupt Deinit*/
  95:USB_DEVICE/Target/usbd_conf.c ****     HAL_NVIC_DisableIRQ(USB_IRQn);
  96:USB_DEVICE/Target/usbd_conf.c **** 
  97:USB_DEVICE/Target/usbd_conf.c ****   /* USER CODE BEGIN USB_MspDeInit 1 */
  98:USB_DEVICE/Target/usbd_conf.c **** 
  99:USB_DEVICE/Target/usbd_conf.c ****   /* USER CODE END USB_MspDeInit 1 */
 100:USB_DEVICE/Target/usbd_conf.c ****   }
 101:USB_DEVICE/Target/usbd_conf.c **** }
 102:USB_DEVICE/Target/usbd_conf.c **** 
 103:USB_DEVICE/Target/usbd_conf.c **** /**
 104:USB_DEVICE/Target/usbd_conf.c ****   * @brief  Setup stage callback
 105:USB_DEVICE/Target/usbd_conf.c ****   * @param  hpcd: PCD handle
 106:USB_DEVICE/Target/usbd_conf.c ****   * @retval None
 107:USB_DEVICE/Target/usbd_conf.c ****   */
 108:USB_DEVICE/Target/usbd_conf.c **** #if (USE_HAL_PCD_REGISTER_CALLBACKS == 1U)
 109:USB_DEVICE/Target/usbd_conf.c **** static void PCD_SetupStageCallback(PCD_HandleTypeDef *hpcd)
 110:USB_DEVICE/Target/usbd_conf.c **** #else
 111:USB_DEVICE/Target/usbd_conf.c **** void HAL_PCD_SetupStageCallback(PCD_HandleTypeDef *hpcd)
 112:USB_DEVICE/Target/usbd_conf.c **** #endif /* USE_HAL_PCD_REGISTER_CALLBACKS */
 113:USB_DEVICE/Target/usbd_conf.c **** {
 114:USB_DEVICE/Target/usbd_conf.c ****   USBD_LL_SetupStage((USBD_HandleTypeDef*)hpcd->pData, (uint8_t *)hpcd->Setup);
 115:USB_DEVICE/Target/usbd_conf.c **** }
 116:USB_DEVICE/Target/usbd_conf.c **** 
 117:USB_DEVICE/Target/usbd_conf.c **** /**
 118:USB_DEVICE/Target/usbd_conf.c ****   * @brief  Data Out stage callback.
 119:USB_DEVICE/Target/usbd_conf.c ****   * @param  hpcd: PCD handle
 120:USB_DEVICE/Target/usbd_conf.c ****   * @param  epnum: Endpoint number
 121:USB_DEVICE/Target/usbd_conf.c ****   * @retval None
 122:USB_DEVICE/Target/usbd_conf.c ****   */
 123:USB_DEVICE/Target/usbd_conf.c **** #if (USE_HAL_PCD_REGISTER_CALLBACKS == 1U)
 124:USB_DEVICE/Target/usbd_conf.c **** static void PCD_DataOutStageCallback(PCD_HandleTypeDef *hpcd, uint8_t epnum)
 125:USB_DEVICE/Target/usbd_conf.c **** #else
 126:USB_DEVICE/Target/usbd_conf.c **** void HAL_PCD_DataOutStageCallback(PCD_HandleTypeDef *hpcd, uint8_t epnum)
 127:USB_DEVICE/Target/usbd_conf.c **** #endif /* USE_HAL_PCD_REGISTER_CALLBACKS */
 128:USB_DEVICE/Target/usbd_conf.c **** {
 129:USB_DEVICE/Target/usbd_conf.c ****   USBD_LL_DataOutStage((USBD_HandleTypeDef*)hpcd->pData, epnum, hpcd->OUT_ep[epnum].xfer_buff);
 130:USB_DEVICE/Target/usbd_conf.c **** }
 131:USB_DEVICE/Target/usbd_conf.c **** 
 132:USB_DEVICE/Target/usbd_conf.c **** /**
 133:USB_DEVICE/Target/usbd_conf.c ****   * @brief  Data In stage callback.
 134:USB_DEVICE/Target/usbd_conf.c ****   * @param  hpcd: PCD handle
 135:USB_DEVICE/Target/usbd_conf.c ****   * @param  epnum: Endpoint number
 136:USB_DEVICE/Target/usbd_conf.c ****   * @retval None
 137:USB_DEVICE/Target/usbd_conf.c ****   */
 138:USB_DEVICE/Target/usbd_conf.c **** #if (USE_HAL_PCD_REGISTER_CALLBACKS == 1U)
 139:USB_DEVICE/Target/usbd_conf.c **** static void PCD_DataInStageCallback(PCD_HandleTypeDef *hpcd, uint8_t epnum)
 140:USB_DEVICE/Target/usbd_conf.c **** #else
 141:USB_DEVICE/Target/usbd_conf.c **** void HAL_PCD_DataInStageCallback(PCD_HandleTypeDef *hpcd, uint8_t epnum)
 142:USB_DEVICE/Target/usbd_conf.c **** #endif /* USE_HAL_PCD_REGISTER_CALLBACKS */
 143:USB_DEVICE/Target/usbd_conf.c **** {
 144:USB_DEVICE/Target/usbd_conf.c ****   USBD_LL_DataInStage((USBD_HandleTypeDef*)hpcd->pData, epnum, hpcd->IN_ep[epnum].xfer_buff);
 145:USB_DEVICE/Target/usbd_conf.c **** }
 146:USB_DEVICE/Target/usbd_conf.c **** 
ARM GAS  /tmp/ccnpnYGN.s 			page 4


 147:USB_DEVICE/Target/usbd_conf.c **** /**
 148:USB_DEVICE/Target/usbd_conf.c ****   * @brief  SOF callback.
 149:USB_DEVICE/Target/usbd_conf.c ****   * @param  hpcd: PCD handle
 150:USB_DEVICE/Target/usbd_conf.c ****   * @retval None
 151:USB_DEVICE/Target/usbd_conf.c ****   */
 152:USB_DEVICE/Target/usbd_conf.c **** #if (USE_HAL_PCD_REGISTER_CALLBACKS == 1U)
 153:USB_DEVICE/Target/usbd_conf.c **** static void PCD_SOFCallback(PCD_HandleTypeDef *hpcd)
 154:USB_DEVICE/Target/usbd_conf.c **** #else
 155:USB_DEVICE/Target/usbd_conf.c **** void HAL_PCD_SOFCallback(PCD_HandleTypeDef *hpcd)
 156:USB_DEVICE/Target/usbd_conf.c **** #endif /* USE_HAL_PCD_REGISTER_CALLBACKS */
 157:USB_DEVICE/Target/usbd_conf.c **** {
 158:USB_DEVICE/Target/usbd_conf.c ****   USBD_LL_SOF((USBD_HandleTypeDef*)hpcd->pData);
 159:USB_DEVICE/Target/usbd_conf.c **** }
 160:USB_DEVICE/Target/usbd_conf.c **** 
 161:USB_DEVICE/Target/usbd_conf.c **** /**
 162:USB_DEVICE/Target/usbd_conf.c ****   * @brief  Reset callback.
 163:USB_DEVICE/Target/usbd_conf.c ****   * @param  hpcd: PCD handle
 164:USB_DEVICE/Target/usbd_conf.c ****   * @retval None
 165:USB_DEVICE/Target/usbd_conf.c ****   */
 166:USB_DEVICE/Target/usbd_conf.c **** #if (USE_HAL_PCD_REGISTER_CALLBACKS == 1U)
 167:USB_DEVICE/Target/usbd_conf.c **** static void PCD_ResetCallback(PCD_HandleTypeDef *hpcd)
 168:USB_DEVICE/Target/usbd_conf.c **** #else
 169:USB_DEVICE/Target/usbd_conf.c **** void HAL_PCD_ResetCallback(PCD_HandleTypeDef *hpcd)
 170:USB_DEVICE/Target/usbd_conf.c **** #endif /* USE_HAL_PCD_REGISTER_CALLBACKS */
 171:USB_DEVICE/Target/usbd_conf.c **** {
 172:USB_DEVICE/Target/usbd_conf.c ****   USBD_SpeedTypeDef speed = USBD_SPEED_FULL;
 173:USB_DEVICE/Target/usbd_conf.c **** 
 174:USB_DEVICE/Target/usbd_conf.c ****   if ( hpcd->Init.speed != PCD_SPEED_FULL)
 175:USB_DEVICE/Target/usbd_conf.c ****   {
 176:USB_DEVICE/Target/usbd_conf.c ****     Error_Handler();
 177:USB_DEVICE/Target/usbd_conf.c ****   }
 178:USB_DEVICE/Target/usbd_conf.c ****     /* Set Speed. */
 179:USB_DEVICE/Target/usbd_conf.c ****   USBD_LL_SetSpeed((USBD_HandleTypeDef*)hpcd->pData, speed);
 180:USB_DEVICE/Target/usbd_conf.c **** 
 181:USB_DEVICE/Target/usbd_conf.c ****   /* Reset Device. */
 182:USB_DEVICE/Target/usbd_conf.c ****   USBD_LL_Reset((USBD_HandleTypeDef*)hpcd->pData);
 183:USB_DEVICE/Target/usbd_conf.c **** }
 184:USB_DEVICE/Target/usbd_conf.c **** 
 185:USB_DEVICE/Target/usbd_conf.c **** /**
 186:USB_DEVICE/Target/usbd_conf.c ****   * @brief  Suspend callback.
 187:USB_DEVICE/Target/usbd_conf.c ****   * When Low power mode is enabled the debug cannot be used (IAR, Keil doesn't support it)
 188:USB_DEVICE/Target/usbd_conf.c ****   * @param  hpcd: PCD handle
 189:USB_DEVICE/Target/usbd_conf.c ****   * @retval None
 190:USB_DEVICE/Target/usbd_conf.c ****   */
 191:USB_DEVICE/Target/usbd_conf.c **** #if (USE_HAL_PCD_REGISTER_CALLBACKS == 1U)
 192:USB_DEVICE/Target/usbd_conf.c **** static void PCD_SuspendCallback(PCD_HandleTypeDef *hpcd)
 193:USB_DEVICE/Target/usbd_conf.c **** #else
 194:USB_DEVICE/Target/usbd_conf.c **** void HAL_PCD_SuspendCallback(PCD_HandleTypeDef *hpcd)
 195:USB_DEVICE/Target/usbd_conf.c **** #endif /* USE_HAL_PCD_REGISTER_CALLBACKS */
 196:USB_DEVICE/Target/usbd_conf.c **** {
 197:USB_DEVICE/Target/usbd_conf.c ****   /* Inform USB library that core enters in suspend Mode. */
 198:USB_DEVICE/Target/usbd_conf.c ****   USBD_LL_Suspend((USBD_HandleTypeDef*)hpcd->pData);
 199:USB_DEVICE/Target/usbd_conf.c ****   /* Enter in STOP mode. */
 200:USB_DEVICE/Target/usbd_conf.c ****   /* USER CODE BEGIN 2 */
 201:USB_DEVICE/Target/usbd_conf.c ****   if (hpcd->Init.low_power_enable)
 202:USB_DEVICE/Target/usbd_conf.c ****   {
 203:USB_DEVICE/Target/usbd_conf.c ****     /* Set SLEEPDEEP bit and SleepOnExit of Cortex System Control Register. */
ARM GAS  /tmp/ccnpnYGN.s 			page 5


 204:USB_DEVICE/Target/usbd_conf.c ****     SCB->SCR |= (uint32_t)((uint32_t)(SCB_SCR_SLEEPDEEP_Msk | SCB_SCR_SLEEPONEXIT_Msk));
 205:USB_DEVICE/Target/usbd_conf.c ****   }
 206:USB_DEVICE/Target/usbd_conf.c ****   /* USER CODE END 2 */
 207:USB_DEVICE/Target/usbd_conf.c **** }
 208:USB_DEVICE/Target/usbd_conf.c **** 
 209:USB_DEVICE/Target/usbd_conf.c **** /**
 210:USB_DEVICE/Target/usbd_conf.c ****   * @brief  Resume callback.
 211:USB_DEVICE/Target/usbd_conf.c ****   * When Low power mode is enabled the debug cannot be used (IAR, Keil doesn't support it)
 212:USB_DEVICE/Target/usbd_conf.c ****   * @param  hpcd: PCD handle
 213:USB_DEVICE/Target/usbd_conf.c ****   * @retval None
 214:USB_DEVICE/Target/usbd_conf.c ****   */
 215:USB_DEVICE/Target/usbd_conf.c **** #if (USE_HAL_PCD_REGISTER_CALLBACKS == 1U)
 216:USB_DEVICE/Target/usbd_conf.c **** static void PCD_ResumeCallback(PCD_HandleTypeDef *hpcd)
 217:USB_DEVICE/Target/usbd_conf.c **** #else
 218:USB_DEVICE/Target/usbd_conf.c **** void HAL_PCD_ResumeCallback(PCD_HandleTypeDef *hpcd)
 219:USB_DEVICE/Target/usbd_conf.c **** #endif /* USE_HAL_PCD_REGISTER_CALLBACKS */
 220:USB_DEVICE/Target/usbd_conf.c **** {
 221:USB_DEVICE/Target/usbd_conf.c ****   /* USER CODE BEGIN 3 */
 222:USB_DEVICE/Target/usbd_conf.c ****   if (hpcd->Init.low_power_enable)
 223:USB_DEVICE/Target/usbd_conf.c ****   {
 224:USB_DEVICE/Target/usbd_conf.c ****     /* Reset SLEEPDEEP bit of Cortex System Control Register. */
 225:USB_DEVICE/Target/usbd_conf.c ****     SCB->SCR &= (uint32_t)~((uint32_t)(SCB_SCR_SLEEPDEEP_Msk | SCB_SCR_SLEEPONEXIT_Msk));
 226:USB_DEVICE/Target/usbd_conf.c ****     SystemClockConfig_Resume();
 227:USB_DEVICE/Target/usbd_conf.c ****   }
 228:USB_DEVICE/Target/usbd_conf.c ****   /* USER CODE END 3 */
 229:USB_DEVICE/Target/usbd_conf.c ****   USBD_LL_Resume((USBD_HandleTypeDef*)hpcd->pData);
 230:USB_DEVICE/Target/usbd_conf.c **** }
 231:USB_DEVICE/Target/usbd_conf.c **** 
 232:USB_DEVICE/Target/usbd_conf.c **** /**
 233:USB_DEVICE/Target/usbd_conf.c ****   * @brief  ISOOUTIncomplete callback.
 234:USB_DEVICE/Target/usbd_conf.c ****   * @param  hpcd: PCD handle
 235:USB_DEVICE/Target/usbd_conf.c ****   * @param  epnum: Endpoint number
 236:USB_DEVICE/Target/usbd_conf.c ****   * @retval None
 237:USB_DEVICE/Target/usbd_conf.c ****   */
 238:USB_DEVICE/Target/usbd_conf.c **** #if (USE_HAL_PCD_REGISTER_CALLBACKS == 1U)
 239:USB_DEVICE/Target/usbd_conf.c **** static void PCD_ISOOUTIncompleteCallback(PCD_HandleTypeDef *hpcd, uint8_t epnum)
 240:USB_DEVICE/Target/usbd_conf.c **** #else
 241:USB_DEVICE/Target/usbd_conf.c **** void HAL_PCD_ISOOUTIncompleteCallback(PCD_HandleTypeDef *hpcd, uint8_t epnum)
 242:USB_DEVICE/Target/usbd_conf.c **** #endif /* USE_HAL_PCD_REGISTER_CALLBACKS */
 243:USB_DEVICE/Target/usbd_conf.c **** {
 244:USB_DEVICE/Target/usbd_conf.c ****   USBD_LL_IsoOUTIncomplete((USBD_HandleTypeDef*)hpcd->pData, epnum);
 245:USB_DEVICE/Target/usbd_conf.c **** }
 246:USB_DEVICE/Target/usbd_conf.c **** 
 247:USB_DEVICE/Target/usbd_conf.c **** /**
 248:USB_DEVICE/Target/usbd_conf.c ****   * @brief  ISOINIncomplete callback.
 249:USB_DEVICE/Target/usbd_conf.c ****   * @param  hpcd: PCD handle
 250:USB_DEVICE/Target/usbd_conf.c ****   * @param  epnum: Endpoint number
 251:USB_DEVICE/Target/usbd_conf.c ****   * @retval None
 252:USB_DEVICE/Target/usbd_conf.c ****   */
 253:USB_DEVICE/Target/usbd_conf.c **** #if (USE_HAL_PCD_REGISTER_CALLBACKS == 1U)
 254:USB_DEVICE/Target/usbd_conf.c **** static void PCD_ISOINIncompleteCallback(PCD_HandleTypeDef *hpcd, uint8_t epnum)
 255:USB_DEVICE/Target/usbd_conf.c **** #else
 256:USB_DEVICE/Target/usbd_conf.c **** void HAL_PCD_ISOINIncompleteCallback(PCD_HandleTypeDef *hpcd, uint8_t epnum)
 257:USB_DEVICE/Target/usbd_conf.c **** #endif /* USE_HAL_PCD_REGISTER_CALLBACKS */
 258:USB_DEVICE/Target/usbd_conf.c **** {
 259:USB_DEVICE/Target/usbd_conf.c ****   USBD_LL_IsoINIncomplete((USBD_HandleTypeDef*)hpcd->pData, epnum);
 260:USB_DEVICE/Target/usbd_conf.c **** }
ARM GAS  /tmp/ccnpnYGN.s 			page 6


 261:USB_DEVICE/Target/usbd_conf.c **** 
 262:USB_DEVICE/Target/usbd_conf.c **** /**
 263:USB_DEVICE/Target/usbd_conf.c ****   * @brief  Connect callback.
 264:USB_DEVICE/Target/usbd_conf.c ****   * @param  hpcd: PCD handle
 265:USB_DEVICE/Target/usbd_conf.c ****   * @retval None
 266:USB_DEVICE/Target/usbd_conf.c ****   */
 267:USB_DEVICE/Target/usbd_conf.c **** #if (USE_HAL_PCD_REGISTER_CALLBACKS == 1U)
 268:USB_DEVICE/Target/usbd_conf.c **** static void PCD_ConnectCallback(PCD_HandleTypeDef *hpcd)
 269:USB_DEVICE/Target/usbd_conf.c **** #else
 270:USB_DEVICE/Target/usbd_conf.c **** void HAL_PCD_ConnectCallback(PCD_HandleTypeDef *hpcd)
 271:USB_DEVICE/Target/usbd_conf.c **** #endif /* USE_HAL_PCD_REGISTER_CALLBACKS */
 272:USB_DEVICE/Target/usbd_conf.c **** {
 273:USB_DEVICE/Target/usbd_conf.c ****   USBD_LL_DevConnected((USBD_HandleTypeDef*)hpcd->pData);
 274:USB_DEVICE/Target/usbd_conf.c **** }
 275:USB_DEVICE/Target/usbd_conf.c **** 
 276:USB_DEVICE/Target/usbd_conf.c **** /**
 277:USB_DEVICE/Target/usbd_conf.c ****   * @brief  Disconnect callback.
 278:USB_DEVICE/Target/usbd_conf.c ****   * @param  hpcd: PCD handle
 279:USB_DEVICE/Target/usbd_conf.c ****   * @retval None
 280:USB_DEVICE/Target/usbd_conf.c ****   */
 281:USB_DEVICE/Target/usbd_conf.c **** #if (USE_HAL_PCD_REGISTER_CALLBACKS == 1U)
 282:USB_DEVICE/Target/usbd_conf.c **** static void PCD_DisconnectCallback(PCD_HandleTypeDef *hpcd)
 283:USB_DEVICE/Target/usbd_conf.c **** #else
 284:USB_DEVICE/Target/usbd_conf.c **** void HAL_PCD_DisconnectCallback(PCD_HandleTypeDef *hpcd)
 285:USB_DEVICE/Target/usbd_conf.c **** #endif /* USE_HAL_PCD_REGISTER_CALLBACKS */
 286:USB_DEVICE/Target/usbd_conf.c **** {
 287:USB_DEVICE/Target/usbd_conf.c ****   USBD_LL_DevDisconnected((USBD_HandleTypeDef*)hpcd->pData);
 288:USB_DEVICE/Target/usbd_conf.c **** }
 289:USB_DEVICE/Target/usbd_conf.c **** 
 290:USB_DEVICE/Target/usbd_conf.c **** /*******************************************************************************
 291:USB_DEVICE/Target/usbd_conf.c ****                        LL Driver Interface (USB Device Library --> PCD)
 292:USB_DEVICE/Target/usbd_conf.c **** *******************************************************************************/
 293:USB_DEVICE/Target/usbd_conf.c **** 
 294:USB_DEVICE/Target/usbd_conf.c **** /**
 295:USB_DEVICE/Target/usbd_conf.c ****   * @brief  Initializes the low level portion of the device driver.
 296:USB_DEVICE/Target/usbd_conf.c ****   * @param  pdev: Device handle
 297:USB_DEVICE/Target/usbd_conf.c ****   * @retval USBD status
 298:USB_DEVICE/Target/usbd_conf.c ****   */
 299:USB_DEVICE/Target/usbd_conf.c **** USBD_StatusTypeDef USBD_LL_Init(USBD_HandleTypeDef *pdev)
 300:USB_DEVICE/Target/usbd_conf.c **** {
 301:USB_DEVICE/Target/usbd_conf.c ****   /* Init USB Ip. */
 302:USB_DEVICE/Target/usbd_conf.c ****   /* Link the driver to the stack. */
 303:USB_DEVICE/Target/usbd_conf.c ****   hpcd_USB_FS.pData = pdev;
 304:USB_DEVICE/Target/usbd_conf.c ****   pdev->pData = &hpcd_USB_FS;
 305:USB_DEVICE/Target/usbd_conf.c **** 
 306:USB_DEVICE/Target/usbd_conf.c ****   hpcd_USB_FS.Instance = USB;
 307:USB_DEVICE/Target/usbd_conf.c ****   hpcd_USB_FS.Init.dev_endpoints = 8;
 308:USB_DEVICE/Target/usbd_conf.c ****   hpcd_USB_FS.Init.speed = PCD_SPEED_FULL;
 309:USB_DEVICE/Target/usbd_conf.c ****   hpcd_USB_FS.Init.phy_itface = PCD_PHY_EMBEDDED;
 310:USB_DEVICE/Target/usbd_conf.c ****   hpcd_USB_FS.Init.low_power_enable = DISABLE;
 311:USB_DEVICE/Target/usbd_conf.c ****   hpcd_USB_FS.Init.lpm_enable = DISABLE;
 312:USB_DEVICE/Target/usbd_conf.c ****   hpcd_USB_FS.Init.battery_charging_enable = DISABLE;
 313:USB_DEVICE/Target/usbd_conf.c ****   if (HAL_PCD_Init(&hpcd_USB_FS) != HAL_OK)
 314:USB_DEVICE/Target/usbd_conf.c ****   {
 315:USB_DEVICE/Target/usbd_conf.c ****     Error_Handler( );
 316:USB_DEVICE/Target/usbd_conf.c ****   }
 317:USB_DEVICE/Target/usbd_conf.c **** 
ARM GAS  /tmp/ccnpnYGN.s 			page 7


 318:USB_DEVICE/Target/usbd_conf.c **** #if (USE_HAL_PCD_REGISTER_CALLBACKS == 1U)
 319:USB_DEVICE/Target/usbd_conf.c ****   /* Register USB PCD CallBacks */
 320:USB_DEVICE/Target/usbd_conf.c ****   HAL_PCD_RegisterCallback(&hpcd_USB_FS, HAL_PCD_SOF_CB_ID, PCD_SOFCallback);
 321:USB_DEVICE/Target/usbd_conf.c ****   HAL_PCD_RegisterCallback(&hpcd_USB_FS, HAL_PCD_SETUPSTAGE_CB_ID, PCD_SetupStageCallback);
 322:USB_DEVICE/Target/usbd_conf.c ****   HAL_PCD_RegisterCallback(&hpcd_USB_FS, HAL_PCD_RESET_CB_ID, PCD_ResetCallback);
 323:USB_DEVICE/Target/usbd_conf.c ****   HAL_PCD_RegisterCallback(&hpcd_USB_FS, HAL_PCD_SUSPEND_CB_ID, PCD_SuspendCallback);
 324:USB_DEVICE/Target/usbd_conf.c ****   HAL_PCD_RegisterCallback(&hpcd_USB_FS, HAL_PCD_RESUME_CB_ID, PCD_ResumeCallback);
 325:USB_DEVICE/Target/usbd_conf.c ****   HAL_PCD_RegisterCallback(&hpcd_USB_FS, HAL_PCD_CONNECT_CB_ID, PCD_ConnectCallback);
 326:USB_DEVICE/Target/usbd_conf.c ****   HAL_PCD_RegisterCallback(&hpcd_USB_FS, HAL_PCD_DISCONNECT_CB_ID, PCD_DisconnectCallback);
 327:USB_DEVICE/Target/usbd_conf.c **** 
 328:USB_DEVICE/Target/usbd_conf.c ****   HAL_PCD_RegisterDataOutStageCallback(&hpcd_USB_FS, PCD_DataOutStageCallback);
 329:USB_DEVICE/Target/usbd_conf.c ****   HAL_PCD_RegisterDataInStageCallback(&hpcd_USB_FS, PCD_DataInStageCallback);
 330:USB_DEVICE/Target/usbd_conf.c ****   HAL_PCD_RegisterIsoOutIncpltCallback(&hpcd_USB_FS, PCD_ISOOUTIncompleteCallback);
 331:USB_DEVICE/Target/usbd_conf.c ****   HAL_PCD_RegisterIsoInIncpltCallback(&hpcd_USB_FS, PCD_ISOINIncompleteCallback);
 332:USB_DEVICE/Target/usbd_conf.c **** #endif /* USE_HAL_PCD_REGISTER_CALLBACKS */
 333:USB_DEVICE/Target/usbd_conf.c ****   /* USER CODE BEGIN EndPoint_Configuration */
 334:USB_DEVICE/Target/usbd_conf.c ****   HAL_PCDEx_PMAConfig((PCD_HandleTypeDef*)pdev->pData , 0x00 , PCD_SNG_BUF, 0x18);
 335:USB_DEVICE/Target/usbd_conf.c ****   HAL_PCDEx_PMAConfig((PCD_HandleTypeDef*)pdev->pData , 0x80 , PCD_SNG_BUF, 0x58);
 336:USB_DEVICE/Target/usbd_conf.c ****   /* USER CODE END EndPoint_Configuration */
 337:USB_DEVICE/Target/usbd_conf.c ****   /* USER CODE BEGIN EndPoint_Configuration_CDC */
 338:USB_DEVICE/Target/usbd_conf.c ****   HAL_PCDEx_PMAConfig((PCD_HandleTypeDef*)pdev->pData , 0x81 , PCD_SNG_BUF, 0xC0);
 339:USB_DEVICE/Target/usbd_conf.c ****   HAL_PCDEx_PMAConfig((PCD_HandleTypeDef*)pdev->pData , 0x01 , PCD_SNG_BUF, 0x110);
 340:USB_DEVICE/Target/usbd_conf.c ****   HAL_PCDEx_PMAConfig((PCD_HandleTypeDef*)pdev->pData , 0x82 , PCD_SNG_BUF, 0x100);
 341:USB_DEVICE/Target/usbd_conf.c ****   /* USER CODE END EndPoint_Configuration_CDC */
 342:USB_DEVICE/Target/usbd_conf.c ****   return USBD_OK;
 343:USB_DEVICE/Target/usbd_conf.c **** }
 344:USB_DEVICE/Target/usbd_conf.c **** 
 345:USB_DEVICE/Target/usbd_conf.c **** /**
 346:USB_DEVICE/Target/usbd_conf.c ****   * @brief  De-Initializes the low level portion of the device driver.
 347:USB_DEVICE/Target/usbd_conf.c ****   * @param  pdev: Device handle
 348:USB_DEVICE/Target/usbd_conf.c ****   * @retval USBD status
 349:USB_DEVICE/Target/usbd_conf.c ****   */
 350:USB_DEVICE/Target/usbd_conf.c **** USBD_StatusTypeDef USBD_LL_DeInit(USBD_HandleTypeDef *pdev)
 351:USB_DEVICE/Target/usbd_conf.c **** {
 352:USB_DEVICE/Target/usbd_conf.c ****   HAL_StatusTypeDef hal_status = HAL_OK;
 353:USB_DEVICE/Target/usbd_conf.c ****   USBD_StatusTypeDef usb_status = USBD_OK;
 354:USB_DEVICE/Target/usbd_conf.c **** 
 355:USB_DEVICE/Target/usbd_conf.c ****   hal_status = HAL_PCD_DeInit(pdev->pData);
 356:USB_DEVICE/Target/usbd_conf.c **** 
 357:USB_DEVICE/Target/usbd_conf.c ****   usb_status =  USBD_Get_USB_Status(hal_status);
 358:USB_DEVICE/Target/usbd_conf.c **** 
 359:USB_DEVICE/Target/usbd_conf.c ****   return usb_status;
 360:USB_DEVICE/Target/usbd_conf.c **** }
 361:USB_DEVICE/Target/usbd_conf.c **** 
 362:USB_DEVICE/Target/usbd_conf.c **** /**
 363:USB_DEVICE/Target/usbd_conf.c ****   * @brief  Starts the low level portion of the device driver.
 364:USB_DEVICE/Target/usbd_conf.c ****   * @param  pdev: Device handle
 365:USB_DEVICE/Target/usbd_conf.c ****   * @retval USBD status
 366:USB_DEVICE/Target/usbd_conf.c ****   */
 367:USB_DEVICE/Target/usbd_conf.c **** USBD_StatusTypeDef USBD_LL_Start(USBD_HandleTypeDef *pdev)
 368:USB_DEVICE/Target/usbd_conf.c **** {
 369:USB_DEVICE/Target/usbd_conf.c ****   HAL_StatusTypeDef hal_status = HAL_OK;
 370:USB_DEVICE/Target/usbd_conf.c ****   USBD_StatusTypeDef usb_status = USBD_OK;
 371:USB_DEVICE/Target/usbd_conf.c **** 
 372:USB_DEVICE/Target/usbd_conf.c ****   hal_status = HAL_PCD_Start(pdev->pData);
 373:USB_DEVICE/Target/usbd_conf.c **** 
 374:USB_DEVICE/Target/usbd_conf.c ****   usb_status =  USBD_Get_USB_Status(hal_status);
ARM GAS  /tmp/ccnpnYGN.s 			page 8


 375:USB_DEVICE/Target/usbd_conf.c **** 
 376:USB_DEVICE/Target/usbd_conf.c ****   return usb_status;
 377:USB_DEVICE/Target/usbd_conf.c **** }
 378:USB_DEVICE/Target/usbd_conf.c **** 
 379:USB_DEVICE/Target/usbd_conf.c **** /**
 380:USB_DEVICE/Target/usbd_conf.c ****   * @brief  Stops the low level portion of the device driver.
 381:USB_DEVICE/Target/usbd_conf.c ****   * @param  pdev: Device handle
 382:USB_DEVICE/Target/usbd_conf.c ****   * @retval USBD status
 383:USB_DEVICE/Target/usbd_conf.c ****   */
 384:USB_DEVICE/Target/usbd_conf.c **** USBD_StatusTypeDef USBD_LL_Stop(USBD_HandleTypeDef *pdev)
 385:USB_DEVICE/Target/usbd_conf.c **** {
 386:USB_DEVICE/Target/usbd_conf.c ****   HAL_StatusTypeDef hal_status = HAL_OK;
 387:USB_DEVICE/Target/usbd_conf.c ****   USBD_StatusTypeDef usb_status = USBD_OK;
 388:USB_DEVICE/Target/usbd_conf.c **** 
 389:USB_DEVICE/Target/usbd_conf.c ****   hal_status = HAL_PCD_Stop(pdev->pData);
 390:USB_DEVICE/Target/usbd_conf.c **** 
 391:USB_DEVICE/Target/usbd_conf.c ****   usb_status =  USBD_Get_USB_Status(hal_status);
 392:USB_DEVICE/Target/usbd_conf.c **** 
 393:USB_DEVICE/Target/usbd_conf.c ****   return usb_status;
 394:USB_DEVICE/Target/usbd_conf.c **** }
 395:USB_DEVICE/Target/usbd_conf.c **** 
 396:USB_DEVICE/Target/usbd_conf.c **** /**
 397:USB_DEVICE/Target/usbd_conf.c ****   * @brief  Opens an endpoint of the low level driver.
 398:USB_DEVICE/Target/usbd_conf.c ****   * @param  pdev: Device handle
 399:USB_DEVICE/Target/usbd_conf.c ****   * @param  ep_addr: Endpoint number
 400:USB_DEVICE/Target/usbd_conf.c ****   * @param  ep_type: Endpoint type
 401:USB_DEVICE/Target/usbd_conf.c ****   * @param  ep_mps: Endpoint max packet size
 402:USB_DEVICE/Target/usbd_conf.c ****   * @retval USBD status
 403:USB_DEVICE/Target/usbd_conf.c ****   */
 404:USB_DEVICE/Target/usbd_conf.c **** USBD_StatusTypeDef USBD_LL_OpenEP(USBD_HandleTypeDef *pdev, uint8_t ep_addr, uint8_t ep_type, uint1
 405:USB_DEVICE/Target/usbd_conf.c **** {
 406:USB_DEVICE/Target/usbd_conf.c ****   HAL_StatusTypeDef hal_status = HAL_OK;
 407:USB_DEVICE/Target/usbd_conf.c ****   USBD_StatusTypeDef usb_status = USBD_OK;
 408:USB_DEVICE/Target/usbd_conf.c **** 
 409:USB_DEVICE/Target/usbd_conf.c ****   hal_status = HAL_PCD_EP_Open(pdev->pData, ep_addr, ep_mps, ep_type);
 410:USB_DEVICE/Target/usbd_conf.c **** 
 411:USB_DEVICE/Target/usbd_conf.c ****   usb_status =  USBD_Get_USB_Status(hal_status);
 412:USB_DEVICE/Target/usbd_conf.c **** 
 413:USB_DEVICE/Target/usbd_conf.c ****   return usb_status;
 414:USB_DEVICE/Target/usbd_conf.c **** }
 415:USB_DEVICE/Target/usbd_conf.c **** 
 416:USB_DEVICE/Target/usbd_conf.c **** /**
 417:USB_DEVICE/Target/usbd_conf.c ****   * @brief  Closes an endpoint of the low level driver.
 418:USB_DEVICE/Target/usbd_conf.c ****   * @param  pdev: Device handle
 419:USB_DEVICE/Target/usbd_conf.c ****   * @param  ep_addr: Endpoint number
 420:USB_DEVICE/Target/usbd_conf.c ****   * @retval USBD status
 421:USB_DEVICE/Target/usbd_conf.c ****   */
 422:USB_DEVICE/Target/usbd_conf.c **** USBD_StatusTypeDef USBD_LL_CloseEP(USBD_HandleTypeDef *pdev, uint8_t ep_addr)
 423:USB_DEVICE/Target/usbd_conf.c **** {
 424:USB_DEVICE/Target/usbd_conf.c ****   HAL_StatusTypeDef hal_status = HAL_OK;
 425:USB_DEVICE/Target/usbd_conf.c ****   USBD_StatusTypeDef usb_status = USBD_OK;
 426:USB_DEVICE/Target/usbd_conf.c **** 
 427:USB_DEVICE/Target/usbd_conf.c ****   hal_status = HAL_PCD_EP_Close(pdev->pData, ep_addr);
 428:USB_DEVICE/Target/usbd_conf.c **** 
 429:USB_DEVICE/Target/usbd_conf.c ****   usb_status =  USBD_Get_USB_Status(hal_status);
 430:USB_DEVICE/Target/usbd_conf.c **** 
 431:USB_DEVICE/Target/usbd_conf.c ****   return usb_status;
ARM GAS  /tmp/ccnpnYGN.s 			page 9


 432:USB_DEVICE/Target/usbd_conf.c **** }
 433:USB_DEVICE/Target/usbd_conf.c **** 
 434:USB_DEVICE/Target/usbd_conf.c **** /**
 435:USB_DEVICE/Target/usbd_conf.c ****   * @brief  Flushes an endpoint of the Low Level Driver.
 436:USB_DEVICE/Target/usbd_conf.c ****   * @param  pdev: Device handle
 437:USB_DEVICE/Target/usbd_conf.c ****   * @param  ep_addr: Endpoint number
 438:USB_DEVICE/Target/usbd_conf.c ****   * @retval USBD status
 439:USB_DEVICE/Target/usbd_conf.c ****   */
 440:USB_DEVICE/Target/usbd_conf.c **** USBD_StatusTypeDef USBD_LL_FlushEP(USBD_HandleTypeDef *pdev, uint8_t ep_addr)
 441:USB_DEVICE/Target/usbd_conf.c **** {
 442:USB_DEVICE/Target/usbd_conf.c ****   HAL_StatusTypeDef hal_status = HAL_OK;
 443:USB_DEVICE/Target/usbd_conf.c ****   USBD_StatusTypeDef usb_status = USBD_OK;
 444:USB_DEVICE/Target/usbd_conf.c **** 
 445:USB_DEVICE/Target/usbd_conf.c ****   hal_status = HAL_PCD_EP_Flush(pdev->pData, ep_addr);
 446:USB_DEVICE/Target/usbd_conf.c **** 
 447:USB_DEVICE/Target/usbd_conf.c ****   usb_status =  USBD_Get_USB_Status(hal_status);
 448:USB_DEVICE/Target/usbd_conf.c **** 
 449:USB_DEVICE/Target/usbd_conf.c ****   return usb_status;
 450:USB_DEVICE/Target/usbd_conf.c **** }
 451:USB_DEVICE/Target/usbd_conf.c **** 
 452:USB_DEVICE/Target/usbd_conf.c **** /**
 453:USB_DEVICE/Target/usbd_conf.c ****   * @brief  Sets a Stall condition on an endpoint of the Low Level Driver.
 454:USB_DEVICE/Target/usbd_conf.c ****   * @param  pdev: Device handle
 455:USB_DEVICE/Target/usbd_conf.c ****   * @param  ep_addr: Endpoint number
 456:USB_DEVICE/Target/usbd_conf.c ****   * @retval USBD status
 457:USB_DEVICE/Target/usbd_conf.c ****   */
 458:USB_DEVICE/Target/usbd_conf.c **** USBD_StatusTypeDef USBD_LL_StallEP(USBD_HandleTypeDef *pdev, uint8_t ep_addr)
 459:USB_DEVICE/Target/usbd_conf.c **** {
 460:USB_DEVICE/Target/usbd_conf.c ****   HAL_StatusTypeDef hal_status = HAL_OK;
 461:USB_DEVICE/Target/usbd_conf.c ****   USBD_StatusTypeDef usb_status = USBD_OK;
 462:USB_DEVICE/Target/usbd_conf.c **** 
 463:USB_DEVICE/Target/usbd_conf.c ****   hal_status = HAL_PCD_EP_SetStall(pdev->pData, ep_addr);
 464:USB_DEVICE/Target/usbd_conf.c **** 
 465:USB_DEVICE/Target/usbd_conf.c ****   usb_status =  USBD_Get_USB_Status(hal_status);
 466:USB_DEVICE/Target/usbd_conf.c **** 
 467:USB_DEVICE/Target/usbd_conf.c ****   return usb_status;
 468:USB_DEVICE/Target/usbd_conf.c **** }
 469:USB_DEVICE/Target/usbd_conf.c **** 
 470:USB_DEVICE/Target/usbd_conf.c **** /**
 471:USB_DEVICE/Target/usbd_conf.c ****   * @brief  Clears a Stall condition on an endpoint of the Low Level Driver.
 472:USB_DEVICE/Target/usbd_conf.c ****   * @param  pdev: Device handle
 473:USB_DEVICE/Target/usbd_conf.c ****   * @param  ep_addr: Endpoint number
 474:USB_DEVICE/Target/usbd_conf.c ****   * @retval USBD status
 475:USB_DEVICE/Target/usbd_conf.c ****   */
 476:USB_DEVICE/Target/usbd_conf.c **** USBD_StatusTypeDef USBD_LL_ClearStallEP(USBD_HandleTypeDef *pdev, uint8_t ep_addr)
 477:USB_DEVICE/Target/usbd_conf.c **** {
 478:USB_DEVICE/Target/usbd_conf.c ****   HAL_StatusTypeDef hal_status = HAL_OK;
 479:USB_DEVICE/Target/usbd_conf.c ****   USBD_StatusTypeDef usb_status = USBD_OK;
 480:USB_DEVICE/Target/usbd_conf.c **** 
 481:USB_DEVICE/Target/usbd_conf.c ****   hal_status = HAL_PCD_EP_ClrStall(pdev->pData, ep_addr);
 482:USB_DEVICE/Target/usbd_conf.c **** 
 483:USB_DEVICE/Target/usbd_conf.c ****   usb_status =  USBD_Get_USB_Status(hal_status);
 484:USB_DEVICE/Target/usbd_conf.c **** 
 485:USB_DEVICE/Target/usbd_conf.c ****   return usb_status;
 486:USB_DEVICE/Target/usbd_conf.c **** }
 487:USB_DEVICE/Target/usbd_conf.c **** 
 488:USB_DEVICE/Target/usbd_conf.c **** /**
ARM GAS  /tmp/ccnpnYGN.s 			page 10


 489:USB_DEVICE/Target/usbd_conf.c ****   * @brief  Returns Stall condition.
 490:USB_DEVICE/Target/usbd_conf.c ****   * @param  pdev: Device handle
 491:USB_DEVICE/Target/usbd_conf.c ****   * @param  ep_addr: Endpoint number
 492:USB_DEVICE/Target/usbd_conf.c ****   * @retval Stall (1: Yes, 0: No)
 493:USB_DEVICE/Target/usbd_conf.c ****   */
 494:USB_DEVICE/Target/usbd_conf.c **** uint8_t USBD_LL_IsStallEP(USBD_HandleTypeDef *pdev, uint8_t ep_addr)
 495:USB_DEVICE/Target/usbd_conf.c **** {
 496:USB_DEVICE/Target/usbd_conf.c ****   PCD_HandleTypeDef *hpcd = (PCD_HandleTypeDef*) pdev->pData;
 497:USB_DEVICE/Target/usbd_conf.c **** 
 498:USB_DEVICE/Target/usbd_conf.c ****   if((ep_addr & 0x80) == 0x80)
 499:USB_DEVICE/Target/usbd_conf.c ****   {
 500:USB_DEVICE/Target/usbd_conf.c ****     return hpcd->IN_ep[ep_addr & 0x7F].is_stall;
 501:USB_DEVICE/Target/usbd_conf.c ****   }
 502:USB_DEVICE/Target/usbd_conf.c ****   else
 503:USB_DEVICE/Target/usbd_conf.c ****   {
 504:USB_DEVICE/Target/usbd_conf.c ****     return hpcd->OUT_ep[ep_addr & 0x7F].is_stall;
 505:USB_DEVICE/Target/usbd_conf.c ****   }
 506:USB_DEVICE/Target/usbd_conf.c **** }
 507:USB_DEVICE/Target/usbd_conf.c **** 
 508:USB_DEVICE/Target/usbd_conf.c **** /**
 509:USB_DEVICE/Target/usbd_conf.c ****   * @brief  Assigns a USB address to the device.
 510:USB_DEVICE/Target/usbd_conf.c ****   * @param  pdev: Device handle
 511:USB_DEVICE/Target/usbd_conf.c ****   * @param  dev_addr: Device address
 512:USB_DEVICE/Target/usbd_conf.c ****   * @retval USBD status
 513:USB_DEVICE/Target/usbd_conf.c ****   */
 514:USB_DEVICE/Target/usbd_conf.c **** USBD_StatusTypeDef USBD_LL_SetUSBAddress(USBD_HandleTypeDef *pdev, uint8_t dev_addr)
 515:USB_DEVICE/Target/usbd_conf.c **** {
 516:USB_DEVICE/Target/usbd_conf.c ****   HAL_StatusTypeDef hal_status = HAL_OK;
 517:USB_DEVICE/Target/usbd_conf.c ****   USBD_StatusTypeDef usb_status = USBD_OK;
 518:USB_DEVICE/Target/usbd_conf.c **** 
 519:USB_DEVICE/Target/usbd_conf.c ****   hal_status = HAL_PCD_SetAddress(pdev->pData, dev_addr);
 520:USB_DEVICE/Target/usbd_conf.c **** 
 521:USB_DEVICE/Target/usbd_conf.c ****   usb_status =  USBD_Get_USB_Status(hal_status);
 522:USB_DEVICE/Target/usbd_conf.c **** 
 523:USB_DEVICE/Target/usbd_conf.c ****   return usb_status;
 524:USB_DEVICE/Target/usbd_conf.c **** }
 525:USB_DEVICE/Target/usbd_conf.c **** 
 526:USB_DEVICE/Target/usbd_conf.c **** /**
 527:USB_DEVICE/Target/usbd_conf.c ****   * @brief  Transmits data over an endpoint.
 528:USB_DEVICE/Target/usbd_conf.c ****   * @param  pdev: Device handle
 529:USB_DEVICE/Target/usbd_conf.c ****   * @param  ep_addr: Endpoint number
 530:USB_DEVICE/Target/usbd_conf.c ****   * @param  pbuf: Pointer to data to be sent
 531:USB_DEVICE/Target/usbd_conf.c ****   * @param  size: Data size
 532:USB_DEVICE/Target/usbd_conf.c ****   * @retval USBD status
 533:USB_DEVICE/Target/usbd_conf.c ****   */
 534:USB_DEVICE/Target/usbd_conf.c **** USBD_StatusTypeDef USBD_LL_Transmit(USBD_HandleTypeDef *pdev, uint8_t ep_addr, uint8_t *pbuf, uint1
 535:USB_DEVICE/Target/usbd_conf.c **** {
 536:USB_DEVICE/Target/usbd_conf.c ****   HAL_StatusTypeDef hal_status = HAL_OK;
 537:USB_DEVICE/Target/usbd_conf.c ****   USBD_StatusTypeDef usb_status = USBD_OK;
 538:USB_DEVICE/Target/usbd_conf.c **** 
 539:USB_DEVICE/Target/usbd_conf.c ****   hal_status = HAL_PCD_EP_Transmit(pdev->pData, ep_addr, pbuf, size);
 540:USB_DEVICE/Target/usbd_conf.c **** 
 541:USB_DEVICE/Target/usbd_conf.c ****   usb_status =  USBD_Get_USB_Status(hal_status);
 542:USB_DEVICE/Target/usbd_conf.c **** 
 543:USB_DEVICE/Target/usbd_conf.c ****   return usb_status;
 544:USB_DEVICE/Target/usbd_conf.c **** }
 545:USB_DEVICE/Target/usbd_conf.c **** 
ARM GAS  /tmp/ccnpnYGN.s 			page 11


 546:USB_DEVICE/Target/usbd_conf.c **** /**
 547:USB_DEVICE/Target/usbd_conf.c ****   * @brief  Prepares an endpoint for reception.
 548:USB_DEVICE/Target/usbd_conf.c ****   * @param  pdev: Device handle
 549:USB_DEVICE/Target/usbd_conf.c ****   * @param  ep_addr: Endpoint number
 550:USB_DEVICE/Target/usbd_conf.c ****   * @param  pbuf: Pointer to data to be received
 551:USB_DEVICE/Target/usbd_conf.c ****   * @param  size: Data size
 552:USB_DEVICE/Target/usbd_conf.c ****   * @retval USBD status
 553:USB_DEVICE/Target/usbd_conf.c ****   */
 554:USB_DEVICE/Target/usbd_conf.c **** USBD_StatusTypeDef USBD_LL_PrepareReceive(USBD_HandleTypeDef *pdev, uint8_t ep_addr, uint8_t *pbuf,
 555:USB_DEVICE/Target/usbd_conf.c **** {
 556:USB_DEVICE/Target/usbd_conf.c ****   HAL_StatusTypeDef hal_status = HAL_OK;
 557:USB_DEVICE/Target/usbd_conf.c ****   USBD_StatusTypeDef usb_status = USBD_OK;
 558:USB_DEVICE/Target/usbd_conf.c **** 
 559:USB_DEVICE/Target/usbd_conf.c ****   hal_status = HAL_PCD_EP_Receive(pdev->pData, ep_addr, pbuf, size);
 560:USB_DEVICE/Target/usbd_conf.c **** 
 561:USB_DEVICE/Target/usbd_conf.c ****   usb_status =  USBD_Get_USB_Status(hal_status);
 562:USB_DEVICE/Target/usbd_conf.c **** 
 563:USB_DEVICE/Target/usbd_conf.c ****   return usb_status;
 564:USB_DEVICE/Target/usbd_conf.c **** }
 565:USB_DEVICE/Target/usbd_conf.c **** 
 566:USB_DEVICE/Target/usbd_conf.c **** /**
 567:USB_DEVICE/Target/usbd_conf.c ****   * @brief  Returns the last transferred packet size.
 568:USB_DEVICE/Target/usbd_conf.c ****   * @param  pdev: Device handle
 569:USB_DEVICE/Target/usbd_conf.c ****   * @param  ep_addr: Endpoint number
 570:USB_DEVICE/Target/usbd_conf.c ****   * @retval Received Data Size
 571:USB_DEVICE/Target/usbd_conf.c ****   */
 572:USB_DEVICE/Target/usbd_conf.c **** uint32_t USBD_LL_GetRxDataSize(USBD_HandleTypeDef *pdev, uint8_t ep_addr)
 573:USB_DEVICE/Target/usbd_conf.c **** {
 574:USB_DEVICE/Target/usbd_conf.c ****   return HAL_PCD_EP_GetRxCount((PCD_HandleTypeDef*) pdev->pData, ep_addr);
 575:USB_DEVICE/Target/usbd_conf.c **** }
 576:USB_DEVICE/Target/usbd_conf.c **** 
 577:USB_DEVICE/Target/usbd_conf.c **** /**
 578:USB_DEVICE/Target/usbd_conf.c ****   * @brief  Delays routine for the USB device library.
 579:USB_DEVICE/Target/usbd_conf.c ****   * @param  Delay: Delay in ms
 580:USB_DEVICE/Target/usbd_conf.c ****   * @retval None
 581:USB_DEVICE/Target/usbd_conf.c ****   */
 582:USB_DEVICE/Target/usbd_conf.c **** void USBD_LL_Delay(uint32_t Delay)
 583:USB_DEVICE/Target/usbd_conf.c **** {
 584:USB_DEVICE/Target/usbd_conf.c ****   HAL_Delay(Delay);
 585:USB_DEVICE/Target/usbd_conf.c **** }
 586:USB_DEVICE/Target/usbd_conf.c **** 
 587:USB_DEVICE/Target/usbd_conf.c **** /**
 588:USB_DEVICE/Target/usbd_conf.c ****   * @brief  Static single allocation.
 589:USB_DEVICE/Target/usbd_conf.c ****   * @param  size: Size of allocated memory
 590:USB_DEVICE/Target/usbd_conf.c ****   * @retval None
 591:USB_DEVICE/Target/usbd_conf.c ****   */
 592:USB_DEVICE/Target/usbd_conf.c **** void *USBD_static_malloc(uint32_t size)
 593:USB_DEVICE/Target/usbd_conf.c **** {
 594:USB_DEVICE/Target/usbd_conf.c ****   static uint32_t mem[(sizeof(USBD_CDC_HandleTypeDef)/4)+1];/* On 32-bit boundary */
 595:USB_DEVICE/Target/usbd_conf.c ****   return mem;
 596:USB_DEVICE/Target/usbd_conf.c **** }
 597:USB_DEVICE/Target/usbd_conf.c **** 
 598:USB_DEVICE/Target/usbd_conf.c **** /**
 599:USB_DEVICE/Target/usbd_conf.c ****   * @brief  Dummy memory free
 600:USB_DEVICE/Target/usbd_conf.c ****   * @param  p: Pointer to allocated  memory address
 601:USB_DEVICE/Target/usbd_conf.c ****   * @retval None
 602:USB_DEVICE/Target/usbd_conf.c ****   */
ARM GAS  /tmp/ccnpnYGN.s 			page 12


 603:USB_DEVICE/Target/usbd_conf.c **** void USBD_static_free(void *p)
 604:USB_DEVICE/Target/usbd_conf.c **** {
 605:USB_DEVICE/Target/usbd_conf.c **** 
 606:USB_DEVICE/Target/usbd_conf.c **** }
 607:USB_DEVICE/Target/usbd_conf.c **** 
 608:USB_DEVICE/Target/usbd_conf.c **** /* USER CODE BEGIN 5 */
 609:USB_DEVICE/Target/usbd_conf.c **** /**
 610:USB_DEVICE/Target/usbd_conf.c ****   * @brief  Configures system clock after wake-up from USB Resume CallBack:
 611:USB_DEVICE/Target/usbd_conf.c ****   *         enable HSI, PLL and select PLL as system clock source.
 612:USB_DEVICE/Target/usbd_conf.c ****   * @retval None
 613:USB_DEVICE/Target/usbd_conf.c ****   */
 614:USB_DEVICE/Target/usbd_conf.c **** static void SystemClockConfig_Resume(void)
 615:USB_DEVICE/Target/usbd_conf.c **** {
 616:USB_DEVICE/Target/usbd_conf.c ****   SystemClock_Config();
 617:USB_DEVICE/Target/usbd_conf.c **** }
 618:USB_DEVICE/Target/usbd_conf.c **** /* USER CODE END 5 */
 619:USB_DEVICE/Target/usbd_conf.c **** 
 620:USB_DEVICE/Target/usbd_conf.c **** /**
 621:USB_DEVICE/Target/usbd_conf.c ****   * @brief  Returns the USB status depending on the HAL status:
 622:USB_DEVICE/Target/usbd_conf.c ****   * @param  hal_status: HAL status
 623:USB_DEVICE/Target/usbd_conf.c ****   * @retval USB status
 624:USB_DEVICE/Target/usbd_conf.c ****   */
 625:USB_DEVICE/Target/usbd_conf.c **** USBD_StatusTypeDef USBD_Get_USB_Status(HAL_StatusTypeDef hal_status)
 626:USB_DEVICE/Target/usbd_conf.c **** {
  27              		.loc 1 626 1 view -0
  28              		.cfi_startproc
  29              		@ args = 0, pretend = 0, frame = 0
  30              		@ frame_needed = 0, uses_anonymous_args = 0
  31              		@ link register save eliminated.
 627:USB_DEVICE/Target/usbd_conf.c ****   USBD_StatusTypeDef usb_status = USBD_OK;
  32              		.loc 1 627 3 view .LVU1
 628:USB_DEVICE/Target/usbd_conf.c **** 
 629:USB_DEVICE/Target/usbd_conf.c ****   switch (hal_status)
  33              		.loc 1 629 3 view .LVU2
  34 0000 0228     		cmp	r0, #2
  35 0002 04D0     		beq	.L3
  36 0004 05D8     		bhi	.L4
  37 0006 0028     		cmp	r0, #0
  38 0008 00D0     		beq	.L2
 630:USB_DEVICE/Target/usbd_conf.c ****   {
 631:USB_DEVICE/Target/usbd_conf.c ****     case HAL_OK :
 632:USB_DEVICE/Target/usbd_conf.c ****       usb_status = USBD_OK;
 633:USB_DEVICE/Target/usbd_conf.c ****     break;
 634:USB_DEVICE/Target/usbd_conf.c ****     case HAL_ERROR :
 635:USB_DEVICE/Target/usbd_conf.c ****       usb_status = USBD_FAIL;
  39              		.loc 1 635 18 is_stmt 0 view .LVU3
  40 000a 0220     		movs	r0, #2
  41              	.LVL1:
  42              	.L2:
 636:USB_DEVICE/Target/usbd_conf.c ****     break;
 637:USB_DEVICE/Target/usbd_conf.c ****     case HAL_BUSY :
 638:USB_DEVICE/Target/usbd_conf.c ****       usb_status = USBD_BUSY;
 639:USB_DEVICE/Target/usbd_conf.c ****     break;
 640:USB_DEVICE/Target/usbd_conf.c ****     case HAL_TIMEOUT :
 641:USB_DEVICE/Target/usbd_conf.c ****       usb_status = USBD_FAIL;
 642:USB_DEVICE/Target/usbd_conf.c ****     break;
 643:USB_DEVICE/Target/usbd_conf.c ****     default :
ARM GAS  /tmp/ccnpnYGN.s 			page 13


 644:USB_DEVICE/Target/usbd_conf.c ****       usb_status = USBD_FAIL;
 645:USB_DEVICE/Target/usbd_conf.c ****     break;
 646:USB_DEVICE/Target/usbd_conf.c ****   }
 647:USB_DEVICE/Target/usbd_conf.c ****   return usb_status;
  43              		.loc 1 647 3 is_stmt 1 view .LVU4
 648:USB_DEVICE/Target/usbd_conf.c **** }
  44              		.loc 1 648 1 is_stmt 0 view .LVU5
  45              		@ sp needed
  46 000c 7047     		bx	lr
  47              	.LVL2:
  48              	.L3:
 638:USB_DEVICE/Target/usbd_conf.c ****     break;
  49              		.loc 1 638 18 view .LVU6
  50 000e 0120     		movs	r0, #1
  51              	.LVL3:
 638:USB_DEVICE/Target/usbd_conf.c ****     break;
  52              		.loc 1 638 18 view .LVU7
  53 0010 FCE7     		b	.L2
  54              	.LVL4:
  55              	.L4:
 641:USB_DEVICE/Target/usbd_conf.c ****     break;
  56              		.loc 1 641 18 view .LVU8
  57 0012 0220     		movs	r0, #2
  58              	.LVL5:
 641:USB_DEVICE/Target/usbd_conf.c ****     break;
  59              		.loc 1 641 18 view .LVU9
  60 0014 FAE7     		b	.L2
  61              		.cfi_endproc
  62              	.LFE74:
  64              		.section	.text.SystemClockConfig_Resume,"ax",%progbits
  65              		.align	1
  66              		.syntax unified
  67              		.code	16
  68              		.thumb_func
  70              	SystemClockConfig_Resume:
  71              	.LFB73:
 615:USB_DEVICE/Target/usbd_conf.c ****   SystemClock_Config();
  72              		.loc 1 615 1 is_stmt 1 view -0
  73              		.cfi_startproc
  74              		@ args = 0, pretend = 0, frame = 0
  75              		@ frame_needed = 0, uses_anonymous_args = 0
  76 0000 10B5     		push	{r4, lr}
  77              	.LCFI0:
  78              		.cfi_def_cfa_offset 8
  79              		.cfi_offset 4, -8
  80              		.cfi_offset 14, -4
 616:USB_DEVICE/Target/usbd_conf.c **** }
  81              		.loc 1 616 3 view .LVU11
  82 0002 FFF7FEFF 		bl	SystemClock_Config
  83              	.LVL6:
 617:USB_DEVICE/Target/usbd_conf.c **** /* USER CODE END 5 */
  84              		.loc 1 617 1 is_stmt 0 view .LVU12
  85              		@ sp needed
  86 0006 10BD     		pop	{r4, pc}
  87              		.cfi_endproc
  88              	.LFE73:
  90              		.section	.text.HAL_PCD_MspInit,"ax",%progbits
ARM GAS  /tmp/ccnpnYGN.s 			page 14


  91              		.align	1
  92              		.global	HAL_PCD_MspInit
  93              		.syntax unified
  94              		.code	16
  95              		.thumb_func
  97              	HAL_PCD_MspInit:
  98              	.LVL7:
  99              	.LFB43:
  66:USB_DEVICE/Target/usbd_conf.c ****   if(pcdHandle->Instance==USB)
 100              		.loc 1 66 1 is_stmt 1 view -0
 101              		.cfi_startproc
 102              		@ args = 0, pretend = 0, frame = 8
 103              		@ frame_needed = 0, uses_anonymous_args = 0
  66:USB_DEVICE/Target/usbd_conf.c ****   if(pcdHandle->Instance==USB)
 104              		.loc 1 66 1 is_stmt 0 view .LVU14
 105 0000 00B5     		push	{lr}
 106              	.LCFI1:
 107              		.cfi_def_cfa_offset 4
 108              		.cfi_offset 14, -4
 109 0002 83B0     		sub	sp, sp, #12
 110              	.LCFI2:
 111              		.cfi_def_cfa_offset 16
  67:USB_DEVICE/Target/usbd_conf.c ****   {
 112              		.loc 1 67 3 is_stmt 1 view .LVU15
  67:USB_DEVICE/Target/usbd_conf.c ****   {
 113              		.loc 1 67 15 is_stmt 0 view .LVU16
 114 0004 0268     		ldr	r2, [r0]
  67:USB_DEVICE/Target/usbd_conf.c ****   {
 115              		.loc 1 67 5 view .LVU17
 116 0006 0C4B     		ldr	r3, .L10
 117 0008 9A42     		cmp	r2, r3
 118 000a 01D0     		beq	.L9
 119              	.LVL8:
 120              	.L7:
  82:USB_DEVICE/Target/usbd_conf.c **** 
 121              		.loc 1 82 1 view .LVU18
 122 000c 03B0     		add	sp, sp, #12
 123              		@ sp needed
 124 000e 00BD     		pop	{pc}
 125              	.LVL9:
 126              	.L9:
  73:USB_DEVICE/Target/usbd_conf.c **** 
 127              		.loc 1 73 5 is_stmt 1 view .LVU19
 128              	.LBB2:
  73:USB_DEVICE/Target/usbd_conf.c **** 
 129              		.loc 1 73 5 view .LVU20
  73:USB_DEVICE/Target/usbd_conf.c **** 
 130              		.loc 1 73 5 view .LVU21
 131 0010 0A4B     		ldr	r3, .L10+4
 132 0012 DA69     		ldr	r2, [r3, #28]
 133 0014 8021     		movs	r1, #128
 134 0016 0904     		lsls	r1, r1, #16
 135 0018 0A43     		orrs	r2, r1
 136 001a DA61     		str	r2, [r3, #28]
  73:USB_DEVICE/Target/usbd_conf.c **** 
 137              		.loc 1 73 5 view .LVU22
 138 001c DB69     		ldr	r3, [r3, #28]
ARM GAS  /tmp/ccnpnYGN.s 			page 15


 139 001e 0B40     		ands	r3, r1
 140 0020 0193     		str	r3, [sp, #4]
  73:USB_DEVICE/Target/usbd_conf.c **** 
 141              		.loc 1 73 5 view .LVU23
 142 0022 019B     		ldr	r3, [sp, #4]
 143              	.LBE2:
  73:USB_DEVICE/Target/usbd_conf.c **** 
 144              		.loc 1 73 5 view .LVU24
  76:USB_DEVICE/Target/usbd_conf.c ****     HAL_NVIC_EnableIRQ(USB_IRQn);
 145              		.loc 1 76 5 view .LVU25
 146 0024 0022     		movs	r2, #0
 147 0026 0021     		movs	r1, #0
 148 0028 1F20     		movs	r0, #31
 149              	.LVL10:
  76:USB_DEVICE/Target/usbd_conf.c ****     HAL_NVIC_EnableIRQ(USB_IRQn);
 150              		.loc 1 76 5 is_stmt 0 view .LVU26
 151 002a FFF7FEFF 		bl	HAL_NVIC_SetPriority
 152              	.LVL11:
  77:USB_DEVICE/Target/usbd_conf.c ****   /* USER CODE BEGIN USB_MspInit 1 */
 153              		.loc 1 77 5 is_stmt 1 view .LVU27
 154 002e 1F20     		movs	r0, #31
 155 0030 FFF7FEFF 		bl	HAL_NVIC_EnableIRQ
 156              	.LVL12:
  82:USB_DEVICE/Target/usbd_conf.c **** 
 157              		.loc 1 82 1 is_stmt 0 view .LVU28
 158 0034 EAE7     		b	.L7
 159              	.L11:
 160 0036 C046     		.align	2
 161              	.L10:
 162 0038 005C0040 		.word	1073765376
 163 003c 00100240 		.word	1073876992
 164              		.cfi_endproc
 165              	.LFE43:
 167              		.section	.text.HAL_PCD_MspDeInit,"ax",%progbits
 168              		.align	1
 169              		.global	HAL_PCD_MspDeInit
 170              		.syntax unified
 171              		.code	16
 172              		.thumb_func
 174              	HAL_PCD_MspDeInit:
 175              	.LVL13:
 176              	.LFB44:
  85:USB_DEVICE/Target/usbd_conf.c ****   if(pcdHandle->Instance==USB)
 177              		.loc 1 85 1 is_stmt 1 view -0
 178              		.cfi_startproc
 179              		@ args = 0, pretend = 0, frame = 0
 180              		@ frame_needed = 0, uses_anonymous_args = 0
  85:USB_DEVICE/Target/usbd_conf.c ****   if(pcdHandle->Instance==USB)
 181              		.loc 1 85 1 is_stmt 0 view .LVU30
 182 0000 10B5     		push	{r4, lr}
 183              	.LCFI3:
 184              		.cfi_def_cfa_offset 8
 185              		.cfi_offset 4, -8
 186              		.cfi_offset 14, -4
  86:USB_DEVICE/Target/usbd_conf.c ****   {
 187              		.loc 1 86 3 is_stmt 1 view .LVU31
  86:USB_DEVICE/Target/usbd_conf.c ****   {
ARM GAS  /tmp/ccnpnYGN.s 			page 16


 188              		.loc 1 86 15 is_stmt 0 view .LVU32
 189 0002 0268     		ldr	r2, [r0]
  86:USB_DEVICE/Target/usbd_conf.c ****   {
 190              		.loc 1 86 5 view .LVU33
 191 0004 064B     		ldr	r3, .L15
 192 0006 9A42     		cmp	r2, r3
 193 0008 00D0     		beq	.L14
 194              	.LVL14:
 195              	.L12:
 101:USB_DEVICE/Target/usbd_conf.c **** 
 196              		.loc 1 101 1 view .LVU34
 197              		@ sp needed
 198 000a 10BD     		pop	{r4, pc}
 199              	.LVL15:
 200              	.L14:
  92:USB_DEVICE/Target/usbd_conf.c **** 
 201              		.loc 1 92 5 is_stmt 1 view .LVU35
 202 000c 054A     		ldr	r2, .L15+4
 203 000e D369     		ldr	r3, [r2, #28]
 204 0010 0549     		ldr	r1, .L15+8
 205 0012 0B40     		ands	r3, r1
 206 0014 D361     		str	r3, [r2, #28]
  95:USB_DEVICE/Target/usbd_conf.c **** 
 207              		.loc 1 95 5 view .LVU36
 208 0016 1F20     		movs	r0, #31
 209              	.LVL16:
  95:USB_DEVICE/Target/usbd_conf.c **** 
 210              		.loc 1 95 5 is_stmt 0 view .LVU37
 211 0018 FFF7FEFF 		bl	HAL_NVIC_DisableIRQ
 212              	.LVL17:
 101:USB_DEVICE/Target/usbd_conf.c **** 
 213              		.loc 1 101 1 view .LVU38
 214 001c F5E7     		b	.L12
 215              	.L16:
 216 001e C046     		.align	2
 217              	.L15:
 218 0020 005C0040 		.word	1073765376
 219 0024 00100240 		.word	1073876992
 220 0028 FFFF7FFF 		.word	-8388609
 221              		.cfi_endproc
 222              	.LFE44:
 224              		.section	.text.HAL_PCD_SetupStageCallback,"ax",%progbits
 225              		.align	1
 226              		.global	HAL_PCD_SetupStageCallback
 227              		.syntax unified
 228              		.code	16
 229              		.thumb_func
 231              	HAL_PCD_SetupStageCallback:
 232              	.LVL18:
 233              	.LFB45:
 113:USB_DEVICE/Target/usbd_conf.c ****   USBD_LL_SetupStage((USBD_HandleTypeDef*)hpcd->pData, (uint8_t *)hpcd->Setup);
 234              		.loc 1 113 1 is_stmt 1 view -0
 235              		.cfi_startproc
 236              		@ args = 0, pretend = 0, frame = 0
 237              		@ frame_needed = 0, uses_anonymous_args = 0
 113:USB_DEVICE/Target/usbd_conf.c ****   USBD_LL_SetupStage((USBD_HandleTypeDef*)hpcd->pData, (uint8_t *)hpcd->Setup);
 238              		.loc 1 113 1 is_stmt 0 view .LVU40
ARM GAS  /tmp/ccnpnYGN.s 			page 17


 239 0000 10B5     		push	{r4, lr}
 240              	.LCFI4:
 241              		.cfi_def_cfa_offset 8
 242              		.cfi_offset 4, -8
 243              		.cfi_offset 14, -4
 244 0002 0100     		movs	r1, r0
 114:USB_DEVICE/Target/usbd_conf.c **** }
 245              		.loc 1 114 3 is_stmt 1 view .LVU41
 114:USB_DEVICE/Target/usbd_conf.c **** }
 246              		.loc 1 114 47 is_stmt 0 view .LVU42
 247 0004 B623     		movs	r3, #182
 248 0006 9B00     		lsls	r3, r3, #2
 249 0008 C058     		ldr	r0, [r0, r3]
 250              	.LVL19:
 114:USB_DEVICE/Target/usbd_conf.c **** }
 251              		.loc 1 114 67 view .LVU43
 252 000a 403B     		subs	r3, r3, #64
 253 000c 9C46     		mov	ip, r3
 254 000e 6144     		add	r1, r1, ip
 255              	.LVL20:
 114:USB_DEVICE/Target/usbd_conf.c **** }
 256              		.loc 1 114 3 view .LVU44
 257 0010 FFF7FEFF 		bl	USBD_LL_SetupStage
 258              	.LVL21:
 115:USB_DEVICE/Target/usbd_conf.c **** 
 259              		.loc 1 115 1 view .LVU45
 260              		@ sp needed
 261 0014 10BD     		pop	{r4, pc}
 262              		.cfi_endproc
 263              	.LFE45:
 265              		.section	.text.HAL_PCD_DataOutStageCallback,"ax",%progbits
 266              		.align	1
 267              		.global	HAL_PCD_DataOutStageCallback
 268              		.syntax unified
 269              		.code	16
 270              		.thumb_func
 272              	HAL_PCD_DataOutStageCallback:
 273              	.LVL22:
 274              	.LFB46:
 128:USB_DEVICE/Target/usbd_conf.c ****   USBD_LL_DataOutStage((USBD_HandleTypeDef*)hpcd->pData, epnum, hpcd->OUT_ep[epnum].xfer_buff);
 275              		.loc 1 128 1 is_stmt 1 view -0
 276              		.cfi_startproc
 277              		@ args = 0, pretend = 0, frame = 0
 278              		@ frame_needed = 0, uses_anonymous_args = 0
 128:USB_DEVICE/Target/usbd_conf.c ****   USBD_LL_DataOutStage((USBD_HandleTypeDef*)hpcd->pData, epnum, hpcd->OUT_ep[epnum].xfer_buff);
 279              		.loc 1 128 1 is_stmt 0 view .LVU47
 280 0000 10B5     		push	{r4, lr}
 281              	.LCFI5:
 282              		.cfi_def_cfa_offset 8
 283              		.cfi_offset 4, -8
 284              		.cfi_offset 14, -4
 285 0002 0300     		movs	r3, r0
 129:USB_DEVICE/Target/usbd_conf.c **** }
 286              		.loc 1 129 3 is_stmt 1 view .LVU48
 129:USB_DEVICE/Target/usbd_conf.c **** }
 287              		.loc 1 129 49 is_stmt 0 view .LVU49
 288 0004 B622     		movs	r2, #182
ARM GAS  /tmp/ccnpnYGN.s 			page 18


 289 0006 9200     		lsls	r2, r2, #2
 290 0008 8058     		ldr	r0, [r0, r2]
 291              	.LVL23:
 129:USB_DEVICE/Target/usbd_conf.c **** }
 292              		.loc 1 129 3 view .LVU50
 293 000a 8A00     		lsls	r2, r1, #2
 294 000c 5218     		adds	r2, r2, r1
 295 000e D200     		lsls	r2, r2, #3
 296 0010 9B18     		adds	r3, r3, r2
 297              	.LVL24:
 129:USB_DEVICE/Target/usbd_conf.c **** }
 298              		.loc 1 129 3 view .LVU51
 299 0012 6533     		adds	r3, r3, #101
 300 0014 FF33     		adds	r3, r3, #255
 301 0016 1A68     		ldr	r2, [r3]
 302 0018 FFF7FEFF 		bl	USBD_LL_DataOutStage
 303              	.LVL25:
 130:USB_DEVICE/Target/usbd_conf.c **** 
 304              		.loc 1 130 1 view .LVU52
 305              		@ sp needed
 306 001c 10BD     		pop	{r4, pc}
 307              		.cfi_endproc
 308              	.LFE46:
 310              		.section	.text.HAL_PCD_DataInStageCallback,"ax",%progbits
 311              		.align	1
 312              		.global	HAL_PCD_DataInStageCallback
 313              		.syntax unified
 314              		.code	16
 315              		.thumb_func
 317              	HAL_PCD_DataInStageCallback:
 318              	.LVL26:
 319              	.LFB47:
 143:USB_DEVICE/Target/usbd_conf.c ****   USBD_LL_DataInStage((USBD_HandleTypeDef*)hpcd->pData, epnum, hpcd->IN_ep[epnum].xfer_buff);
 320              		.loc 1 143 1 is_stmt 1 view -0
 321              		.cfi_startproc
 322              		@ args = 0, pretend = 0, frame = 0
 323              		@ frame_needed = 0, uses_anonymous_args = 0
 143:USB_DEVICE/Target/usbd_conf.c ****   USBD_LL_DataInStage((USBD_HandleTypeDef*)hpcd->pData, epnum, hpcd->IN_ep[epnum].xfer_buff);
 324              		.loc 1 143 1 is_stmt 0 view .LVU54
 325 0000 10B5     		push	{r4, lr}
 326              	.LCFI6:
 327              		.cfi_def_cfa_offset 8
 328              		.cfi_offset 4, -8
 329              		.cfi_offset 14, -4
 330 0002 0300     		movs	r3, r0
 144:USB_DEVICE/Target/usbd_conf.c **** }
 331              		.loc 1 144 3 is_stmt 1 view .LVU55
 144:USB_DEVICE/Target/usbd_conf.c **** }
 332              		.loc 1 144 48 is_stmt 0 view .LVU56
 333 0004 B622     		movs	r2, #182
 334 0006 9200     		lsls	r2, r2, #2
 335 0008 8058     		ldr	r0, [r0, r2]
 336              	.LVL27:
 144:USB_DEVICE/Target/usbd_conf.c **** }
 337              		.loc 1 144 3 view .LVU57
 338 000a 8A00     		lsls	r2, r1, #2
 339 000c 5218     		adds	r2, r2, r1
ARM GAS  /tmp/ccnpnYGN.s 			page 19


 340 000e D200     		lsls	r2, r2, #3
 341 0010 9B18     		adds	r3, r3, r2
 342              	.LVL28:
 144:USB_DEVICE/Target/usbd_conf.c **** }
 343              		.loc 1 144 3 view .LVU58
 344 0012 5A6A     		ldr	r2, [r3, #36]
 345 0014 FFF7FEFF 		bl	USBD_LL_DataInStage
 346              	.LVL29:
 145:USB_DEVICE/Target/usbd_conf.c **** 
 347              		.loc 1 145 1 view .LVU59
 348              		@ sp needed
 349 0018 10BD     		pop	{r4, pc}
 350              		.cfi_endproc
 351              	.LFE47:
 353              		.section	.text.HAL_PCD_SOFCallback,"ax",%progbits
 354              		.align	1
 355              		.global	HAL_PCD_SOFCallback
 356              		.syntax unified
 357              		.code	16
 358              		.thumb_func
 360              	HAL_PCD_SOFCallback:
 361              	.LVL30:
 362              	.LFB48:
 157:USB_DEVICE/Target/usbd_conf.c ****   USBD_LL_SOF((USBD_HandleTypeDef*)hpcd->pData);
 363              		.loc 1 157 1 is_stmt 1 view -0
 364              		.cfi_startproc
 365              		@ args = 0, pretend = 0, frame = 0
 366              		@ frame_needed = 0, uses_anonymous_args = 0
 157:USB_DEVICE/Target/usbd_conf.c ****   USBD_LL_SOF((USBD_HandleTypeDef*)hpcd->pData);
 367              		.loc 1 157 1 is_stmt 0 view .LVU61
 368 0000 10B5     		push	{r4, lr}
 369              	.LCFI7:
 370              		.cfi_def_cfa_offset 8
 371              		.cfi_offset 4, -8
 372              		.cfi_offset 14, -4
 158:USB_DEVICE/Target/usbd_conf.c **** }
 373              		.loc 1 158 3 is_stmt 1 view .LVU62
 158:USB_DEVICE/Target/usbd_conf.c **** }
 374              		.loc 1 158 40 is_stmt 0 view .LVU63
 375 0002 B623     		movs	r3, #182
 376 0004 9B00     		lsls	r3, r3, #2
 377 0006 C058     		ldr	r0, [r0, r3]
 378              	.LVL31:
 158:USB_DEVICE/Target/usbd_conf.c **** }
 379              		.loc 1 158 3 view .LVU64
 380 0008 FFF7FEFF 		bl	USBD_LL_SOF
 381              	.LVL32:
 159:USB_DEVICE/Target/usbd_conf.c **** 
 382              		.loc 1 159 1 view .LVU65
 383              		@ sp needed
 384 000c 10BD     		pop	{r4, pc}
 385              		.cfi_endproc
 386              	.LFE48:
 388              		.section	.text.HAL_PCD_ResetCallback,"ax",%progbits
 389              		.align	1
 390              		.global	HAL_PCD_ResetCallback
 391              		.syntax unified
ARM GAS  /tmp/ccnpnYGN.s 			page 20


 392              		.code	16
 393              		.thumb_func
 395              	HAL_PCD_ResetCallback:
 396              	.LVL33:
 397              	.LFB49:
 171:USB_DEVICE/Target/usbd_conf.c ****   USBD_SpeedTypeDef speed = USBD_SPEED_FULL;
 398              		.loc 1 171 1 is_stmt 1 view -0
 399              		.cfi_startproc
 400              		@ args = 0, pretend = 0, frame = 0
 401              		@ frame_needed = 0, uses_anonymous_args = 0
 171:USB_DEVICE/Target/usbd_conf.c ****   USBD_SpeedTypeDef speed = USBD_SPEED_FULL;
 402              		.loc 1 171 1 is_stmt 0 view .LVU67
 403 0000 70B5     		push	{r4, r5, r6, lr}
 404              	.LCFI8:
 405              		.cfi_def_cfa_offset 16
 406              		.cfi_offset 4, -16
 407              		.cfi_offset 5, -12
 408              		.cfi_offset 6, -8
 409              		.cfi_offset 14, -4
 410 0002 0400     		movs	r4, r0
 172:USB_DEVICE/Target/usbd_conf.c **** 
 411              		.loc 1 172 3 is_stmt 1 view .LVU68
 412              	.LVL34:
 174:USB_DEVICE/Target/usbd_conf.c ****   {
 413              		.loc 1 174 3 view .LVU69
 174:USB_DEVICE/Target/usbd_conf.c ****   {
 414              		.loc 1 174 18 is_stmt 0 view .LVU70
 415 0004 4379     		ldrb	r3, [r0, #5]
 174:USB_DEVICE/Target/usbd_conf.c ****   {
 416              		.loc 1 174 6 view .LVU71
 417 0006 022B     		cmp	r3, #2
 418 0008 09D1     		bne	.L23
 419              	.LVL35:
 420              	.L22:
 179:USB_DEVICE/Target/usbd_conf.c **** 
 421              		.loc 1 179 3 is_stmt 1 view .LVU72
 179:USB_DEVICE/Target/usbd_conf.c **** 
 422              		.loc 1 179 45 is_stmt 0 view .LVU73
 423 000a B625     		movs	r5, #182
 424 000c AD00     		lsls	r5, r5, #2
 425 000e 6059     		ldr	r0, [r4, r5]
 179:USB_DEVICE/Target/usbd_conf.c **** 
 426              		.loc 1 179 3 view .LVU74
 427 0010 0121     		movs	r1, #1
 428 0012 FFF7FEFF 		bl	USBD_LL_SetSpeed
 429              	.LVL36:
 182:USB_DEVICE/Target/usbd_conf.c **** }
 430              		.loc 1 182 3 is_stmt 1 view .LVU75
 182:USB_DEVICE/Target/usbd_conf.c **** }
 431              		.loc 1 182 42 is_stmt 0 view .LVU76
 432 0016 6059     		ldr	r0, [r4, r5]
 182:USB_DEVICE/Target/usbd_conf.c **** }
 433              		.loc 1 182 3 view .LVU77
 434 0018 FFF7FEFF 		bl	USBD_LL_Reset
 435              	.LVL37:
 183:USB_DEVICE/Target/usbd_conf.c **** 
 436              		.loc 1 183 1 view .LVU78
ARM GAS  /tmp/ccnpnYGN.s 			page 21


 437              		@ sp needed
 438              	.LVL38:
 183:USB_DEVICE/Target/usbd_conf.c **** 
 439              		.loc 1 183 1 view .LVU79
 440 001c 70BD     		pop	{r4, r5, r6, pc}
 441              	.LVL39:
 442              	.L23:
 176:USB_DEVICE/Target/usbd_conf.c ****   }
 443              		.loc 1 176 5 is_stmt 1 view .LVU80
 444 001e FFF7FEFF 		bl	Error_Handler
 445              	.LVL40:
 176:USB_DEVICE/Target/usbd_conf.c ****   }
 446              		.loc 1 176 5 is_stmt 0 view .LVU81
 447 0022 F2E7     		b	.L22
 448              		.cfi_endproc
 449              	.LFE49:
 451              		.section	.text.HAL_PCD_SuspendCallback,"ax",%progbits
 452              		.align	1
 453              		.global	HAL_PCD_SuspendCallback
 454              		.syntax unified
 455              		.code	16
 456              		.thumb_func
 458              	HAL_PCD_SuspendCallback:
 459              	.LVL41:
 460              	.LFB50:
 196:USB_DEVICE/Target/usbd_conf.c ****   /* Inform USB library that core enters in suspend Mode. */
 461              		.loc 1 196 1 is_stmt 1 view -0
 462              		.cfi_startproc
 463              		@ args = 0, pretend = 0, frame = 0
 464              		@ frame_needed = 0, uses_anonymous_args = 0
 196:USB_DEVICE/Target/usbd_conf.c ****   /* Inform USB library that core enters in suspend Mode. */
 465              		.loc 1 196 1 is_stmt 0 view .LVU83
 466 0000 10B5     		push	{r4, lr}
 467              	.LCFI9:
 468              		.cfi_def_cfa_offset 8
 469              		.cfi_offset 4, -8
 470              		.cfi_offset 14, -4
 471 0002 0400     		movs	r4, r0
 198:USB_DEVICE/Target/usbd_conf.c ****   /* Enter in STOP mode. */
 472              		.loc 1 198 3 is_stmt 1 view .LVU84
 198:USB_DEVICE/Target/usbd_conf.c ****   /* Enter in STOP mode. */
 473              		.loc 1 198 44 is_stmt 0 view .LVU85
 474 0004 B623     		movs	r3, #182
 475 0006 9B00     		lsls	r3, r3, #2
 476 0008 C058     		ldr	r0, [r0, r3]
 477              	.LVL42:
 198:USB_DEVICE/Target/usbd_conf.c ****   /* Enter in STOP mode. */
 478              		.loc 1 198 3 view .LVU86
 479 000a FFF7FEFF 		bl	USBD_LL_Suspend
 480              	.LVL43:
 201:USB_DEVICE/Target/usbd_conf.c ****   {
 481              		.loc 1 201 3 is_stmt 1 view .LVU87
 201:USB_DEVICE/Target/usbd_conf.c ****   {
 482              		.loc 1 201 17 is_stmt 0 view .LVU88
 483 000e 637A     		ldrb	r3, [r4, #9]
 201:USB_DEVICE/Target/usbd_conf.c ****   {
 484              		.loc 1 201 6 view .LVU89
ARM GAS  /tmp/ccnpnYGN.s 			page 22


 485 0010 002B     		cmp	r3, #0
 486 0012 04D0     		beq	.L24
 204:USB_DEVICE/Target/usbd_conf.c ****   }
 487              		.loc 1 204 5 is_stmt 1 view .LVU90
 204:USB_DEVICE/Target/usbd_conf.c ****   }
 488              		.loc 1 204 8 is_stmt 0 view .LVU91
 489 0014 024A     		ldr	r2, .L26
 490 0016 1369     		ldr	r3, [r2, #16]
 204:USB_DEVICE/Target/usbd_conf.c ****   }
 491              		.loc 1 204 14 view .LVU92
 492 0018 0621     		movs	r1, #6
 493 001a 0B43     		orrs	r3, r1
 494 001c 1361     		str	r3, [r2, #16]
 495              	.L24:
 207:USB_DEVICE/Target/usbd_conf.c **** 
 496              		.loc 1 207 1 view .LVU93
 497              		@ sp needed
 498              	.LVL44:
 207:USB_DEVICE/Target/usbd_conf.c **** 
 499              		.loc 1 207 1 view .LVU94
 500 001e 10BD     		pop	{r4, pc}
 501              	.L27:
 502              		.align	2
 503              	.L26:
 504 0020 00ED00E0 		.word	-536810240
 505              		.cfi_endproc
 506              	.LFE50:
 508              		.section	.text.HAL_PCD_ResumeCallback,"ax",%progbits
 509              		.align	1
 510              		.global	HAL_PCD_ResumeCallback
 511              		.syntax unified
 512              		.code	16
 513              		.thumb_func
 515              	HAL_PCD_ResumeCallback:
 516              	.LVL45:
 517              	.LFB51:
 220:USB_DEVICE/Target/usbd_conf.c ****   /* USER CODE BEGIN 3 */
 518              		.loc 1 220 1 is_stmt 1 view -0
 519              		.cfi_startproc
 520              		@ args = 0, pretend = 0, frame = 0
 521              		@ frame_needed = 0, uses_anonymous_args = 0
 220:USB_DEVICE/Target/usbd_conf.c ****   /* USER CODE BEGIN 3 */
 522              		.loc 1 220 1 is_stmt 0 view .LVU96
 523 0000 10B5     		push	{r4, lr}
 524              	.LCFI10:
 525              		.cfi_def_cfa_offset 8
 526              		.cfi_offset 4, -8
 527              		.cfi_offset 14, -4
 528 0002 0400     		movs	r4, r0
 222:USB_DEVICE/Target/usbd_conf.c ****   {
 529              		.loc 1 222 3 is_stmt 1 view .LVU97
 222:USB_DEVICE/Target/usbd_conf.c ****   {
 530              		.loc 1 222 17 is_stmt 0 view .LVU98
 531 0004 437A     		ldrb	r3, [r0, #9]
 222:USB_DEVICE/Target/usbd_conf.c ****   {
 532              		.loc 1 222 6 view .LVU99
 533 0006 002B     		cmp	r3, #0
ARM GAS  /tmp/ccnpnYGN.s 			page 23


 534 0008 05D1     		bne	.L30
 535              	.LVL46:
 536              	.L29:
 229:USB_DEVICE/Target/usbd_conf.c **** }
 537              		.loc 1 229 3 is_stmt 1 view .LVU100
 229:USB_DEVICE/Target/usbd_conf.c **** }
 538              		.loc 1 229 43 is_stmt 0 view .LVU101
 539 000a B623     		movs	r3, #182
 540 000c 9B00     		lsls	r3, r3, #2
 541 000e E058     		ldr	r0, [r4, r3]
 229:USB_DEVICE/Target/usbd_conf.c **** }
 542              		.loc 1 229 3 view .LVU102
 543 0010 FFF7FEFF 		bl	USBD_LL_Resume
 544              	.LVL47:
 230:USB_DEVICE/Target/usbd_conf.c **** 
 545              		.loc 1 230 1 view .LVU103
 546              		@ sp needed
 547              	.LVL48:
 230:USB_DEVICE/Target/usbd_conf.c **** 
 548              		.loc 1 230 1 view .LVU104
 549 0014 10BD     		pop	{r4, pc}
 550              	.LVL49:
 551              	.L30:
 225:USB_DEVICE/Target/usbd_conf.c ****     SystemClockConfig_Resume();
 552              		.loc 1 225 5 is_stmt 1 view .LVU105
 225:USB_DEVICE/Target/usbd_conf.c ****     SystemClockConfig_Resume();
 553              		.loc 1 225 8 is_stmt 0 view .LVU106
 554 0016 044A     		ldr	r2, .L31
 555 0018 1369     		ldr	r3, [r2, #16]
 225:USB_DEVICE/Target/usbd_conf.c ****     SystemClockConfig_Resume();
 556              		.loc 1 225 14 view .LVU107
 557 001a 0621     		movs	r1, #6
 558 001c 8B43     		bics	r3, r1
 559 001e 1361     		str	r3, [r2, #16]
 226:USB_DEVICE/Target/usbd_conf.c ****   }
 560              		.loc 1 226 5 is_stmt 1 view .LVU108
 561 0020 FFF7FEFF 		bl	SystemClockConfig_Resume
 562              	.LVL50:
 226:USB_DEVICE/Target/usbd_conf.c ****   }
 563              		.loc 1 226 5 is_stmt 0 view .LVU109
 564 0024 F1E7     		b	.L29
 565              	.L32:
 566 0026 C046     		.align	2
 567              	.L31:
 568 0028 00ED00E0 		.word	-536810240
 569              		.cfi_endproc
 570              	.LFE51:
 572              		.section	.text.HAL_PCD_ISOOUTIncompleteCallback,"ax",%progbits
 573              		.align	1
 574              		.global	HAL_PCD_ISOOUTIncompleteCallback
 575              		.syntax unified
 576              		.code	16
 577              		.thumb_func
 579              	HAL_PCD_ISOOUTIncompleteCallback:
 580              	.LVL51:
 581              	.LFB52:
 243:USB_DEVICE/Target/usbd_conf.c ****   USBD_LL_IsoOUTIncomplete((USBD_HandleTypeDef*)hpcd->pData, epnum);
ARM GAS  /tmp/ccnpnYGN.s 			page 24


 582              		.loc 1 243 1 is_stmt 1 view -0
 583              		.cfi_startproc
 584              		@ args = 0, pretend = 0, frame = 0
 585              		@ frame_needed = 0, uses_anonymous_args = 0
 243:USB_DEVICE/Target/usbd_conf.c ****   USBD_LL_IsoOUTIncomplete((USBD_HandleTypeDef*)hpcd->pData, epnum);
 586              		.loc 1 243 1 is_stmt 0 view .LVU111
 587 0000 10B5     		push	{r4, lr}
 588              	.LCFI11:
 589              		.cfi_def_cfa_offset 8
 590              		.cfi_offset 4, -8
 591              		.cfi_offset 14, -4
 244:USB_DEVICE/Target/usbd_conf.c **** }
 592              		.loc 1 244 3 is_stmt 1 view .LVU112
 244:USB_DEVICE/Target/usbd_conf.c **** }
 593              		.loc 1 244 53 is_stmt 0 view .LVU113
 594 0002 B623     		movs	r3, #182
 595 0004 9B00     		lsls	r3, r3, #2
 596 0006 C058     		ldr	r0, [r0, r3]
 597              	.LVL52:
 244:USB_DEVICE/Target/usbd_conf.c **** }
 598              		.loc 1 244 3 view .LVU114
 599 0008 FFF7FEFF 		bl	USBD_LL_IsoOUTIncomplete
 600              	.LVL53:
 245:USB_DEVICE/Target/usbd_conf.c **** 
 601              		.loc 1 245 1 view .LVU115
 602              		@ sp needed
 603 000c 10BD     		pop	{r4, pc}
 604              		.cfi_endproc
 605              	.LFE52:
 607              		.section	.text.HAL_PCD_ISOINIncompleteCallback,"ax",%progbits
 608              		.align	1
 609              		.global	HAL_PCD_ISOINIncompleteCallback
 610              		.syntax unified
 611              		.code	16
 612              		.thumb_func
 614              	HAL_PCD_ISOINIncompleteCallback:
 615              	.LVL54:
 616              	.LFB53:
 258:USB_DEVICE/Target/usbd_conf.c ****   USBD_LL_IsoINIncomplete((USBD_HandleTypeDef*)hpcd->pData, epnum);
 617              		.loc 1 258 1 is_stmt 1 view -0
 618              		.cfi_startproc
 619              		@ args = 0, pretend = 0, frame = 0
 620              		@ frame_needed = 0, uses_anonymous_args = 0
 258:USB_DEVICE/Target/usbd_conf.c ****   USBD_LL_IsoINIncomplete((USBD_HandleTypeDef*)hpcd->pData, epnum);
 621              		.loc 1 258 1 is_stmt 0 view .LVU117
 622 0000 10B5     		push	{r4, lr}
 623              	.LCFI12:
 624              		.cfi_def_cfa_offset 8
 625              		.cfi_offset 4, -8
 626              		.cfi_offset 14, -4
 259:USB_DEVICE/Target/usbd_conf.c **** }
 627              		.loc 1 259 3 is_stmt 1 view .LVU118
 259:USB_DEVICE/Target/usbd_conf.c **** }
 628              		.loc 1 259 52 is_stmt 0 view .LVU119
 629 0002 B623     		movs	r3, #182
 630 0004 9B00     		lsls	r3, r3, #2
 631 0006 C058     		ldr	r0, [r0, r3]
ARM GAS  /tmp/ccnpnYGN.s 			page 25


 632              	.LVL55:
 259:USB_DEVICE/Target/usbd_conf.c **** }
 633              		.loc 1 259 3 view .LVU120
 634 0008 FFF7FEFF 		bl	USBD_LL_IsoINIncomplete
 635              	.LVL56:
 260:USB_DEVICE/Target/usbd_conf.c **** 
 636              		.loc 1 260 1 view .LVU121
 637              		@ sp needed
 638 000c 10BD     		pop	{r4, pc}
 639              		.cfi_endproc
 640              	.LFE53:
 642              		.section	.text.HAL_PCD_ConnectCallback,"ax",%progbits
 643              		.align	1
 644              		.global	HAL_PCD_ConnectCallback
 645              		.syntax unified
 646              		.code	16
 647              		.thumb_func
 649              	HAL_PCD_ConnectCallback:
 650              	.LVL57:
 651              	.LFB54:
 272:USB_DEVICE/Target/usbd_conf.c ****   USBD_LL_DevConnected((USBD_HandleTypeDef*)hpcd->pData);
 652              		.loc 1 272 1 is_stmt 1 view -0
 653              		.cfi_startproc
 654              		@ args = 0, pretend = 0, frame = 0
 655              		@ frame_needed = 0, uses_anonymous_args = 0
 272:USB_DEVICE/Target/usbd_conf.c ****   USBD_LL_DevConnected((USBD_HandleTypeDef*)hpcd->pData);
 656              		.loc 1 272 1 is_stmt 0 view .LVU123
 657 0000 10B5     		push	{r4, lr}
 658              	.LCFI13:
 659              		.cfi_def_cfa_offset 8
 660              		.cfi_offset 4, -8
 661              		.cfi_offset 14, -4
 273:USB_DEVICE/Target/usbd_conf.c **** }
 662              		.loc 1 273 3 is_stmt 1 view .LVU124
 273:USB_DEVICE/Target/usbd_conf.c **** }
 663              		.loc 1 273 49 is_stmt 0 view .LVU125
 664 0002 B623     		movs	r3, #182
 665 0004 9B00     		lsls	r3, r3, #2
 666 0006 C058     		ldr	r0, [r0, r3]
 667              	.LVL58:
 273:USB_DEVICE/Target/usbd_conf.c **** }
 668              		.loc 1 273 3 view .LVU126
 669 0008 FFF7FEFF 		bl	USBD_LL_DevConnected
 670              	.LVL59:
 274:USB_DEVICE/Target/usbd_conf.c **** 
 671              		.loc 1 274 1 view .LVU127
 672              		@ sp needed
 673 000c 10BD     		pop	{r4, pc}
 674              		.cfi_endproc
 675              	.LFE54:
 677              		.section	.text.HAL_PCD_DisconnectCallback,"ax",%progbits
 678              		.align	1
 679              		.global	HAL_PCD_DisconnectCallback
 680              		.syntax unified
 681              		.code	16
 682              		.thumb_func
 684              	HAL_PCD_DisconnectCallback:
ARM GAS  /tmp/ccnpnYGN.s 			page 26


 685              	.LVL60:
 686              	.LFB55:
 286:USB_DEVICE/Target/usbd_conf.c ****   USBD_LL_DevDisconnected((USBD_HandleTypeDef*)hpcd->pData);
 687              		.loc 1 286 1 is_stmt 1 view -0
 688              		.cfi_startproc
 689              		@ args = 0, pretend = 0, frame = 0
 690              		@ frame_needed = 0, uses_anonymous_args = 0
 286:USB_DEVICE/Target/usbd_conf.c ****   USBD_LL_DevDisconnected((USBD_HandleTypeDef*)hpcd->pData);
 691              		.loc 1 286 1 is_stmt 0 view .LVU129
 692 0000 10B5     		push	{r4, lr}
 693              	.LCFI14:
 694              		.cfi_def_cfa_offset 8
 695              		.cfi_offset 4, -8
 696              		.cfi_offset 14, -4
 287:USB_DEVICE/Target/usbd_conf.c **** }
 697              		.loc 1 287 3 is_stmt 1 view .LVU130
 287:USB_DEVICE/Target/usbd_conf.c **** }
 698              		.loc 1 287 52 is_stmt 0 view .LVU131
 699 0002 B623     		movs	r3, #182
 700 0004 9B00     		lsls	r3, r3, #2
 701 0006 C058     		ldr	r0, [r0, r3]
 702              	.LVL61:
 287:USB_DEVICE/Target/usbd_conf.c **** }
 703              		.loc 1 287 3 view .LVU132
 704 0008 FFF7FEFF 		bl	USBD_LL_DevDisconnected
 705              	.LVL62:
 288:USB_DEVICE/Target/usbd_conf.c **** 
 706              		.loc 1 288 1 view .LVU133
 707              		@ sp needed
 708 000c 10BD     		pop	{r4, pc}
 709              		.cfi_endproc
 710              	.LFE55:
 712              		.section	.text.USBD_LL_Init,"ax",%progbits
 713              		.align	1
 714              		.global	USBD_LL_Init
 715              		.syntax unified
 716              		.code	16
 717              		.thumb_func
 719              	USBD_LL_Init:
 720              	.LVL63:
 721              	.LFB56:
 300:USB_DEVICE/Target/usbd_conf.c ****   /* Init USB Ip. */
 722              		.loc 1 300 1 is_stmt 1 view -0
 723              		.cfi_startproc
 724              		@ args = 0, pretend = 0, frame = 0
 725              		@ frame_needed = 0, uses_anonymous_args = 0
 300:USB_DEVICE/Target/usbd_conf.c ****   /* Init USB Ip. */
 726              		.loc 1 300 1 is_stmt 0 view .LVU135
 727 0000 70B5     		push	{r4, r5, r6, lr}
 728              	.LCFI15:
 729              		.cfi_def_cfa_offset 16
 730              		.cfi_offset 4, -16
 731              		.cfi_offset 5, -12
 732              		.cfi_offset 6, -8
 733              		.cfi_offset 14, -4
 734 0002 0400     		movs	r4, r0
 303:USB_DEVICE/Target/usbd_conf.c ****   pdev->pData = &hpcd_USB_FS;
ARM GAS  /tmp/ccnpnYGN.s 			page 27


 735              		.loc 1 303 3 is_stmt 1 view .LVU136
 303:USB_DEVICE/Target/usbd_conf.c ****   pdev->pData = &hpcd_USB_FS;
 736              		.loc 1 303 21 is_stmt 0 view .LVU137
 737 0004 1D48     		ldr	r0, .L40
 738              	.LVL64:
 303:USB_DEVICE/Target/usbd_conf.c ****   pdev->pData = &hpcd_USB_FS;
 739              		.loc 1 303 21 view .LVU138
 740 0006 B623     		movs	r3, #182
 741 0008 9B00     		lsls	r3, r3, #2
 742 000a C450     		str	r4, [r0, r3]
 304:USB_DEVICE/Target/usbd_conf.c **** 
 743              		.loc 1 304 3 is_stmt 1 view .LVU139
 304:USB_DEVICE/Target/usbd_conf.c **** 
 744              		.loc 1 304 15 is_stmt 0 view .LVU140
 745 000c 183B     		subs	r3, r3, #24
 746 000e E050     		str	r0, [r4, r3]
 306:USB_DEVICE/Target/usbd_conf.c ****   hpcd_USB_FS.Init.dev_endpoints = 8;
 747              		.loc 1 306 3 is_stmt 1 view .LVU141
 306:USB_DEVICE/Target/usbd_conf.c ****   hpcd_USB_FS.Init.dev_endpoints = 8;
 748              		.loc 1 306 24 is_stmt 0 view .LVU142
 749 0010 1B4B     		ldr	r3, .L40+4
 750 0012 0360     		str	r3, [r0]
 307:USB_DEVICE/Target/usbd_conf.c ****   hpcd_USB_FS.Init.speed = PCD_SPEED_FULL;
 751              		.loc 1 307 3 is_stmt 1 view .LVU143
 307:USB_DEVICE/Target/usbd_conf.c ****   hpcd_USB_FS.Init.speed = PCD_SPEED_FULL;
 752              		.loc 1 307 34 is_stmt 0 view .LVU144
 753 0014 0823     		movs	r3, #8
 754 0016 0371     		strb	r3, [r0, #4]
 308:USB_DEVICE/Target/usbd_conf.c ****   hpcd_USB_FS.Init.phy_itface = PCD_PHY_EMBEDDED;
 755              		.loc 1 308 3 is_stmt 1 view .LVU145
 308:USB_DEVICE/Target/usbd_conf.c ****   hpcd_USB_FS.Init.phy_itface = PCD_PHY_EMBEDDED;
 756              		.loc 1 308 26 is_stmt 0 view .LVU146
 757 0018 063B     		subs	r3, r3, #6
 758 001a 4371     		strb	r3, [r0, #5]
 309:USB_DEVICE/Target/usbd_conf.c ****   hpcd_USB_FS.Init.low_power_enable = DISABLE;
 759              		.loc 1 309 3 is_stmt 1 view .LVU147
 309:USB_DEVICE/Target/usbd_conf.c ****   hpcd_USB_FS.Init.low_power_enable = DISABLE;
 760              		.loc 1 309 31 is_stmt 0 view .LVU148
 761 001c C371     		strb	r3, [r0, #7]
 310:USB_DEVICE/Target/usbd_conf.c ****   hpcd_USB_FS.Init.lpm_enable = DISABLE;
 762              		.loc 1 310 3 is_stmt 1 view .LVU149
 310:USB_DEVICE/Target/usbd_conf.c ****   hpcd_USB_FS.Init.lpm_enable = DISABLE;
 763              		.loc 1 310 37 is_stmt 0 view .LVU150
 764 001e 0023     		movs	r3, #0
 765 0020 4372     		strb	r3, [r0, #9]
 311:USB_DEVICE/Target/usbd_conf.c ****   hpcd_USB_FS.Init.battery_charging_enable = DISABLE;
 766              		.loc 1 311 3 is_stmt 1 view .LVU151
 311:USB_DEVICE/Target/usbd_conf.c ****   hpcd_USB_FS.Init.battery_charging_enable = DISABLE;
 767              		.loc 1 311 31 is_stmt 0 view .LVU152
 768 0022 8372     		strb	r3, [r0, #10]
 312:USB_DEVICE/Target/usbd_conf.c ****   if (HAL_PCD_Init(&hpcd_USB_FS) != HAL_OK)
 769              		.loc 1 312 3 is_stmt 1 view .LVU153
 312:USB_DEVICE/Target/usbd_conf.c ****   if (HAL_PCD_Init(&hpcd_USB_FS) != HAL_OK)
 770              		.loc 1 312 44 is_stmt 0 view .LVU154
 771 0024 C372     		strb	r3, [r0, #11]
 313:USB_DEVICE/Target/usbd_conf.c ****   {
 772              		.loc 1 313 3 is_stmt 1 view .LVU155
ARM GAS  /tmp/ccnpnYGN.s 			page 28


 313:USB_DEVICE/Target/usbd_conf.c ****   {
 773              		.loc 1 313 7 is_stmt 0 view .LVU156
 774 0026 FFF7FEFF 		bl	HAL_PCD_Init
 775              	.LVL65:
 313:USB_DEVICE/Target/usbd_conf.c ****   {
 776              		.loc 1 313 6 discriminator 1 view .LVU157
 777 002a 0028     		cmp	r0, #0
 778 002c 23D1     		bne	.L39
 779              	.L38:
 334:USB_DEVICE/Target/usbd_conf.c ****   HAL_PCDEx_PMAConfig((PCD_HandleTypeDef*)pdev->pData , 0x80 , PCD_SNG_BUF, 0x58);
 780              		.loc 1 334 3 is_stmt 1 view .LVU158
 334:USB_DEVICE/Target/usbd_conf.c ****   HAL_PCDEx_PMAConfig((PCD_HandleTypeDef*)pdev->pData , 0x80 , PCD_SNG_BUF, 0x58);
 781              		.loc 1 334 47 is_stmt 0 view .LVU159
 782 002e B025     		movs	r5, #176
 783 0030 AD00     		lsls	r5, r5, #2
 784 0032 6059     		ldr	r0, [r4, r5]
 334:USB_DEVICE/Target/usbd_conf.c ****   HAL_PCDEx_PMAConfig((PCD_HandleTypeDef*)pdev->pData , 0x80 , PCD_SNG_BUF, 0x58);
 785              		.loc 1 334 3 view .LVU160
 786 0034 1823     		movs	r3, #24
 787 0036 0022     		movs	r2, #0
 788 0038 0021     		movs	r1, #0
 789 003a FFF7FEFF 		bl	HAL_PCDEx_PMAConfig
 790              	.LVL66:
 335:USB_DEVICE/Target/usbd_conf.c ****   /* USER CODE END EndPoint_Configuration */
 791              		.loc 1 335 3 is_stmt 1 view .LVU161
 335:USB_DEVICE/Target/usbd_conf.c ****   /* USER CODE END EndPoint_Configuration */
 792              		.loc 1 335 47 is_stmt 0 view .LVU162
 793 003e 6059     		ldr	r0, [r4, r5]
 335:USB_DEVICE/Target/usbd_conf.c ****   /* USER CODE END EndPoint_Configuration */
 794              		.loc 1 335 3 view .LVU163
 795 0040 5823     		movs	r3, #88
 796 0042 0022     		movs	r2, #0
 797 0044 8021     		movs	r1, #128
 798 0046 FFF7FEFF 		bl	HAL_PCDEx_PMAConfig
 799              	.LVL67:
 338:USB_DEVICE/Target/usbd_conf.c ****   HAL_PCDEx_PMAConfig((PCD_HandleTypeDef*)pdev->pData , 0x01 , PCD_SNG_BUF, 0x110);
 800              		.loc 1 338 3 is_stmt 1 view .LVU164
 338:USB_DEVICE/Target/usbd_conf.c ****   HAL_PCDEx_PMAConfig((PCD_HandleTypeDef*)pdev->pData , 0x01 , PCD_SNG_BUF, 0x110);
 801              		.loc 1 338 47 is_stmt 0 view .LVU165
 802 004a 6059     		ldr	r0, [r4, r5]
 338:USB_DEVICE/Target/usbd_conf.c ****   HAL_PCDEx_PMAConfig((PCD_HandleTypeDef*)pdev->pData , 0x01 , PCD_SNG_BUF, 0x110);
 803              		.loc 1 338 3 view .LVU166
 804 004c C023     		movs	r3, #192
 805 004e 0022     		movs	r2, #0
 806 0050 8121     		movs	r1, #129
 807 0052 FFF7FEFF 		bl	HAL_PCDEx_PMAConfig
 808              	.LVL68:
 339:USB_DEVICE/Target/usbd_conf.c ****   HAL_PCDEx_PMAConfig((PCD_HandleTypeDef*)pdev->pData , 0x82 , PCD_SNG_BUF, 0x100);
 809              		.loc 1 339 3 is_stmt 1 view .LVU167
 339:USB_DEVICE/Target/usbd_conf.c ****   HAL_PCDEx_PMAConfig((PCD_HandleTypeDef*)pdev->pData , 0x82 , PCD_SNG_BUF, 0x100);
 810              		.loc 1 339 47 is_stmt 0 view .LVU168
 811 0056 6059     		ldr	r0, [r4, r5]
 339:USB_DEVICE/Target/usbd_conf.c ****   HAL_PCDEx_PMAConfig((PCD_HandleTypeDef*)pdev->pData , 0x82 , PCD_SNG_BUF, 0x100);
 812              		.loc 1 339 3 view .LVU169
 813 0058 8823     		movs	r3, #136
 814 005a 5B00     		lsls	r3, r3, #1
 815 005c 0022     		movs	r2, #0
ARM GAS  /tmp/ccnpnYGN.s 			page 29


 816 005e 0121     		movs	r1, #1
 817 0060 FFF7FEFF 		bl	HAL_PCDEx_PMAConfig
 818              	.LVL69:
 340:USB_DEVICE/Target/usbd_conf.c ****   /* USER CODE END EndPoint_Configuration_CDC */
 819              		.loc 1 340 3 is_stmt 1 view .LVU170
 340:USB_DEVICE/Target/usbd_conf.c ****   /* USER CODE END EndPoint_Configuration_CDC */
 820              		.loc 1 340 47 is_stmt 0 view .LVU171
 821 0064 6059     		ldr	r0, [r4, r5]
 340:USB_DEVICE/Target/usbd_conf.c ****   /* USER CODE END EndPoint_Configuration_CDC */
 822              		.loc 1 340 3 view .LVU172
 823 0066 8023     		movs	r3, #128
 824 0068 5B00     		lsls	r3, r3, #1
 825 006a 0022     		movs	r2, #0
 826 006c 8221     		movs	r1, #130
 827 006e FFF7FEFF 		bl	HAL_PCDEx_PMAConfig
 828              	.LVL70:
 342:USB_DEVICE/Target/usbd_conf.c **** }
 829              		.loc 1 342 3 is_stmt 1 view .LVU173
 343:USB_DEVICE/Target/usbd_conf.c **** 
 830              		.loc 1 343 1 is_stmt 0 view .LVU174
 831 0072 0020     		movs	r0, #0
 832              		@ sp needed
 833              	.LVL71:
 343:USB_DEVICE/Target/usbd_conf.c **** 
 834              		.loc 1 343 1 view .LVU175
 835 0074 70BD     		pop	{r4, r5, r6, pc}
 836              	.LVL72:
 837              	.L39:
 315:USB_DEVICE/Target/usbd_conf.c ****   }
 838              		.loc 1 315 5 is_stmt 1 view .LVU176
 839 0076 FFF7FEFF 		bl	Error_Handler
 840              	.LVL73:
 841 007a D8E7     		b	.L38
 842              	.L41:
 843              		.align	2
 844              	.L40:
 845 007c 00000000 		.word	hpcd_USB_FS
 846 0080 005C0040 		.word	1073765376
 847              		.cfi_endproc
 848              	.LFE56:
 850              		.section	.text.USBD_LL_DeInit,"ax",%progbits
 851              		.align	1
 852              		.global	USBD_LL_DeInit
 853              		.syntax unified
 854              		.code	16
 855              		.thumb_func
 857              	USBD_LL_DeInit:
 858              	.LVL74:
 859              	.LFB57:
 351:USB_DEVICE/Target/usbd_conf.c ****   HAL_StatusTypeDef hal_status = HAL_OK;
 860              		.loc 1 351 1 view -0
 861              		.cfi_startproc
 862              		@ args = 0, pretend = 0, frame = 0
 863              		@ frame_needed = 0, uses_anonymous_args = 0
 351:USB_DEVICE/Target/usbd_conf.c ****   HAL_StatusTypeDef hal_status = HAL_OK;
 864              		.loc 1 351 1 is_stmt 0 view .LVU178
 865 0000 10B5     		push	{r4, lr}
ARM GAS  /tmp/ccnpnYGN.s 			page 30


 866              	.LCFI16:
 867              		.cfi_def_cfa_offset 8
 868              		.cfi_offset 4, -8
 869              		.cfi_offset 14, -4
 352:USB_DEVICE/Target/usbd_conf.c ****   USBD_StatusTypeDef usb_status = USBD_OK;
 870              		.loc 1 352 3 is_stmt 1 view .LVU179
 871              	.LVL75:
 353:USB_DEVICE/Target/usbd_conf.c **** 
 872              		.loc 1 353 3 view .LVU180
 355:USB_DEVICE/Target/usbd_conf.c **** 
 873              		.loc 1 355 3 view .LVU181
 355:USB_DEVICE/Target/usbd_conf.c **** 
 874              		.loc 1 355 35 is_stmt 0 view .LVU182
 875 0002 B023     		movs	r3, #176
 876 0004 9B00     		lsls	r3, r3, #2
 877 0006 C058     		ldr	r0, [r0, r3]
 878              	.LVL76:
 355:USB_DEVICE/Target/usbd_conf.c **** 
 879              		.loc 1 355 16 view .LVU183
 880 0008 FFF7FEFF 		bl	HAL_PCD_DeInit
 881              	.LVL77:
 357:USB_DEVICE/Target/usbd_conf.c **** 
 882              		.loc 1 357 3 is_stmt 1 view .LVU184
 357:USB_DEVICE/Target/usbd_conf.c **** 
 883              		.loc 1 357 17 is_stmt 0 view .LVU185
 884 000c FFF7FEFF 		bl	USBD_Get_USB_Status
 885              	.LVL78:
 359:USB_DEVICE/Target/usbd_conf.c **** }
 886              		.loc 1 359 3 is_stmt 1 view .LVU186
 360:USB_DEVICE/Target/usbd_conf.c **** 
 887              		.loc 1 360 1 is_stmt 0 view .LVU187
 888              		@ sp needed
 889 0010 10BD     		pop	{r4, pc}
 890              		.cfi_endproc
 891              	.LFE57:
 893              		.section	.text.USBD_LL_Start,"ax",%progbits
 894              		.align	1
 895              		.global	USBD_LL_Start
 896              		.syntax unified
 897              		.code	16
 898              		.thumb_func
 900              	USBD_LL_Start:
 901              	.LVL79:
 902              	.LFB58:
 368:USB_DEVICE/Target/usbd_conf.c ****   HAL_StatusTypeDef hal_status = HAL_OK;
 903              		.loc 1 368 1 is_stmt 1 view -0
 904              		.cfi_startproc
 905              		@ args = 0, pretend = 0, frame = 0
 906              		@ frame_needed = 0, uses_anonymous_args = 0
 368:USB_DEVICE/Target/usbd_conf.c ****   HAL_StatusTypeDef hal_status = HAL_OK;
 907              		.loc 1 368 1 is_stmt 0 view .LVU189
 908 0000 10B5     		push	{r4, lr}
 909              	.LCFI17:
 910              		.cfi_def_cfa_offset 8
 911              		.cfi_offset 4, -8
 912              		.cfi_offset 14, -4
 369:USB_DEVICE/Target/usbd_conf.c ****   USBD_StatusTypeDef usb_status = USBD_OK;
ARM GAS  /tmp/ccnpnYGN.s 			page 31


 913              		.loc 1 369 3 is_stmt 1 view .LVU190
 914              	.LVL80:
 370:USB_DEVICE/Target/usbd_conf.c **** 
 915              		.loc 1 370 3 view .LVU191
 372:USB_DEVICE/Target/usbd_conf.c **** 
 916              		.loc 1 372 3 view .LVU192
 372:USB_DEVICE/Target/usbd_conf.c **** 
 917              		.loc 1 372 34 is_stmt 0 view .LVU193
 918 0002 B023     		movs	r3, #176
 919 0004 9B00     		lsls	r3, r3, #2
 920 0006 C058     		ldr	r0, [r0, r3]
 921              	.LVL81:
 372:USB_DEVICE/Target/usbd_conf.c **** 
 922              		.loc 1 372 16 view .LVU194
 923 0008 FFF7FEFF 		bl	HAL_PCD_Start
 924              	.LVL82:
 374:USB_DEVICE/Target/usbd_conf.c **** 
 925              		.loc 1 374 3 is_stmt 1 view .LVU195
 374:USB_DEVICE/Target/usbd_conf.c **** 
 926              		.loc 1 374 17 is_stmt 0 view .LVU196
 927 000c FFF7FEFF 		bl	USBD_Get_USB_Status
 928              	.LVL83:
 376:USB_DEVICE/Target/usbd_conf.c **** }
 929              		.loc 1 376 3 is_stmt 1 view .LVU197
 377:USB_DEVICE/Target/usbd_conf.c **** 
 930              		.loc 1 377 1 is_stmt 0 view .LVU198
 931              		@ sp needed
 932 0010 10BD     		pop	{r4, pc}
 933              		.cfi_endproc
 934              	.LFE58:
 936              		.section	.text.USBD_LL_Stop,"ax",%progbits
 937              		.align	1
 938              		.global	USBD_LL_Stop
 939              		.syntax unified
 940              		.code	16
 941              		.thumb_func
 943              	USBD_LL_Stop:
 944              	.LVL84:
 945              	.LFB59:
 385:USB_DEVICE/Target/usbd_conf.c ****   HAL_StatusTypeDef hal_status = HAL_OK;
 946              		.loc 1 385 1 is_stmt 1 view -0
 947              		.cfi_startproc
 948              		@ args = 0, pretend = 0, frame = 0
 949              		@ frame_needed = 0, uses_anonymous_args = 0
 385:USB_DEVICE/Target/usbd_conf.c ****   HAL_StatusTypeDef hal_status = HAL_OK;
 950              		.loc 1 385 1 is_stmt 0 view .LVU200
 951 0000 10B5     		push	{r4, lr}
 952              	.LCFI18:
 953              		.cfi_def_cfa_offset 8
 954              		.cfi_offset 4, -8
 955              		.cfi_offset 14, -4
 386:USB_DEVICE/Target/usbd_conf.c ****   USBD_StatusTypeDef usb_status = USBD_OK;
 956              		.loc 1 386 3 is_stmt 1 view .LVU201
 957              	.LVL85:
 387:USB_DEVICE/Target/usbd_conf.c **** 
 958              		.loc 1 387 3 view .LVU202
 389:USB_DEVICE/Target/usbd_conf.c **** 
ARM GAS  /tmp/ccnpnYGN.s 			page 32


 959              		.loc 1 389 3 view .LVU203
 389:USB_DEVICE/Target/usbd_conf.c **** 
 960              		.loc 1 389 33 is_stmt 0 view .LVU204
 961 0002 B023     		movs	r3, #176
 962 0004 9B00     		lsls	r3, r3, #2
 963 0006 C058     		ldr	r0, [r0, r3]
 964              	.LVL86:
 389:USB_DEVICE/Target/usbd_conf.c **** 
 965              		.loc 1 389 16 view .LVU205
 966 0008 FFF7FEFF 		bl	HAL_PCD_Stop
 967              	.LVL87:
 391:USB_DEVICE/Target/usbd_conf.c **** 
 968              		.loc 1 391 3 is_stmt 1 view .LVU206
 391:USB_DEVICE/Target/usbd_conf.c **** 
 969              		.loc 1 391 17 is_stmt 0 view .LVU207
 970 000c FFF7FEFF 		bl	USBD_Get_USB_Status
 971              	.LVL88:
 393:USB_DEVICE/Target/usbd_conf.c **** }
 972              		.loc 1 393 3 is_stmt 1 view .LVU208
 394:USB_DEVICE/Target/usbd_conf.c **** 
 973              		.loc 1 394 1 is_stmt 0 view .LVU209
 974              		@ sp needed
 975 0010 10BD     		pop	{r4, pc}
 976              		.cfi_endproc
 977              	.LFE59:
 979              		.section	.text.USBD_LL_OpenEP,"ax",%progbits
 980              		.align	1
 981              		.global	USBD_LL_OpenEP
 982              		.syntax unified
 983              		.code	16
 984              		.thumb_func
 986              	USBD_LL_OpenEP:
 987              	.LVL89:
 988              	.LFB60:
 405:USB_DEVICE/Target/usbd_conf.c ****   HAL_StatusTypeDef hal_status = HAL_OK;
 989              		.loc 1 405 1 is_stmt 1 view -0
 990              		.cfi_startproc
 991              		@ args = 0, pretend = 0, frame = 0
 992              		@ frame_needed = 0, uses_anonymous_args = 0
 405:USB_DEVICE/Target/usbd_conf.c ****   HAL_StatusTypeDef hal_status = HAL_OK;
 993              		.loc 1 405 1 is_stmt 0 view .LVU211
 994 0000 10B5     		push	{r4, lr}
 995              	.LCFI19:
 996              		.cfi_def_cfa_offset 8
 997              		.cfi_offset 4, -8
 998              		.cfi_offset 14, -4
 999 0002 1400     		movs	r4, r2
 1000 0004 1A00     		movs	r2, r3
 1001              	.LVL90:
 406:USB_DEVICE/Target/usbd_conf.c ****   USBD_StatusTypeDef usb_status = USBD_OK;
 1002              		.loc 1 406 3 is_stmt 1 view .LVU212
 407:USB_DEVICE/Target/usbd_conf.c **** 
 1003              		.loc 1 407 3 view .LVU213
 409:USB_DEVICE/Target/usbd_conf.c **** 
 1004              		.loc 1 409 3 view .LVU214
 409:USB_DEVICE/Target/usbd_conf.c **** 
 1005              		.loc 1 409 36 is_stmt 0 view .LVU215
ARM GAS  /tmp/ccnpnYGN.s 			page 33


 1006 0006 B023     		movs	r3, #176
 1007              	.LVL91:
 409:USB_DEVICE/Target/usbd_conf.c **** 
 1008              		.loc 1 409 36 view .LVU216
 1009 0008 9B00     		lsls	r3, r3, #2
 1010 000a C058     		ldr	r0, [r0, r3]
 1011              	.LVL92:
 409:USB_DEVICE/Target/usbd_conf.c **** 
 1012              		.loc 1 409 16 view .LVU217
 1013 000c 2300     		movs	r3, r4
 1014 000e FFF7FEFF 		bl	HAL_PCD_EP_Open
 1015              	.LVL93:
 411:USB_DEVICE/Target/usbd_conf.c **** 
 1016              		.loc 1 411 3 is_stmt 1 view .LVU218
 411:USB_DEVICE/Target/usbd_conf.c **** 
 1017              		.loc 1 411 17 is_stmt 0 view .LVU219
 1018 0012 FFF7FEFF 		bl	USBD_Get_USB_Status
 1019              	.LVL94:
 413:USB_DEVICE/Target/usbd_conf.c **** }
 1020              		.loc 1 413 3 is_stmt 1 view .LVU220
 414:USB_DEVICE/Target/usbd_conf.c **** 
 1021              		.loc 1 414 1 is_stmt 0 view .LVU221
 1022              		@ sp needed
 1023              	.LVL95:
 414:USB_DEVICE/Target/usbd_conf.c **** 
 1024              		.loc 1 414 1 view .LVU222
 1025 0016 10BD     		pop	{r4, pc}
 1026              		.cfi_endproc
 1027              	.LFE60:
 1029              		.section	.text.USBD_LL_CloseEP,"ax",%progbits
 1030              		.align	1
 1031              		.global	USBD_LL_CloseEP
 1032              		.syntax unified
 1033              		.code	16
 1034              		.thumb_func
 1036              	USBD_LL_CloseEP:
 1037              	.LVL96:
 1038              	.LFB61:
 423:USB_DEVICE/Target/usbd_conf.c ****   HAL_StatusTypeDef hal_status = HAL_OK;
 1039              		.loc 1 423 1 is_stmt 1 view -0
 1040              		.cfi_startproc
 1041              		@ args = 0, pretend = 0, frame = 0
 1042              		@ frame_needed = 0, uses_anonymous_args = 0
 423:USB_DEVICE/Target/usbd_conf.c ****   HAL_StatusTypeDef hal_status = HAL_OK;
 1043              		.loc 1 423 1 is_stmt 0 view .LVU224
 1044 0000 10B5     		push	{r4, lr}
 1045              	.LCFI20:
 1046              		.cfi_def_cfa_offset 8
 1047              		.cfi_offset 4, -8
 1048              		.cfi_offset 14, -4
 424:USB_DEVICE/Target/usbd_conf.c ****   USBD_StatusTypeDef usb_status = USBD_OK;
 1049              		.loc 1 424 3 is_stmt 1 view .LVU225
 1050              	.LVL97:
 425:USB_DEVICE/Target/usbd_conf.c **** 
 1051              		.loc 1 425 3 view .LVU226
 427:USB_DEVICE/Target/usbd_conf.c **** 
 1052              		.loc 1 427 3 view .LVU227
ARM GAS  /tmp/ccnpnYGN.s 			page 34


 427:USB_DEVICE/Target/usbd_conf.c **** 
 1053              		.loc 1 427 37 is_stmt 0 view .LVU228
 1054 0002 B023     		movs	r3, #176
 1055 0004 9B00     		lsls	r3, r3, #2
 1056 0006 C058     		ldr	r0, [r0, r3]
 1057              	.LVL98:
 427:USB_DEVICE/Target/usbd_conf.c **** 
 1058              		.loc 1 427 16 view .LVU229
 1059 0008 FFF7FEFF 		bl	HAL_PCD_EP_Close
 1060              	.LVL99:
 429:USB_DEVICE/Target/usbd_conf.c **** 
 1061              		.loc 1 429 3 is_stmt 1 view .LVU230
 429:USB_DEVICE/Target/usbd_conf.c **** 
 1062              		.loc 1 429 17 is_stmt 0 view .LVU231
 1063 000c FFF7FEFF 		bl	USBD_Get_USB_Status
 1064              	.LVL100:
 431:USB_DEVICE/Target/usbd_conf.c **** }
 1065              		.loc 1 431 3 is_stmt 1 view .LVU232
 432:USB_DEVICE/Target/usbd_conf.c **** 
 1066              		.loc 1 432 1 is_stmt 0 view .LVU233
 1067              		@ sp needed
 1068 0010 10BD     		pop	{r4, pc}
 1069              		.cfi_endproc
 1070              	.LFE61:
 1072              		.section	.text.USBD_LL_FlushEP,"ax",%progbits
 1073              		.align	1
 1074              		.global	USBD_LL_FlushEP
 1075              		.syntax unified
 1076              		.code	16
 1077              		.thumb_func
 1079              	USBD_LL_FlushEP:
 1080              	.LVL101:
 1081              	.LFB62:
 441:USB_DEVICE/Target/usbd_conf.c ****   HAL_StatusTypeDef hal_status = HAL_OK;
 1082              		.loc 1 441 1 is_stmt 1 view -0
 1083              		.cfi_startproc
 1084              		@ args = 0, pretend = 0, frame = 0
 1085              		@ frame_needed = 0, uses_anonymous_args = 0
 441:USB_DEVICE/Target/usbd_conf.c ****   HAL_StatusTypeDef hal_status = HAL_OK;
 1086              		.loc 1 441 1 is_stmt 0 view .LVU235
 1087 0000 10B5     		push	{r4, lr}
 1088              	.LCFI21:
 1089              		.cfi_def_cfa_offset 8
 1090              		.cfi_offset 4, -8
 1091              		.cfi_offset 14, -4
 442:USB_DEVICE/Target/usbd_conf.c ****   USBD_StatusTypeDef usb_status = USBD_OK;
 1092              		.loc 1 442 3 is_stmt 1 view .LVU236
 1093              	.LVL102:
 443:USB_DEVICE/Target/usbd_conf.c **** 
 1094              		.loc 1 443 3 view .LVU237
 445:USB_DEVICE/Target/usbd_conf.c **** 
 1095              		.loc 1 445 3 view .LVU238
 445:USB_DEVICE/Target/usbd_conf.c **** 
 1096              		.loc 1 445 37 is_stmt 0 view .LVU239
 1097 0002 B023     		movs	r3, #176
 1098 0004 9B00     		lsls	r3, r3, #2
 1099 0006 C058     		ldr	r0, [r0, r3]
ARM GAS  /tmp/ccnpnYGN.s 			page 35


 1100              	.LVL103:
 445:USB_DEVICE/Target/usbd_conf.c **** 
 1101              		.loc 1 445 16 view .LVU240
 1102 0008 FFF7FEFF 		bl	HAL_PCD_EP_Flush
 1103              	.LVL104:
 447:USB_DEVICE/Target/usbd_conf.c **** 
 1104              		.loc 1 447 3 is_stmt 1 view .LVU241
 447:USB_DEVICE/Target/usbd_conf.c **** 
 1105              		.loc 1 447 17 is_stmt 0 view .LVU242
 1106 000c FFF7FEFF 		bl	USBD_Get_USB_Status
 1107              	.LVL105:
 449:USB_DEVICE/Target/usbd_conf.c **** }
 1108              		.loc 1 449 3 is_stmt 1 view .LVU243
 450:USB_DEVICE/Target/usbd_conf.c **** 
 1109              		.loc 1 450 1 is_stmt 0 view .LVU244
 1110              		@ sp needed
 1111 0010 10BD     		pop	{r4, pc}
 1112              		.cfi_endproc
 1113              	.LFE62:
 1115              		.section	.text.USBD_LL_StallEP,"ax",%progbits
 1116              		.align	1
 1117              		.global	USBD_LL_StallEP
 1118              		.syntax unified
 1119              		.code	16
 1120              		.thumb_func
 1122              	USBD_LL_StallEP:
 1123              	.LVL106:
 1124              	.LFB63:
 459:USB_DEVICE/Target/usbd_conf.c ****   HAL_StatusTypeDef hal_status = HAL_OK;
 1125              		.loc 1 459 1 is_stmt 1 view -0
 1126              		.cfi_startproc
 1127              		@ args = 0, pretend = 0, frame = 0
 1128              		@ frame_needed = 0, uses_anonymous_args = 0
 459:USB_DEVICE/Target/usbd_conf.c ****   HAL_StatusTypeDef hal_status = HAL_OK;
 1129              		.loc 1 459 1 is_stmt 0 view .LVU246
 1130 0000 10B5     		push	{r4, lr}
 1131              	.LCFI22:
 1132              		.cfi_def_cfa_offset 8
 1133              		.cfi_offset 4, -8
 1134              		.cfi_offset 14, -4
 460:USB_DEVICE/Target/usbd_conf.c ****   USBD_StatusTypeDef usb_status = USBD_OK;
 1135              		.loc 1 460 3 is_stmt 1 view .LVU247
 1136              	.LVL107:
 461:USB_DEVICE/Target/usbd_conf.c **** 
 1137              		.loc 1 461 3 view .LVU248
 463:USB_DEVICE/Target/usbd_conf.c **** 
 1138              		.loc 1 463 3 view .LVU249
 463:USB_DEVICE/Target/usbd_conf.c **** 
 1139              		.loc 1 463 40 is_stmt 0 view .LVU250
 1140 0002 B023     		movs	r3, #176
 1141 0004 9B00     		lsls	r3, r3, #2
 1142 0006 C058     		ldr	r0, [r0, r3]
 1143              	.LVL108:
 463:USB_DEVICE/Target/usbd_conf.c **** 
 1144              		.loc 1 463 16 view .LVU251
 1145 0008 FFF7FEFF 		bl	HAL_PCD_EP_SetStall
 1146              	.LVL109:
ARM GAS  /tmp/ccnpnYGN.s 			page 36


 465:USB_DEVICE/Target/usbd_conf.c **** 
 1147              		.loc 1 465 3 is_stmt 1 view .LVU252
 465:USB_DEVICE/Target/usbd_conf.c **** 
 1148              		.loc 1 465 17 is_stmt 0 view .LVU253
 1149 000c FFF7FEFF 		bl	USBD_Get_USB_Status
 1150              	.LVL110:
 467:USB_DEVICE/Target/usbd_conf.c **** }
 1151              		.loc 1 467 3 is_stmt 1 view .LVU254
 468:USB_DEVICE/Target/usbd_conf.c **** 
 1152              		.loc 1 468 1 is_stmt 0 view .LVU255
 1153              		@ sp needed
 1154 0010 10BD     		pop	{r4, pc}
 1155              		.cfi_endproc
 1156              	.LFE63:
 1158              		.section	.text.USBD_LL_ClearStallEP,"ax",%progbits
 1159              		.align	1
 1160              		.global	USBD_LL_ClearStallEP
 1161              		.syntax unified
 1162              		.code	16
 1163              		.thumb_func
 1165              	USBD_LL_ClearStallEP:
 1166              	.LVL111:
 1167              	.LFB64:
 477:USB_DEVICE/Target/usbd_conf.c ****   HAL_StatusTypeDef hal_status = HAL_OK;
 1168              		.loc 1 477 1 is_stmt 1 view -0
 1169              		.cfi_startproc
 1170              		@ args = 0, pretend = 0, frame = 0
 1171              		@ frame_needed = 0, uses_anonymous_args = 0
 477:USB_DEVICE/Target/usbd_conf.c ****   HAL_StatusTypeDef hal_status = HAL_OK;
 1172              		.loc 1 477 1 is_stmt 0 view .LVU257
 1173 0000 10B5     		push	{r4, lr}
 1174              	.LCFI23:
 1175              		.cfi_def_cfa_offset 8
 1176              		.cfi_offset 4, -8
 1177              		.cfi_offset 14, -4
 478:USB_DEVICE/Target/usbd_conf.c ****   USBD_StatusTypeDef usb_status = USBD_OK;
 1178              		.loc 1 478 3 is_stmt 1 view .LVU258
 1179              	.LVL112:
 479:USB_DEVICE/Target/usbd_conf.c **** 
 1180              		.loc 1 479 3 view .LVU259
 481:USB_DEVICE/Target/usbd_conf.c **** 
 1181              		.loc 1 481 3 view .LVU260
 481:USB_DEVICE/Target/usbd_conf.c **** 
 1182              		.loc 1 481 40 is_stmt 0 view .LVU261
 1183 0002 B023     		movs	r3, #176
 1184 0004 9B00     		lsls	r3, r3, #2
 1185 0006 C058     		ldr	r0, [r0, r3]
 1186              	.LVL113:
 481:USB_DEVICE/Target/usbd_conf.c **** 
 1187              		.loc 1 481 16 view .LVU262
 1188 0008 FFF7FEFF 		bl	HAL_PCD_EP_ClrStall
 1189              	.LVL114:
 483:USB_DEVICE/Target/usbd_conf.c **** 
 1190              		.loc 1 483 3 is_stmt 1 view .LVU263
 483:USB_DEVICE/Target/usbd_conf.c **** 
 1191              		.loc 1 483 17 is_stmt 0 view .LVU264
 1192 000c FFF7FEFF 		bl	USBD_Get_USB_Status
ARM GAS  /tmp/ccnpnYGN.s 			page 37


 1193              	.LVL115:
 485:USB_DEVICE/Target/usbd_conf.c **** }
 1194              		.loc 1 485 3 is_stmt 1 view .LVU265
 486:USB_DEVICE/Target/usbd_conf.c **** 
 1195              		.loc 1 486 1 is_stmt 0 view .LVU266
 1196              		@ sp needed
 1197 0010 10BD     		pop	{r4, pc}
 1198              		.cfi_endproc
 1199              	.LFE64:
 1201              		.section	.text.USBD_LL_IsStallEP,"ax",%progbits
 1202              		.align	1
 1203              		.global	USBD_LL_IsStallEP
 1204              		.syntax unified
 1205              		.code	16
 1206              		.thumb_func
 1208              	USBD_LL_IsStallEP:
 1209              	.LVL116:
 1210              	.LFB65:
 495:USB_DEVICE/Target/usbd_conf.c ****   PCD_HandleTypeDef *hpcd = (PCD_HandleTypeDef*) pdev->pData;
 1211              		.loc 1 495 1 is_stmt 1 view -0
 1212              		.cfi_startproc
 1213              		@ args = 0, pretend = 0, frame = 0
 1214              		@ frame_needed = 0, uses_anonymous_args = 0
 1215              		@ link register save eliminated.
 496:USB_DEVICE/Target/usbd_conf.c **** 
 1216              		.loc 1 496 3 view .LVU268
 496:USB_DEVICE/Target/usbd_conf.c **** 
 1217              		.loc 1 496 22 is_stmt 0 view .LVU269
 1218 0000 B023     		movs	r3, #176
 1219 0002 9B00     		lsls	r3, r3, #2
 1220 0004 C358     		ldr	r3, [r0, r3]
 1221              	.LVL117:
 498:USB_DEVICE/Target/usbd_conf.c ****   {
 1222              		.loc 1 498 3 is_stmt 1 view .LVU270
 498:USB_DEVICE/Target/usbd_conf.c ****   {
 1223              		.loc 1 498 23 is_stmt 0 view .LVU271
 1224 0006 4AB2     		sxtb	r2, r1
 498:USB_DEVICE/Target/usbd_conf.c ****   {
 1225              		.loc 1 498 5 view .LVU272
 1226 0008 002A     		cmp	r2, #0
 1227 000a 09DB     		blt	.L53
 504:USB_DEVICE/Target/usbd_conf.c ****   }
 1228              		.loc 1 504 5 is_stmt 1 view .LVU273
 504:USB_DEVICE/Target/usbd_conf.c ****   }
 1229              		.loc 1 504 33 is_stmt 0 view .LVU274
 1230 000c 7F22     		movs	r2, #127
 1231 000e 1140     		ands	r1, r2
 1232              	.LVL118:
 504:USB_DEVICE/Target/usbd_conf.c ****   }
 1233              		.loc 1 504 40 view .LVU275
 1234 0010 8A00     		lsls	r2, r1, #2
 1235 0012 5218     		adds	r2, r2, r1
 1236 0014 D200     		lsls	r2, r2, #3
 1237 0016 9B18     		adds	r3, r3, r2
 1238              	.LVL119:
 504:USB_DEVICE/Target/usbd_conf.c ****   }
 1239              		.loc 1 504 40 view .LVU276
ARM GAS  /tmp/ccnpnYGN.s 			page 38


 1240 0018 5333     		adds	r3, r3, #83
 1241 001a FF33     		adds	r3, r3, #255
 1242 001c 1878     		ldrb	r0, [r3]
 1243              	.LVL120:
 1244              	.L52:
 506:USB_DEVICE/Target/usbd_conf.c **** 
 1245              		.loc 1 506 1 view .LVU277
 1246              		@ sp needed
 1247 001e 7047     		bx	lr
 1248              	.LVL121:
 1249              	.L53:
 500:USB_DEVICE/Target/usbd_conf.c ****   }
 1250              		.loc 1 500 5 is_stmt 1 view .LVU278
 500:USB_DEVICE/Target/usbd_conf.c ****   }
 1251              		.loc 1 500 32 is_stmt 0 view .LVU279
 1252 0020 7F22     		movs	r2, #127
 1253 0022 1140     		ands	r1, r2
 1254              	.LVL122:
 500:USB_DEVICE/Target/usbd_conf.c ****   }
 1255              		.loc 1 500 39 view .LVU280
 1256 0024 8A00     		lsls	r2, r1, #2
 1257 0026 5218     		adds	r2, r2, r1
 1258 0028 D200     		lsls	r2, r2, #3
 1259 002a 9B18     		adds	r3, r3, r2
 1260              	.LVL123:
 500:USB_DEVICE/Target/usbd_conf.c ****   }
 1261              		.loc 1 500 39 view .LVU281
 1262 002c 987C     		ldrb	r0, [r3, #18]
 1263              	.LVL124:
 500:USB_DEVICE/Target/usbd_conf.c ****   }
 1264              		.loc 1 500 39 view .LVU282
 1265 002e F6E7     		b	.L52
 1266              		.cfi_endproc
 1267              	.LFE65:
 1269              		.section	.text.USBD_LL_SetUSBAddress,"ax",%progbits
 1270              		.align	1
 1271              		.global	USBD_LL_SetUSBAddress
 1272              		.syntax unified
 1273              		.code	16
 1274              		.thumb_func
 1276              	USBD_LL_SetUSBAddress:
 1277              	.LVL125:
 1278              	.LFB66:
 515:USB_DEVICE/Target/usbd_conf.c ****   HAL_StatusTypeDef hal_status = HAL_OK;
 1279              		.loc 1 515 1 is_stmt 1 view -0
 1280              		.cfi_startproc
 1281              		@ args = 0, pretend = 0, frame = 0
 1282              		@ frame_needed = 0, uses_anonymous_args = 0
 515:USB_DEVICE/Target/usbd_conf.c ****   HAL_StatusTypeDef hal_status = HAL_OK;
 1283              		.loc 1 515 1 is_stmt 0 view .LVU284
 1284 0000 10B5     		push	{r4, lr}
 1285              	.LCFI24:
 1286              		.cfi_def_cfa_offset 8
 1287              		.cfi_offset 4, -8
 1288              		.cfi_offset 14, -4
 516:USB_DEVICE/Target/usbd_conf.c ****   USBD_StatusTypeDef usb_status = USBD_OK;
 1289              		.loc 1 516 3 is_stmt 1 view .LVU285
ARM GAS  /tmp/ccnpnYGN.s 			page 39


 1290              	.LVL126:
 517:USB_DEVICE/Target/usbd_conf.c **** 
 1291              		.loc 1 517 3 view .LVU286
 519:USB_DEVICE/Target/usbd_conf.c **** 
 1292              		.loc 1 519 3 view .LVU287
 519:USB_DEVICE/Target/usbd_conf.c **** 
 1293              		.loc 1 519 39 is_stmt 0 view .LVU288
 1294 0002 B023     		movs	r3, #176
 1295 0004 9B00     		lsls	r3, r3, #2
 1296 0006 C058     		ldr	r0, [r0, r3]
 1297              	.LVL127:
 519:USB_DEVICE/Target/usbd_conf.c **** 
 1298              		.loc 1 519 16 view .LVU289
 1299 0008 FFF7FEFF 		bl	HAL_PCD_SetAddress
 1300              	.LVL128:
 521:USB_DEVICE/Target/usbd_conf.c **** 
 1301              		.loc 1 521 3 is_stmt 1 view .LVU290
 521:USB_DEVICE/Target/usbd_conf.c **** 
 1302              		.loc 1 521 17 is_stmt 0 view .LVU291
 1303 000c FFF7FEFF 		bl	USBD_Get_USB_Status
 1304              	.LVL129:
 523:USB_DEVICE/Target/usbd_conf.c **** }
 1305              		.loc 1 523 3 is_stmt 1 view .LVU292
 524:USB_DEVICE/Target/usbd_conf.c **** 
 1306              		.loc 1 524 1 is_stmt 0 view .LVU293
 1307              		@ sp needed
 1308 0010 10BD     		pop	{r4, pc}
 1309              		.cfi_endproc
 1310              	.LFE66:
 1312              		.section	.text.USBD_LL_Transmit,"ax",%progbits
 1313              		.align	1
 1314              		.global	USBD_LL_Transmit
 1315              		.syntax unified
 1316              		.code	16
 1317              		.thumb_func
 1319              	USBD_LL_Transmit:
 1320              	.LVL130:
 1321              	.LFB67:
 535:USB_DEVICE/Target/usbd_conf.c ****   HAL_StatusTypeDef hal_status = HAL_OK;
 1322              		.loc 1 535 1 is_stmt 1 view -0
 1323              		.cfi_startproc
 1324              		@ args = 0, pretend = 0, frame = 0
 1325              		@ frame_needed = 0, uses_anonymous_args = 0
 535:USB_DEVICE/Target/usbd_conf.c ****   HAL_StatusTypeDef hal_status = HAL_OK;
 1326              		.loc 1 535 1 is_stmt 0 view .LVU295
 1327 0000 10B5     		push	{r4, lr}
 1328              	.LCFI25:
 1329              		.cfi_def_cfa_offset 8
 1330              		.cfi_offset 4, -8
 1331              		.cfi_offset 14, -4
 536:USB_DEVICE/Target/usbd_conf.c ****   USBD_StatusTypeDef usb_status = USBD_OK;
 1332              		.loc 1 536 3 is_stmt 1 view .LVU296
 1333              	.LVL131:
 537:USB_DEVICE/Target/usbd_conf.c **** 
 1334              		.loc 1 537 3 view .LVU297
 539:USB_DEVICE/Target/usbd_conf.c **** 
 1335              		.loc 1 539 3 view .LVU298
ARM GAS  /tmp/ccnpnYGN.s 			page 40


 539:USB_DEVICE/Target/usbd_conf.c **** 
 1336              		.loc 1 539 40 is_stmt 0 view .LVU299
 1337 0002 B024     		movs	r4, #176
 1338 0004 A400     		lsls	r4, r4, #2
 1339 0006 0059     		ldr	r0, [r0, r4]
 1340              	.LVL132:
 539:USB_DEVICE/Target/usbd_conf.c **** 
 1341              		.loc 1 539 16 view .LVU300
 1342 0008 FFF7FEFF 		bl	HAL_PCD_EP_Transmit
 1343              	.LVL133:
 541:USB_DEVICE/Target/usbd_conf.c **** 
 1344              		.loc 1 541 3 is_stmt 1 view .LVU301
 541:USB_DEVICE/Target/usbd_conf.c **** 
 1345              		.loc 1 541 17 is_stmt 0 view .LVU302
 1346 000c FFF7FEFF 		bl	USBD_Get_USB_Status
 1347              	.LVL134:
 543:USB_DEVICE/Target/usbd_conf.c **** }
 1348              		.loc 1 543 3 is_stmt 1 view .LVU303
 544:USB_DEVICE/Target/usbd_conf.c **** 
 1349              		.loc 1 544 1 is_stmt 0 view .LVU304
 1350              		@ sp needed
 1351 0010 10BD     		pop	{r4, pc}
 1352              		.cfi_endproc
 1353              	.LFE67:
 1355              		.section	.text.USBD_LL_PrepareReceive,"ax",%progbits
 1356              		.align	1
 1357              		.global	USBD_LL_PrepareReceive
 1358              		.syntax unified
 1359              		.code	16
 1360              		.thumb_func
 1362              	USBD_LL_PrepareReceive:
 1363              	.LVL135:
 1364              	.LFB68:
 555:USB_DEVICE/Target/usbd_conf.c ****   HAL_StatusTypeDef hal_status = HAL_OK;
 1365              		.loc 1 555 1 is_stmt 1 view -0
 1366              		.cfi_startproc
 1367              		@ args = 0, pretend = 0, frame = 0
 1368              		@ frame_needed = 0, uses_anonymous_args = 0
 555:USB_DEVICE/Target/usbd_conf.c ****   HAL_StatusTypeDef hal_status = HAL_OK;
 1369              		.loc 1 555 1 is_stmt 0 view .LVU306
 1370 0000 10B5     		push	{r4, lr}
 1371              	.LCFI26:
 1372              		.cfi_def_cfa_offset 8
 1373              		.cfi_offset 4, -8
 1374              		.cfi_offset 14, -4
 556:USB_DEVICE/Target/usbd_conf.c ****   USBD_StatusTypeDef usb_status = USBD_OK;
 1375              		.loc 1 556 3 is_stmt 1 view .LVU307
 1376              	.LVL136:
 557:USB_DEVICE/Target/usbd_conf.c **** 
 1377              		.loc 1 557 3 view .LVU308
 559:USB_DEVICE/Target/usbd_conf.c **** 
 1378              		.loc 1 559 3 view .LVU309
 559:USB_DEVICE/Target/usbd_conf.c **** 
 1379              		.loc 1 559 39 is_stmt 0 view .LVU310
 1380 0002 B024     		movs	r4, #176
 1381 0004 A400     		lsls	r4, r4, #2
 1382 0006 0059     		ldr	r0, [r0, r4]
ARM GAS  /tmp/ccnpnYGN.s 			page 41


 1383              	.LVL137:
 559:USB_DEVICE/Target/usbd_conf.c **** 
 1384              		.loc 1 559 16 view .LVU311
 1385 0008 FFF7FEFF 		bl	HAL_PCD_EP_Receive
 1386              	.LVL138:
 561:USB_DEVICE/Target/usbd_conf.c **** 
 1387              		.loc 1 561 3 is_stmt 1 view .LVU312
 561:USB_DEVICE/Target/usbd_conf.c **** 
 1388              		.loc 1 561 17 is_stmt 0 view .LVU313
 1389 000c FFF7FEFF 		bl	USBD_Get_USB_Status
 1390              	.LVL139:
 563:USB_DEVICE/Target/usbd_conf.c **** }
 1391              		.loc 1 563 3 is_stmt 1 view .LVU314
 564:USB_DEVICE/Target/usbd_conf.c **** 
 1392              		.loc 1 564 1 is_stmt 0 view .LVU315
 1393              		@ sp needed
 1394 0010 10BD     		pop	{r4, pc}
 1395              		.cfi_endproc
 1396              	.LFE68:
 1398              		.section	.text.USBD_LL_GetRxDataSize,"ax",%progbits
 1399              		.align	1
 1400              		.global	USBD_LL_GetRxDataSize
 1401              		.syntax unified
 1402              		.code	16
 1403              		.thumb_func
 1405              	USBD_LL_GetRxDataSize:
 1406              	.LVL140:
 1407              	.LFB69:
 573:USB_DEVICE/Target/usbd_conf.c ****   return HAL_PCD_EP_GetRxCount((PCD_HandleTypeDef*) pdev->pData, ep_addr);
 1408              		.loc 1 573 1 is_stmt 1 view -0
 1409              		.cfi_startproc
 1410              		@ args = 0, pretend = 0, frame = 0
 1411              		@ frame_needed = 0, uses_anonymous_args = 0
 573:USB_DEVICE/Target/usbd_conf.c ****   return HAL_PCD_EP_GetRxCount((PCD_HandleTypeDef*) pdev->pData, ep_addr);
 1412              		.loc 1 573 1 is_stmt 0 view .LVU317
 1413 0000 10B5     		push	{r4, lr}
 1414              	.LCFI27:
 1415              		.cfi_def_cfa_offset 8
 1416              		.cfi_offset 4, -8
 1417              		.cfi_offset 14, -4
 574:USB_DEVICE/Target/usbd_conf.c **** }
 1418              		.loc 1 574 3 is_stmt 1 view .LVU318
 574:USB_DEVICE/Target/usbd_conf.c **** }
 1419              		.loc 1 574 57 is_stmt 0 view .LVU319
 1420 0002 B023     		movs	r3, #176
 1421 0004 9B00     		lsls	r3, r3, #2
 1422 0006 C058     		ldr	r0, [r0, r3]
 1423              	.LVL141:
 574:USB_DEVICE/Target/usbd_conf.c **** }
 1424              		.loc 1 574 10 view .LVU320
 1425 0008 FFF7FEFF 		bl	HAL_PCD_EP_GetRxCount
 1426              	.LVL142:
 575:USB_DEVICE/Target/usbd_conf.c **** 
 1427              		.loc 1 575 1 view .LVU321
 1428              		@ sp needed
 1429 000c 10BD     		pop	{r4, pc}
 1430              		.cfi_endproc
ARM GAS  /tmp/ccnpnYGN.s 			page 42


 1431              	.LFE69:
 1433              		.section	.text.USBD_LL_Delay,"ax",%progbits
 1434              		.align	1
 1435              		.global	USBD_LL_Delay
 1436              		.syntax unified
 1437              		.code	16
 1438              		.thumb_func
 1440              	USBD_LL_Delay:
 1441              	.LVL143:
 1442              	.LFB70:
 583:USB_DEVICE/Target/usbd_conf.c ****   HAL_Delay(Delay);
 1443              		.loc 1 583 1 is_stmt 1 view -0
 1444              		.cfi_startproc
 1445              		@ args = 0, pretend = 0, frame = 0
 1446              		@ frame_needed = 0, uses_anonymous_args = 0
 583:USB_DEVICE/Target/usbd_conf.c ****   HAL_Delay(Delay);
 1447              		.loc 1 583 1 is_stmt 0 view .LVU323
 1448 0000 10B5     		push	{r4, lr}
 1449              	.LCFI28:
 1450              		.cfi_def_cfa_offset 8
 1451              		.cfi_offset 4, -8
 1452              		.cfi_offset 14, -4
 584:USB_DEVICE/Target/usbd_conf.c **** }
 1453              		.loc 1 584 3 is_stmt 1 view .LVU324
 1454 0002 FFF7FEFF 		bl	HAL_Delay
 1455              	.LVL144:
 585:USB_DEVICE/Target/usbd_conf.c **** 
 1456              		.loc 1 585 1 is_stmt 0 view .LVU325
 1457              		@ sp needed
 1458 0006 10BD     		pop	{r4, pc}
 1459              		.cfi_endproc
 1460              	.LFE70:
 1462              		.section	.text.USBD_static_malloc,"ax",%progbits
 1463              		.align	1
 1464              		.global	USBD_static_malloc
 1465              		.syntax unified
 1466              		.code	16
 1467              		.thumb_func
 1469              	USBD_static_malloc:
 1470              	.LVL145:
 1471              	.LFB71:
 593:USB_DEVICE/Target/usbd_conf.c ****   static uint32_t mem[(sizeof(USBD_CDC_HandleTypeDef)/4)+1];/* On 32-bit boundary */
 1472              		.loc 1 593 1 is_stmt 1 view -0
 1473              		.cfi_startproc
 1474              		@ args = 0, pretend = 0, frame = 0
 1475              		@ frame_needed = 0, uses_anonymous_args = 0
 1476              		@ link register save eliminated.
 594:USB_DEVICE/Target/usbd_conf.c ****   return mem;
 1477              		.loc 1 594 3 view .LVU327
 595:USB_DEVICE/Target/usbd_conf.c **** }
 1478              		.loc 1 595 3 view .LVU328
 595:USB_DEVICE/Target/usbd_conf.c **** }
 1479              		.loc 1 595 10 is_stmt 0 discriminator 1 view .LVU329
 1480 0000 0048     		ldr	r0, .L60
 1481              	.LVL146:
 596:USB_DEVICE/Target/usbd_conf.c **** 
 1482              		.loc 1 596 1 view .LVU330
ARM GAS  /tmp/ccnpnYGN.s 			page 43


 1483              		@ sp needed
 1484 0002 7047     		bx	lr
 1485              	.L61:
 1486              		.align	2
 1487              	.L60:
 1488 0004 00000000 		.word	mem.0
 1489              		.cfi_endproc
 1490              	.LFE71:
 1492              		.section	.text.USBD_static_free,"ax",%progbits
 1493              		.align	1
 1494              		.global	USBD_static_free
 1495              		.syntax unified
 1496              		.code	16
 1497              		.thumb_func
 1499              	USBD_static_free:
 1500              	.LVL147:
 1501              	.LFB72:
 604:USB_DEVICE/Target/usbd_conf.c **** 
 1502              		.loc 1 604 1 is_stmt 1 view -0
 1503              		.cfi_startproc
 1504              		@ args = 0, pretend = 0, frame = 0
 1505              		@ frame_needed = 0, uses_anonymous_args = 0
 1506              		@ link register save eliminated.
 606:USB_DEVICE/Target/usbd_conf.c **** 
 1507              		.loc 1 606 1 view .LVU332
 1508              		@ sp needed
 1509 0000 7047     		bx	lr
 1510              		.cfi_endproc
 1511              	.LFE72:
 1513              		.section	.bss.mem.0,"aw",%nobits
 1514              		.align	2
 1517              	mem.0:
 1518 0000 00000000 		.space	544
 1518      00000000 
 1518      00000000 
 1518      00000000 
 1518      00000000 
 1519              		.global	hpcd_USB_FS
 1520              		.section	.bss.hpcd_USB_FS,"aw",%nobits
 1521              		.align	2
 1524              	hpcd_USB_FS:
 1525 0000 00000000 		.space	732
 1525      00000000 
 1525      00000000 
 1525      00000000 
 1525      00000000 
 1526              		.text
 1527              	.Letext0:
 1528              		.file 2 "Drivers/CMSIS/Device/ST/STM32F0xx/Include/stm32f042x6.h"
 1529              		.file 3 "/usr/arm-none-eabi/include/machine/_default_types.h"
 1530              		.file 4 "/usr/arm-none-eabi/include/sys/_stdint.h"
 1531              		.file 5 "Drivers/CMSIS/Include/core_cm0.h"
 1532              		.file 6 "Drivers/CMSIS/Device/ST/STM32F0xx/Include/stm32f0xx.h"
 1533              		.file 7 "Drivers/STM32F0xx_HAL_Driver/Inc/stm32f0xx_hal_def.h"
 1534              		.file 8 "Drivers/STM32F0xx_HAL_Driver/Inc/stm32f0xx_ll_usb.h"
 1535              		.file 9 "Drivers/STM32F0xx_HAL_Driver/Inc/stm32f0xx_hal_pcd.h"
 1536              		.file 10 "Middlewares/ST/STM32_USB_Device_Library/Core/Inc/usbd_def.h"
ARM GAS  /tmp/ccnpnYGN.s 			page 44


 1537              		.file 11 "Drivers/STM32F0xx_HAL_Driver/Inc/stm32f0xx_hal_pcd_ex.h"
 1538              		.file 12 "Middlewares/ST/STM32_USB_Device_Library/Core/Inc/usbd_core.h"
 1539              		.file 13 "Drivers/STM32F0xx_HAL_Driver/Inc/stm32f0xx_hal.h"
 1540              		.file 14 "Drivers/STM32F0xx_HAL_Driver/Inc/stm32f0xx_hal_cortex.h"
ARM GAS  /tmp/ccnpnYGN.s 			page 45

